SF:/home/jesse/ry/crates/_ryo3-dev/src/anystr.rs
FN:37,_RNvNtCs2OSVRbilGt5_8ryo3_dev6anystr10bytes_noop
FN:27,_RNvNtCs2OSVRbilGt5_8ryo3_dev6anystr11anystr_noop
FN:32,_RNvNtCs2OSVRbilGt5_8ryo3_dev6anystr11string_noop
FN:44,_RNvNtCs2OSVRbilGt5_8ryo3_dev6anystr9pymod_add
FNDA:0,_RNvNtCs2OSVRbilGt5_8ryo3_dev6anystr10bytes_noop
FNDA:4,_RNvNtCs2OSVRbilGt5_8ryo3_dev6anystr11anystr_noop
FNDA:0,_RNvNtCs2OSVRbilGt5_8ryo3_dev6anystr11string_noop
FNDA:8,_RNvNtCs2OSVRbilGt5_8ryo3_dev6anystr9pymod_add
FNF:4
FNH:2
DA:27,4
DA:28,4
DA:29,4
DA:32,0
DA:33,0
DA:34,0
DA:37,0
DA:38,0
DA:39,0
DA:40,0
DA:41,0
DA:42,0
DA:44,8
DA:45,8
DA:46,8
DA:47,8
DA:48,8
DA:49,8
BRF:0
BRH:0
LF:18
LH:9
end_of_record
SF:/home/jesse/ry/crates/_ryo3-dev/src/lib.rs
FN:21,_RNvCs2OSVRbilGt5_8ryo3_dev9pymod_add
FNDA:8,_RNvCs2OSVRbilGt5_8ryo3_dev9pymod_add
FNF:1
FNH:1
DA:21,8
DA:22,8
DA:23,8
DA:24,8
DA:25,8
BRF:0
BRH:0
LF:5
LH:5
end_of_record
SF:/home/jesse/ry/crates/_ryo3-dev/src/sp/done.rs
FN:16,_RNvMNtNtCs2OSVRbilGt5_8ryo3_dev2sp4doneNtB2_4Done3new
FNDA:1,_RNvMNtNtCs2OSVRbilGt5_8ryo3_dev2sp4doneNtB2_4Done3new
FNF:1
FNH:1
DA:16,1
DA:17,1
DA:18,1
DA:19,1
DA:20,1
DA:21,1
DA:22,1
DA:23,1
BRF:0
BRH:0
LF:8
LH:8
end_of_record
SF:/home/jesse/ry/crates/_ryo3-dev/src/sp/mod.rs
FN:9,_RNvNtCs2OSVRbilGt5_8ryo3_dev2sp9pymod_add
FNDA:8,_RNvNtCs2OSVRbilGt5_8ryo3_dev2sp9pymod_add
FNF:1
FNH:1
DA:9,8
DA:10,8
DA:11,8
DA:12,8
BRF:0
BRH:0
LF:4
LH:4
end_of_record
SF:/home/jesse/ry/crates/_ryo3-dev/src/sp/pydone.rs
FN:39,_RNvMsa_NtNtCs2OSVRbilGt5_8ryo3_dev2sp6pydoneNtB5_6PyDone10returncode
FN:15,_RNvMsa_NtNtCs2OSVRbilGt5_8ryo3_dev2sp6pydoneNtB5_6PyDone3new
FN:44,_RNvMsa_NtNtCs2OSVRbilGt5_8ryo3_dev2sp6pydoneNtB5_6PyDone4args
FN:34,_RNvMsa_NtNtCs2OSVRbilGt5_8ryo3_dev2sp6pydoneNtB5_6PyDone6stderr
FN:29,_RNvMsa_NtNtCs2OSVRbilGt5_8ryo3_dev2sp6pydoneNtB5_6PyDone6stdout
FN:24,_RNvMsa_NtNtCs2OSVRbilGt5_8ryo3_dev2sp6pydoneNtB5_6PyDone7___str__
FN:20,_RNvMsa_NtNtCs2OSVRbilGt5_8ryo3_dev2sp6pydoneNtB5_6PyDone8___repr__
FN:12,_RNvMsc_NtNtCs2OSVRbilGt5_8ryo3_dev2sp6pydoneNtB5_6PyDone20___pymethod___str____
FN:12,_RNvMsc_NtNtCs2OSVRbilGt5_8ryo3_dev2sp6pydoneNtB5_6PyDone21___pymethod___repr____
FN:12,_RNvMsc_NtNtCs2OSVRbilGt5_8ryo3_dev2sp6pydoneNtB5_6PyDone21___pymethod_get_args__
FN:12,_RNvMsc_NtNtCs2OSVRbilGt5_8ryo3_dev2sp6pydoneNtB5_6PyDone23___pymethod_get_stderr__
FN:12,_RNvMsc_NtNtCs2OSVRbilGt5_8ryo3_dev2sp6pydoneNtB5_6PyDone23___pymethod_get_stdout__
FN:12,_RNvMsc_NtNtCs2OSVRbilGt5_8ryo3_dev2sp6pydoneNtB5_6PyDone27___pymethod_get_returncode__
FN:50,_RNvXNtNtCs2OSVRbilGt5_8ryo3_dev2sp6pydoneNtB2_6PyDoneINtNtCs66KPHxksi63_4core7convert4FromNtNtB4_4done4DoneE4from
FNDA:1,_RNvMsa_NtNtCs2OSVRbilGt5_8ryo3_dev2sp6pydoneNtB5_6PyDone10returncode
FNDA:0,_RNvMsa_NtNtCs2OSVRbilGt5_8ryo3_dev2sp6pydoneNtB5_6PyDone3new
FNDA:0,_RNvMsa_NtNtCs2OSVRbilGt5_8ryo3_dev2sp6pydoneNtB5_6PyDone4args
FNDA:0,_RNvMsa_NtNtCs2OSVRbilGt5_8ryo3_dev2sp6pydoneNtB5_6PyDone6stderr
FNDA:0,_RNvMsa_NtNtCs2OSVRbilGt5_8ryo3_dev2sp6pydoneNtB5_6PyDone6stdout
FNDA:1,_RNvMsa_NtNtCs2OSVRbilGt5_8ryo3_dev2sp6pydoneNtB5_6PyDone7___str__
FNDA:1,_RNvMsa_NtNtCs2OSVRbilGt5_8ryo3_dev2sp6pydoneNtB5_6PyDone8___repr__
FNDA:0,_RNvMsc_NtNtCs2OSVRbilGt5_8ryo3_dev2sp6pydoneNtB5_6PyDone20___pymethod___str____
FNDA:0,_RNvMsc_NtNtCs2OSVRbilGt5_8ryo3_dev2sp6pydoneNtB5_6PyDone21___pymethod___repr____
FNDA:0,_RNvMsc_NtNtCs2OSVRbilGt5_8ryo3_dev2sp6pydoneNtB5_6PyDone21___pymethod_get_args__
FNDA:0,_RNvMsc_NtNtCs2OSVRbilGt5_8ryo3_dev2sp6pydoneNtB5_6PyDone23___pymethod_get_stderr__
FNDA:0,_RNvMsc_NtNtCs2OSVRbilGt5_8ryo3_dev2sp6pydoneNtB5_6PyDone23___pymethod_get_stdout__
FNDA:0,_RNvMsc_NtNtCs2OSVRbilGt5_8ryo3_dev2sp6pydoneNtB5_6PyDone27___pymethod_get_returncode__
FNDA:1,_RNvXNtNtCs2OSVRbilGt5_8ryo3_dev2sp6pydoneNtB2_6PyDoneINtNtCs66KPHxksi63_4core7convert4FromNtNtB4_4done4DoneE4from
FNF:9
FNH:4
DA:12,0
DA:15,0
DA:16,0
DA:17,0
DA:18,0
DA:20,1
DA:21,1
DA:22,1
DA:23,1
DA:24,1
DA:25,1
DA:26,1
DA:29,0
DA:30,0
DA:31,0
DA:34,0
DA:35,0
DA:36,0
DA:39,1
DA:40,1
DA:41,1
DA:44,0
DA:45,0
DA:46,0
DA:50,1
DA:51,1
DA:52,1
BRF:0
BRH:0
LF:27
LH:13
end_of_record
SF:/home/jesse/ry/crates/_ryo3-dev/src/sp/run.rs
FN:42,_RINvNtNtCs2OSVRbilGt5_8ryo3_dev2sp3run11communicateNtNtCsiKSG5X70Gj7_3std7process11ChildStderrEB6_
FN:42,_RINvNtNtCs2OSVRbilGt5_8ryo3_dev2sp3run11communicateNtNtCsiKSG5X70Gj7_3std7process11ChildStdoutEB6_
FN:17,_RINvNtNtCs2OSVRbilGt5_8ryo3_dev2sp3run15communicate_teeNtNtNtCsiKSG5X70Gj7_3std2io5stdio6StderrNtNtBX_7process11ChildStderrEB6_
FN:17,_RINvNtNtCs2OSVRbilGt5_8ryo3_dev2sp3run15communicate_teeNtNtNtCsiKSG5X70Gj7_3std2io5stdio6StdoutNtNtBX_7process11ChildStdoutEB6_
FN:109,_RNCNvNtNtCs2OSVRbilGt5_8ryo3_dev2sp3run3run0B7_
FN:116,_RNCNvNtNtCs2OSVRbilGt5_8ryo3_dev2sp3run3runs0_0B7_
FN:118,_RNCNvNtNtCs2OSVRbilGt5_8ryo3_dev2sp3run3runs1_0B7_
FN:111,_RNCNvNtNtCs2OSVRbilGt5_8ryo3_dev2sp3run3runs_0B7_
FN:70,_RNvNtNtCs2OSVRbilGt5_8ryo3_dev2sp3run3run
FNDA:1,_RINvNtNtCs2OSVRbilGt5_8ryo3_dev2sp3run11communicateNtNtCsiKSG5X70Gj7_3std7process11ChildStderrEB6_
FNDA:1,_RINvNtNtCs2OSVRbilGt5_8ryo3_dev2sp3run11communicateNtNtCsiKSG5X70Gj7_3std7process11ChildStdoutEB6_
FNDA:0,_RINvNtNtCs2OSVRbilGt5_8ryo3_dev2sp3run15communicate_teeNtNtNtCsiKSG5X70Gj7_3std2io5stdio6StderrNtNtBX_7process11ChildStderrEB6_
FNDA:0,_RINvNtNtCs2OSVRbilGt5_8ryo3_dev2sp3run15communicate_teeNtNtNtCsiKSG5X70Gj7_3std2io5stdio6StdoutNtNtBX_7process11ChildStdoutEB6_
FNDA:0,_RNCNvNtNtCs2OSVRbilGt5_8ryo3_dev2sp3run3run0B7_
FNDA:0,_RNCNvNtNtCs2OSVRbilGt5_8ryo3_dev2sp3run3runs0_0B7_
FNDA:1,_RNCNvNtNtCs2OSVRbilGt5_8ryo3_dev2sp3run3runs1_0B7_
FNDA:1,_RNCNvNtNtCs2OSVRbilGt5_8ryo3_dev2sp3run3runs_0B7_
FNDA:1,_RNvNtNtCs2OSVRbilGt5_8ryo3_dev2sp3run3run
FNF:7
FNH:4
DA:17,0
DA:18,0
DA:19,0
DA:20,0
DA:21,0
DA:22,0
DA:23,0
DA:24,0
DA:27,0
DA:28,0
DA:29,0
DA:30,0
DA:32,0
DA:33,0
DA:34,0
DA:35,0
DA:36,0
DA:38,0
DA:39,0
DA:42,2
DA:43,2
DA:44,2
DA:45,2
DA:46,2
DA:47,2
DA:48,2
DA:51,3
DA:52,3
DA:53,2
DA:54,1
DA:57,1
DA:59,1
DA:60,1
DA:61,1
DA:62,1
DA:65,2
DA:66,2
DA:70,1
DA:71,1
DA:72,1
DA:73,1
DA:74,1
DA:75,1
DA:76,1
DA:78,1
DA:79,0
DA:80,1
DA:81,1
DA:82,1
DA:83,0
DA:84,1
DA:85,1
DA:87,1
DA:88,0
DA:89,0
DA:90,0
DA:92,1
DA:93,1
DA:94,1
DA:95,1
DA:96,1
DA:97,1
DA:99,1
DA:100,1
DA:103,1
DA:106,1
DA:107,1
DA:108,1
DA:109,0
DA:111,1
DA:115,1
DA:116,0
DA:118,1
DA:121,1
DA:122,1
DA:124,1
DA:125,1
DA:127,1
DA:128,1
DA:129,1
DA:130,1
DA:131,1
DA:132,1
DA:134,1
DA:135,1
DA:136,1
BRF:0
BRH:0
LF:90
LH:62
end_of_record
SF:/home/jesse/ry/crates/_ryo3-quick-maths/src/lib.rs
FN:24,_RNvCsbxZqSHH0YDj_16ryo3_quick_maths11quick_maths
FN:31,_RNvCsbxZqSHH0YDj_16ryo3_quick_maths9pymod_add
FNDA:0,_RNvCsbxZqSHH0YDj_16ryo3_quick_maths11quick_maths
FNDA:8,_RNvCsbxZqSHH0YDj_16ryo3_quick_maths9pymod_add
FNF:2
FNH:1
DA:24,0
DA:26,0
DA:27,0
DA:28,0
DA:29,0
DA:31,8
DA:32,8
DA:33,8
DA:34,8
BRF:0
BRH:0
LF:9
LH:4
end_of_record
SF:/home/jesse/ry/crates/ryo3-brotli/src/lib.rs
FN:68,_RNvCs8rQFXo1U66s_11ryo3_brotli13brotli_decode
FN:41,_RNvCs8rQFXo1U66s_11ryo3_brotli13brotli_encode
FN:55,_RNvCs8rQFXo1U66s_11ryo3_brotli6brotli
FN:8,_RNvCs8rQFXo1U66s_11ryo3_brotli6encode
FN:77,_RNvCs8rQFXo1U66s_11ryo3_brotli9pymod_add
FN:73,_RNCNvCs8rQFXo1U66s_11ryo3_brotli13brotli_decode0B3_
FNDA:3,_RNvCs8rQFXo1U66s_11ryo3_brotli13brotli_decode
FNDA:3,_RNvCs8rQFXo1U66s_11ryo3_brotli13brotli_encode
FNDA:0,_RNvCs8rQFXo1U66s_11ryo3_brotli6brotli
FNDA:3,_RNvCs8rQFXo1U66s_11ryo3_brotli6encode
FNDA:8,_RNvCs8rQFXo1U66s_11ryo3_brotli9pymod_add
FNDA:0,_RNCNvCs8rQFXo1U66s_11ryo3_brotli13brotli_decode0B3_
FNF:6
FNH:4
DA:8,3
DA:9,3
DA:10,0
DA:11,0
DA:12,0
DA:13,0
DA:14,0
DA:15,0
DA:16,0
DA:18,3
DA:20,3
DA:21,1
DA:22,1
DA:23,1
DA:24,1
DA:25,1
DA:26,1
DA:27,1
DA:28,1
DA:29,1
DA:31,2
DA:32,2
DA:33,2
DA:35,3
DA:36,3
DA:41,3
DA:42,3
DA:43,3
DA:44,3
DA:45,3
DA:46,3
DA:47,3
DA:48,3
DA:49,3
DA:50,3
DA:55,0
DA:56,0
DA:57,0
DA:58,0
DA:59,0
DA:60,0
DA:61,0
DA:62,0
DA:63,0
DA:64,0
DA:68,3
DA:69,3
DA:70,3
DA:71,3
DA:72,3
DA:73,3
DA:74,3
DA:75,3
DA:77,8
DA:78,8
DA:79,8
DA:80,8
DA:81,8
DA:82,8
BRF:0
BRH:0
LF:60
LH:42
end_of_record
SF:/home/jesse/ry/crates/ryo3-bytes/src/bytes_like.rs
FN:11,_RNvNtCs6ag8SEitiri_10ryo3_bytes10bytes_like17extract_bytes_ref
FN:25,_RNvNtCs6ag8SEitiri_10ryo3_bytes10bytes_like21extract_bytes_ref_str
FNDA:54,_RNvNtCs6ag8SEitiri_10ryo3_bytes10bytes_like17extract_bytes_ref
FNDA:2,_RNvNtCs6ag8SEitiri_10ryo3_bytes10bytes_like21extract_bytes_ref_str
FNF:2
FNH:2
DA:11,54
DA:12,54
DA:13,28
DA:14,26
DA:15,26
DA:16,26
DA:18,0
DA:19,0
DA:20,0
DA:22,54
DA:25,2
DA:26,2
DA:27,1
DA:28,1
DA:29,0
DA:30,0
DA:31,1
DA:32,1
DA:34,0
DA:35,0
DA:36,0
DA:38,2
BRF:0
BRH:0
LF:22
LH:14
end_of_record
SF:/home/jesse/ry/crates/ryo3-bytes/src/lib.rs
FN:26,_RNvCs6ag8SEitiri_10ryo3_bytes9pymod_add
FNDA:8,_RNvCs6ag8SEitiri_10ryo3_bytes9pymod_add
FNF:1
FNH:1
DA:26,8
DA:27,8
DA:30,8
DA:31,8
DA:33,8
DA:34,8
BRF:0
BRH:0
LF:6
LH:6
end_of_record
SF:/home/jesse/ry/crates/ryo3-bytes/src/python_bytes_methods.rs
FN:424,_RNCNvNtCs6ag8SEitiri_10ryo3_bytes20python_bytes_methods10hex_encode0B5_
FN:270,_RNCNvYNtNtCs6ag8SEitiri_10ryo3_bytes10ryo3_bytes7PyBytesNtNtB8_20python_bytes_methods18PythonBytesMethods10py_fromhex0B8_
FN:279,_RNCNvYNtNtCs6ag8SEitiri_10ryo3_bytes10ryo3_bytes7PyBytesNtNtB8_20python_bytes_methods18PythonBytesMethods10py_fromhexs0_0B8_
FN:281,_RNCNvYNtNtCs6ag8SEitiri_10ryo3_bytes10ryo3_bytes7PyBytesNtNtB8_20python_bytes_methods18PythonBytesMethods10py_fromhexs1_0B8_
FN:274,_RNCNvYNtNtCs6ag8SEitiri_10ryo3_bytes10ryo3_bytes7PyBytesNtNtB8_20python_bytes_methods18PythonBytesMethods10py_fromhexs_0B8_
FN:62,_RNCNvYNtNtCs6ag8SEitiri_10ryo3_bytes10ryo3_bytes7PyBytesNtNtB8_20python_bytes_methods18PythonBytesMethods8py_strip0B8_
FN:71,_RNCNvYNtNtCs6ag8SEitiri_10ryo3_bytes10ryo3_bytes7PyBytesNtNtB8_20python_bytes_methods18PythonBytesMethods8py_strips0_0B8_
FN:76,_RNCNvYNtNtCs6ag8SEitiri_10ryo3_bytes10ryo3_bytes7PyBytesNtNtB8_20python_bytes_methods18PythonBytesMethods8py_strips1_0B8_
FN:77,_RNCNvYNtNtCs6ag8SEitiri_10ryo3_bytes10ryo3_bytes7PyBytesNtNtB8_20python_bytes_methods18PythonBytesMethods8py_strips2_0B8_
FN:82,_RNCNvYNtNtCs6ag8SEitiri_10ryo3_bytes10ryo3_bytes7PyBytesNtNtB8_20python_bytes_methods18PythonBytesMethods8py_strips3_0B8_
FN:70,_RNCNvYNtNtCs6ag8SEitiri_10ryo3_bytes10ryo3_bytes7PyBytesNtNtB8_20python_bytes_methods18PythonBytesMethods8py_strips_0B8_
FN:103,_RNCNvYNtNtCs6ag8SEitiri_10ryo3_bytes10ryo3_bytes7PyBytesNtNtB8_20python_bytes_methods18PythonBytesMethods9py_lstrip0B8_
FN:110,_RNCNvYNtNtCs6ag8SEitiri_10ryo3_bytes10ryo3_bytes7PyBytesNtNtB8_20python_bytes_methods18PythonBytesMethods9py_lstrips0_0B8_
FN:109,_RNCNvYNtNtCs6ag8SEitiri_10ryo3_bytes10ryo3_bytes7PyBytesNtNtB8_20python_bytes_methods18PythonBytesMethods9py_lstrips_0B8_
FN:133,_RNCNvYNtNtCs6ag8SEitiri_10ryo3_bytes10ryo3_bytes7PyBytesNtNtB8_20python_bytes_methods18PythonBytesMethods9py_rstrip0B8_
FN:139,_RNCNvYNtNtCs6ag8SEitiri_10ryo3_bytes10ryo3_bytes7PyBytesNtNtB8_20python_bytes_methods18PythonBytesMethods9py_rstrips0_0B8_
FN:140,_RNCNvYNtNtCs6ag8SEitiri_10ryo3_bytes10ryo3_bytes7PyBytesNtNtB8_20python_bytes_methods18PythonBytesMethods9py_rstrips1_0B8_
FN:134,_RNCNvYNtNtCs6ag8SEitiri_10ryo3_bytes10ryo3_bytes7PyBytesNtNtB8_20python_bytes_methods18PythonBytesMethods9py_rstrips_0B8_
FN:268,_RNvYNtNtCs6ag8SEitiri_10ryo3_bytes10ryo3_bytes7PyBytesNtNtB6_20python_bytes_methods18PythonBytesMethods10py_fromhexB6_
FN:196,_RNvYNtNtCs6ag8SEitiri_10ryo3_bytes10ryo3_bytes7PyBytesNtNtB6_20python_bytes_methods18PythonBytesMethods10py_istitleB6_
FN:392,_RNvYNtNtCs6ag8SEitiri_10ryo3_bytes10ryo3_bytes7PyBytesNtNtB6_20python_bytes_methods18PythonBytesMethods11py_swapcaseB6_
FN:34,_RNvYNtNtCs6ag8SEitiri_10ryo3_bytes10ryo3_bytes7PyBytesNtNtB6_20python_bytes_methods18PythonBytesMethods13py_capitalizeB6_
FN:363,_RNvYNtNtCs6ag8SEitiri_10ryo3_bytes10ryo3_bytes7PyBytesNtNtB6_20python_bytes_methods18PythonBytesMethods13py_expandtabsB6_
FN:287,_RNvYNtNtCs6ag8SEitiri_10ryo3_bytes10ryo3_bytes7PyBytesNtNtB6_20python_bytes_methods18PythonBytesMethods6py_hexB6_
FN:10,_RNvYNtNtCs6ag8SEitiri_10ryo3_bytes10ryo3_bytes7PyBytesNtNtB6_20python_bytes_methods18PythonBytesMethods7py_hashB6_
FN:49,_RNvYNtNtCs6ag8SEitiri_10ryo3_bytes10ryo3_bytes7PyBytesNtNtB6_20python_bytes_methods18PythonBytesMethods8py_stripB6_
FN:227,_RNvYNtNtCs6ag8SEitiri_10ryo3_bytes10ryo3_bytes7PyBytesNtNtB6_20python_bytes_methods18PythonBytesMethods8py_titleB6_
FN:24,_RNvYNtNtCs6ag8SEitiri_10ryo3_bytes10ryo3_bytes7PyBytesNtNtB6_20python_bytes_methods18PythonBytesMethods9py_decodeB6_
FN:88,_RNvYNtNtCs6ag8SEitiri_10ryo3_bytes10ryo3_bytes7PyBytesNtNtB6_20python_bytes_methods18PythonBytesMethods9py_lstripB6_
FN:118,_RNvYNtNtCs6ag8SEitiri_10ryo3_bytes10ryo3_bytes7PyBytesNtNtB6_20python_bytes_methods18PythonBytesMethods9py_rstripB6_
FN:423,_RNvNtCs6ag8SEitiri_10ryo3_bytes20python_bytes_methods10hex_encodeB3_
FN:413,_RNvNtCs6ag8SEitiri_10ryo3_bytes20python_bytes_methods7hex_valB3_
FNDA:769,_RNCNvNtCs6ag8SEitiri_10ryo3_bytes20python_bytes_methods10hex_encode0B5_
FNDA:1538,_RNCNvYNtNtCs6ag8SEitiri_10ryo3_bytes10ryo3_bytes7PyBytesNtNtB8_20python_bytes_methods18PythonBytesMethods10py_fromhex0B8_
FNDA:0,_RNCNvYNtNtCs6ag8SEitiri_10ryo3_bytes10ryo3_bytes7PyBytesNtNtB8_20python_bytes_methods18PythonBytesMethods10py_fromhexs0_0B8_
FNDA:0,_RNCNvYNtNtCs6ag8SEitiri_10ryo3_bytes10ryo3_bytes7PyBytesNtNtB8_20python_bytes_methods18PythonBytesMethods10py_fromhexs1_0B8_
FNDA:0,_RNCNvYNtNtCs6ag8SEitiri_10ryo3_bytes10ryo3_bytes7PyBytesNtNtB8_20python_bytes_methods18PythonBytesMethods10py_fromhexs_0B8_
FNDA:81,_RNCNvYNtNtCs6ag8SEitiri_10ryo3_bytes10ryo3_bytes7PyBytesNtNtB8_20python_bytes_methods18PythonBytesMethods8py_strip0B8_
FNDA:15,_RNCNvYNtNtCs6ag8SEitiri_10ryo3_bytes10ryo3_bytes7PyBytesNtNtB8_20python_bytes_methods18PythonBytesMethods8py_strips0_0B8_
FNDA:1232,_RNCNvYNtNtCs6ag8SEitiri_10ryo3_bytes10ryo3_bytes7PyBytesNtNtB8_20python_bytes_methods18PythonBytesMethods8py_strips1_0B8_
FNDA:617,_RNCNvYNtNtCs6ag8SEitiri_10ryo3_bytes10ryo3_bytes7PyBytesNtNtB8_20python_bytes_methods18PythonBytesMethods8py_strips2_0B8_
FNDA:615,_RNCNvYNtNtCs6ag8SEitiri_10ryo3_bytes10ryo3_bytes7PyBytesNtNtB8_20python_bytes_methods18PythonBytesMethods8py_strips3_0B8_
FNDA:23,_RNCNvYNtNtCs6ag8SEitiri_10ryo3_bytes10ryo3_bytes7PyBytesNtNtB8_20python_bytes_methods18PythonBytesMethods8py_strips_0B8_
FNDA:0,_RNCNvYNtNtCs6ag8SEitiri_10ryo3_bytes10ryo3_bytes7PyBytesNtNtB8_20python_bytes_methods18PythonBytesMethods9py_lstrip0B8_
FNDA:0,_RNCNvYNtNtCs6ag8SEitiri_10ryo3_bytes10ryo3_bytes7PyBytesNtNtB8_20python_bytes_methods18PythonBytesMethods9py_lstrips0_0B8_
FNDA:0,_RNCNvYNtNtCs6ag8SEitiri_10ryo3_bytes10ryo3_bytes7PyBytesNtNtB8_20python_bytes_methods18PythonBytesMethods9py_lstrips_0B8_
FNDA:0,_RNCNvYNtNtCs6ag8SEitiri_10ryo3_bytes10ryo3_bytes7PyBytesNtNtB8_20python_bytes_methods18PythonBytesMethods9py_rstrip0B8_
FNDA:0,_RNCNvYNtNtCs6ag8SEitiri_10ryo3_bytes10ryo3_bytes7PyBytesNtNtB8_20python_bytes_methods18PythonBytesMethods9py_rstrips0_0B8_
FNDA:0,_RNCNvYNtNtCs6ag8SEitiri_10ryo3_bytes10ryo3_bytes7PyBytesNtNtB8_20python_bytes_methods18PythonBytesMethods9py_rstrips1_0B8_
FNDA:0,_RNCNvYNtNtCs6ag8SEitiri_10ryo3_bytes10ryo3_bytes7PyBytesNtNtB8_20python_bytes_methods18PythonBytesMethods9py_rstrips_0B8_
FNDA:356,_RNvYNtNtCs6ag8SEitiri_10ryo3_bytes10ryo3_bytes7PyBytesNtNtB6_20python_bytes_methods18PythonBytesMethods10py_fromhexB6_
FNDA:100,_RNvYNtNtCs6ag8SEitiri_10ryo3_bytes10ryo3_bytes7PyBytesNtNtB6_20python_bytes_methods18PythonBytesMethods10py_istitleB6_
FNDA:100,_RNvYNtNtCs6ag8SEitiri_10ryo3_bytes10ryo3_bytes7PyBytesNtNtB6_20python_bytes_methods18PythonBytesMethods11py_swapcaseB6_
FNDA:100,_RNvYNtNtCs6ag8SEitiri_10ryo3_bytes10ryo3_bytes7PyBytesNtNtB6_20python_bytes_methods18PythonBytesMethods13py_capitalizeB6_
FNDA:109,_RNvYNtNtCs6ag8SEitiri_10ryo3_bytes10ryo3_bytes7PyBytesNtNtB6_20python_bytes_methods18PythonBytesMethods13py_expandtabsB6_
FNDA:356,_RNvYNtNtCs6ag8SEitiri_10ryo3_bytes10ryo3_bytes7PyBytesNtNtB6_20python_bytes_methods18PythonBytesMethods6py_hexB6_
FNDA:0,_RNvYNtNtCs6ag8SEitiri_10ryo3_bytes10ryo3_bytes7PyBytesNtNtB6_20python_bytes_methods18PythonBytesMethods7py_hashB6_
FNDA:642,_RNvYNtNtCs6ag8SEitiri_10ryo3_bytes10ryo3_bytes7PyBytesNtNtB6_20python_bytes_methods18PythonBytesMethods8py_stripB6_
FNDA:100,_RNvYNtNtCs6ag8SEitiri_10ryo3_bytes10ryo3_bytes7PyBytesNtNtB6_20python_bytes_methods18PythonBytesMethods8py_titleB6_
FNDA:616,_RNvYNtNtCs6ag8SEitiri_10ryo3_bytes10ryo3_bytes7PyBytesNtNtB6_20python_bytes_methods18PythonBytesMethods9py_decodeB6_
FNDA:0,_RNvYNtNtCs6ag8SEitiri_10ryo3_bytes10ryo3_bytes7PyBytesNtNtB6_20python_bytes_methods18PythonBytesMethods9py_lstripB6_
FNDA:0,_RNvYNtNtCs6ag8SEitiri_10ryo3_bytes10ryo3_bytes7PyBytesNtNtB6_20python_bytes_methods18PythonBytesMethods9py_rstripB6_
FNDA:356,_RNvNtCs6ag8SEitiri_10ryo3_bytes20python_bytes_methods10hex_encodeB3_
FNDA:1538,_RNvNtCs6ag8SEitiri_10ryo3_bytes20python_bytes_methods7hex_valB3_
FNF:32
FNH:19
DA:10,0
DA:18,0
DA:19,0
DA:20,0
DA:21,0
DA:22,0
DA:24,616
DA:25,616
DA:26,616
DA:27,616
DA:28,616
DA:29,616
DA:30,616
DA:31,616
DA:32,616
DA:34,100
DA:35,100
DA:36,100
DA:37,1
DA:38,99
DA:39,99
DA:40,99
DA:41,99
DA:42,99
DA:43,457
DA:44,457
DA:45,457
DA:46,99
DA:47,100
DA:49,642
DA:50,642
DA:51,642
DA:52,1
DA:53,641
DA:54,641
DA:55,30
DA:56,0
DA:57,30
DA:58,30
DA:59,95
DA:60,65
DA:61,65
DA:62,81
DA:63,15
DA:65,15
DA:66,0
DA:67,15
DA:68,15
DA:69,15
DA:70,23
DA:71,15
DA:72,15
DA:75,611
DA:76,1232
DA:77,617
DA:78,611
DA:79,6
DA:82,615
DA:84,605
DA:86,642
DA:88,0
DA:89,0
DA:90,0
DA:91,0
DA:92,0
DA:93,0
DA:94,0
DA:95,0
DA:96,0
DA:97,0
DA:98,0
DA:99,0
DA:100,0
DA:101,0
DA:102,0
DA:103,0
DA:104,0
DA:105,0
DA:108,0
DA:109,0
DA:110,0
DA:111,0
DA:112,0
DA:114,0
DA:116,0
DA:118,0
DA:119,0
DA:120,0
DA:121,0
DA:122,0
DA:123,0
DA:124,0
DA:125,0
DA:126,0
DA:127,0
DA:128,0
DA:129,0
DA:130,0
DA:131,0
DA:132,0
DA:133,0
DA:134,0
DA:135,0
DA:138,0
DA:139,0
DA:140,0
DA:141,0
DA:143,0
DA:196,100
DA:197,100
DA:198,100
DA:199,1
DA:200,99
DA:201,99
DA:202,19
DA:203,80
DA:204,80
DA:205,80
DA:206,442
DA:207,394
DA:208,45
DA:209,4
DA:210,41
DA:211,41
DA:212,41
DA:213,349
DA:214,36
DA:215,28
DA:216,8
DA:217,8
DA:218,8
DA:219,313
DA:220,313
DA:221,313
DA:223,48
DA:224,100
DA:227,100
DA:228,100
DA:229,100
DA:230,1
DA:231,99
DA:232,99
DA:233,99
DA:235,636
DA:236,537
DA:237,66
DA:238,14
DA:239,52
DA:240,52
DA:241,52
DA:242,66
DA:243,471
DA:244,56
DA:245,11
DA:246,45
DA:247,45
DA:248,45
DA:250,56
DA:251,415
DA:252,415
DA:253,415
DA:254,415
DA:256,99
DA:257,100
DA:268,356
DA:270,1538
DA:271,356
DA:272,1125
DA:274,769
DA:275,0
DA:276,0
DA:278,769
DA:279,769
DA:280,769
DA:281,769
DA:282,769
DA:284,356
DA:285,356
DA:287,356
DA:288,356
DA:289,0
DA:290,0
DA:291,0
DA:293,356
DA:294,356
DA:296,356
DA:363,109
DA:364,109
DA:365,109
DA:366,1
DA:367,108
DA:369,108
DA:370,108
DA:372,1272
DA:373,1164
DA:374,6
DA:375,6
DA:376,6
DA:377,6
DA:378,6
DA:379,8
DA:380,8
DA:381,8
DA:382,8
DA:383,1150
DA:384,1150
DA:385,1150
DA:386,1150
DA:389,108
DA:390,109
DA:392,100
DA:393,100
DA:394,100
DA:395,1
DA:396,99
DA:398,99
DA:399,724
DA:400,625
DA:401,54
DA:402,571
DA:403,74
DA:404,497
DA:405,497
DA:406,497
DA:408,99
DA:409,100
DA:413,1538
DA:414,1538
DA:415,1538
DA:416,585
DA:417,0
DA:418,0
DA:420,1538
DA:423,356
DA:424,769
DA:425,769
DA:426,769
DA:427,769
DA:428,356
BRF:0
BRH:0
LF:255
LH:183
end_of_record
SF:/home/jesse/ry/crates/ryo3-bytes/src/ryo3_bytes.rs
FN:574,_RNvXs7_NtCs6ag8SEitiri_10ryo3_bytes10ryo3_bytesNtB5_14PyBytesWrapperNtNtNtCs66KPHxksi63_4core3ops4drop4Drop4drop
FN:62,_RNvMs1_NtCs6ag8SEitiri_10ryo3_bytes10ryo3_bytesNtB5_7PyBytes10into_inner
FN:57,_RNvMs1_NtCs6ag8SEitiri_10ryo3_bytes10ryo3_bytesNtB5_7PyBytes3new
FN:80,_RNvMs1_NtCs6ag8SEitiri_10ryo3_bytes10ryo3_bytesNtB5_7PyBytes5slice
FN:67,_RNvMs1_NtCs6ag8SEitiri_10ryo3_bytes10ryo3_bytesNtB5_7PyBytes8as_slice
FN:158,_RNvMsB_NtCs6ag8SEitiri_10ryo3_bytes10ryo3_bytesNtB5_7PyBytes18___pymethod_lower__
FN:158,_RNvMsB_NtCs6ag8SEitiri_10ryo3_bytes10ryo3_bytesNtB5_7PyBytes18___pymethod_title__
FN:158,_RNvMsB_NtCs6ag8SEitiri_10ryo3_bytes10ryo3_bytesNtB5_7PyBytes18___pymethod_upper__
FN:158,_RNvMsB_NtCs6ag8SEitiri_10ryo3_bytes10ryo3_bytesNtB5_7PyBytes20___pymethod___len____
FN:158,_RNvMsB_NtCs6ag8SEitiri_10ryo3_bytes10ryo3_bytesNtB5_7PyBytes20___pymethod_isalnum__
FN:158,_RNvMsB_NtCs6ag8SEitiri_10ryo3_bytes10ryo3_bytesNtB5_7PyBytes20___pymethod_isalpha__
FN:158,_RNvMsB_NtCs6ag8SEitiri_10ryo3_bytes10ryo3_bytesNtB5_7PyBytes20___pymethod_isascii__
FN:158,_RNvMsB_NtCs6ag8SEitiri_10ryo3_bytes10ryo3_bytesNtB5_7PyBytes20___pymethod_isdigit__
FN:158,_RNvMsB_NtCs6ag8SEitiri_10ryo3_bytes10ryo3_bytesNtB5_7PyBytes20___pymethod_islower__
FN:158,_RNvMsB_NtCs6ag8SEitiri_10ryo3_bytes10ryo3_bytesNtB5_7PyBytes20___pymethod_isspace__
FN:158,_RNvMsB_NtCs6ag8SEitiri_10ryo3_bytes10ryo3_bytesNtB5_7PyBytes20___pymethod_istitle__
FN:158,_RNvMsB_NtCs6ag8SEitiri_10ryo3_bytes10ryo3_bytesNtB5_7PyBytes20___pymethod_isupper__
FN:158,_RNvMsB_NtCs6ag8SEitiri_10ryo3_bytes10ryo3_bytesNtB5_7PyBytes21___pymethod___hash____
FN:158,_RNvMsB_NtCs6ag8SEitiri_10ryo3_bytes10ryo3_bytesNtB5_7PyBytes21___pymethod___repr____
FN:158,_RNvMsB_NtCs6ag8SEitiri_10ryo3_bytes10ryo3_bytesNtB5_7PyBytes21___pymethod_swapcase__
FN:158,_RNvMsB_NtCs6ag8SEitiri_10ryo3_bytes10ryo3_bytesNtB5_7PyBytes21___pymethod_to_bytes__
FN:158,_RNvMsB_NtCs6ag8SEitiri_10ryo3_bytes10ryo3_bytesNtB5_7PyBytes22___pymethod___bytes____
FN:158,_RNvMsB_NtCs6ag8SEitiri_10ryo3_bytes10ryo3_bytesNtB5_7PyBytes23___pymethod_capitalize__
FN:158,_RNvMsB_NtCs6ag8SEitiri_10ryo3_bytes10ryo3_bytesNtB5_7PyBytes26___pymethod___getbuffer____
FN:158,_RNvMsB_NtCs6ag8SEitiri_10ryo3_bytes10ryo3_bytesNtB5_7PyBytes30___pymethod___getnewargs_ex____
FN:158,_RNvMsB_NtCs6ag8SEitiri_10ryo3_bytes10ryo3_bytesNtB5_7PyBytes30___pymethod___releasebuffer____
FN:515,_RNvMsr_NtCs6ag8SEitiri_10ryo3_bytes10ryo3_bytesNtB5_7PyBytes10capitalize
FN:524,_RNvMsr_NtCs6ag8SEitiri_10ryo3_bytes10ryo3_bytesNtB5_7PyBytes10expandtabs
FN:506,_RNvMsr_NtCs6ag8SEitiri_10ryo3_bytes10ryo3_bytesNtB5_7PyBytes10startswith
FN:202,_RNvMsr_NtCs6ag8SEitiri_10ryo3_bytes10ryo3_bytesNtB5_7PyBytes11___getitem__
FN:192,_RNvMsr_NtCs6ag8SEitiri_10ryo3_bytes10ryo3_bytesNtB5_7PyBytes12___contains__
FN:273,_RNvMsr_NtCs6ag8SEitiri_10ryo3_bytes10ryo3_bytesNtB5_7PyBytes12removeprefix
FN:284,_RNvMsr_NtCs6ag8SEitiri_10ryo3_bytes10ryo3_bytesNtB5_7PyBytes12removesuffix
FN:240,_RNvMsr_NtCs6ag8SEitiri_10ryo3_bytes10ryo3_bytesNtB5_7PyBytes13___getbuffer__
FN:168,_RNvMsr_NtCs6ag8SEitiri_10ryo3_bytes10ryo3_bytesNtB5_7PyBytes17___getnewargs_ex__
FN:268,_RNvMsr_NtCs6ag8SEitiri_10ryo3_bytes10ryo3_bytesNtB5_7PyBytes17___releasebuffer__
FN:428,_RNvMsr_NtCs6ag8SEitiri_10ryo3_bytes10ryo3_bytesNtB5_7PyBytes3hex
FN:358,_RNvMsr_NtCs6ag8SEitiri_10ryo3_bytes10ryo3_bytesNtB5_7PyBytes5lower
FN:529,_RNvMsr_NtCs6ag8SEitiri_10ryo3_bytes10ryo3_bytesNtB5_7PyBytes5strip
FN:501,_RNvMsr_NtCs6ag8SEitiri_10ryo3_bytes10ryo3_bytesNtB5_7PyBytes5title
FN:364,_RNvMsr_NtCs6ag8SEitiri_10ryo3_bytes10ryo3_bytesNtB5_7PyBytes5upper
FN:198,_RNvMsr_NtCs6ag8SEitiri_10ryo3_bytes10ryo3_bytesNtB5_7PyBytes6___eq__
FN:400,_RNvMsr_NtCs6ag8SEitiri_10ryo3_bytes10ryo3_bytesNtB5_7PyBytes6decode
FN:538,_RNvMsr_NtCs6ag8SEitiri_10ryo3_bytes10ryo3_bytesNtB5_7PyBytes6lstrip
FN:164,_RNvMsr_NtCs6ag8SEitiri_10ryo3_bytes10ryo3_bytesNtB5_7PyBytes6py_new
FN:547,_RNvMsr_NtCs6ag8SEitiri_10ryo3_bytes10ryo3_bytesNtB5_7PyBytes6rstrip
FN:184,_RNvMsr_NtCs6ag8SEitiri_10ryo3_bytes10ryo3_bytesNtB5_7PyBytes7___add__
FN:176,_RNvMsr_NtCs6ag8SEitiri_10ryo3_bytes10ryo3_bytesNtB5_7PyBytes7___len__
FN:227,_RNvMsr_NtCs6ag8SEitiri_10ryo3_bytes10ryo3_bytesNtB5_7PyBytes7___mul__
FN:442,_RNvMsr_NtCs6ag8SEitiri_10ryo3_bytes10ryo3_bytesNtB5_7PyBytes7fromhex
FN:296,_RNvMsr_NtCs6ag8SEitiri_10ryo3_bytes10ryo3_bytesNtB5_7PyBytes7isalnum
FN:303,_RNvMsr_NtCs6ag8SEitiri_10ryo3_bytes10ryo3_bytesNtB5_7PyBytes7isalpha
FN:309,_RNvMsr_NtCs6ag8SEitiri_10ryo3_bytes10ryo3_bytesNtB5_7PyBytes7isascii
FN:316,_RNvMsr_NtCs6ag8SEitiri_10ryo3_bytes10ryo3_bytesNtB5_7PyBytes7isdigit
FN:322,_RNvMsr_NtCs6ag8SEitiri_10ryo3_bytes10ryo3_bytesNtB5_7PyBytes7islower
FN:336,_RNvMsr_NtCs6ag8SEitiri_10ryo3_bytes10ryo3_bytesNtB5_7PyBytes7isspace
FN:497,_RNvMsr_NtCs6ag8SEitiri_10ryo3_bytes10ryo3_bytesNtB5_7PyBytes7istitle
FN:345,_RNvMsr_NtCs6ag8SEitiri_10ryo3_bytes10ryo3_bytesNtB5_7PyBytes7isupper
FN:380,_RNvMsr_NtCs6ag8SEitiri_10ryo3_bytes10ryo3_bytesNtB5_7PyBytes8___hash__
FN:180,_RNvMsr_NtCs6ag8SEitiri_10ryo3_bytes10ryo3_bytesNtB5_7PyBytes8___repr__
FN:233,_RNvMsr_NtCs6ag8SEitiri_10ryo3_bytes10ryo3_bytesNtB5_7PyBytes8___rmul__
FN:511,_RNvMsr_NtCs6ag8SEitiri_10ryo3_bytes10ryo3_bytesNtB5_7PyBytes8endswith
FN:519,_RNvMsr_NtCs6ag8SEitiri_10ryo3_bytes10ryo3_bytesNtB5_7PyBytes8swapcase
FN:374,_RNvMsr_NtCs6ag8SEitiri_10ryo3_bytes10ryo3_bytesNtB5_7PyBytes8to_bytes
FN:369,_RNvMsr_NtCs6ag8SEitiri_10ryo3_bytes10ryo3_bytesNtB5_7PyBytes9___bytes__
FN:607,_RNvNtCs6ag8SEitiri_10ryo3_bytes10ryo3_bytes15validate_buffer
FN:50,_RNvXs0_NtCs6ag8SEitiri_10ryo3_bytes10ryo3_bytesNtB5_7PyBytesINtNtCs66KPHxksi63_4core7convert5AsRefShE6as_ref
FN:141,_RNvXs3_NtCs6ag8SEitiri_10ryo3_bytes10ryo3_bytesNtB5_7PyBytesINtNtCs66KPHxksi63_4core7convert4FromINtNtCs8Ty2CzGA6U3_5alloc3vec3VechEE4from
FN:147,_RNvXs4_NtCs6ag8SEitiri_10ryo3_bytes10ryo3_bytesNtB5_7PyBytesINtNtCs66KPHxksi63_4core7convert4FromNtNtCsdeDPnamZes_5bytes5bytes5BytesE4from
FN:153,_RNvXs5_NtCs6ag8SEitiri_10ryo3_bytes10ryo3_bytesNtB5_7PyBytesINtNtCs66KPHxksi63_4core7convert4FromNtNtCsdeDPnamZes_5bytes9bytes_mut8BytesMutE4from
FN:558,_RNvXs6_NtCs6ag8SEitiri_10ryo3_bytes10ryo3_bytesNtB5_7PyBytesNtNtCsjhPV6BdWoWa_4pyo310conversion12FromPyObject13extract_bound
FN:592,_RNvXs8_NtCs6ag8SEitiri_10ryo3_bytes10ryo3_bytesNtB5_14PyBytesWrapperINtNtCs66KPHxksi63_4core7convert5AsRefShE6as_ref
FN:623,_RNvXs9_NtCs6ag8SEitiri_10ryo3_bytes10ryo3_bytesNtB5_14PyBytesWrapperNtNtCsjhPV6BdWoWa_4pyo310conversion12FromPyObject13extract_bound
FN:44,_RNvXs_NtCs6ag8SEitiri_10ryo3_bytes10ryo3_bytesNtB4_7PyBytesINtNtCs66KPHxksi63_4core7convert5AsRefNtNtCsdeDPnamZes_5bytes5bytes5BytesE6as_ref
FN:642,_RNvXsa_NtCs6ag8SEitiri_10ryo3_bytes10ryo3_bytesNtB5_7PyBytesNtNtCs66KPHxksi63_4core3fmt5Debug3fmt
FN:135,_RNvXs2_NtCs6ag8SEitiri_10ryo3_bytes10ryo3_bytesNtNtCsdeDPnamZes_5bytes5bytes5BytesINtNtCs66KPHxksi63_4core7convert4FromNtB5_7PyBytesE4from
FN:117,_RNCNvMs1_NtCs6ag8SEitiri_10ryo3_bytes10ryo3_bytesNtB7_7PyBytes5slice0B9_
FN:127,_RNCNvMs1_NtCs6ag8SEitiri_10ryo3_bytes10ryo3_bytesNtB7_7PyBytes5slices_0B9_
FN:163,_RNCNvMsB_NtCs6ag8SEitiri_10ryo3_bytes10ryo3_bytesNtB7_7PyBytes20___pymethod___new____0B9_
FN:217,_RNCNvMsr_NtCs6ag8SEitiri_10ryo3_bytes10ryo3_bytesNtB7_7PyBytes11___getitem__0B9_
FN:195,_RNCNvMsr_NtCs6ag8SEitiri_10ryo3_bytes10ryo3_bytesNtB7_7PyBytes12___contains__0B9_
FN:229,_RNCNvMsr_NtCs6ag8SEitiri_10ryo3_bytes10ryo3_bytesNtB7_7PyBytes7___mul__0B9_
FN:338,_RNCNvMsr_NtCs6ag8SEitiri_10ryo3_bytes10ryo3_bytesNtB7_7PyBytes7isspace0B9_
FN:612,_RNCNvNtCs6ag8SEitiri_10ryo3_bytes10ryo3_bytes15validate_buffer0B5_
FNDA:12193,_RNvXs7_NtCs6ag8SEitiri_10ryo3_bytes10ryo3_bytesNtB5_14PyBytesWrapperNtNtNtCs66KPHxksi63_4core3ops4drop4Drop4drop
FNDA:3,_RNvMs1_NtCs6ag8SEitiri_10ryo3_bytes10ryo3_bytesNtB5_7PyBytes10into_inner
FNDA:0,_RNvMs1_NtCs6ag8SEitiri_10ryo3_bytes10ryo3_bytesNtB5_7PyBytes3new
FNDA:539,_RNvMs1_NtCs6ag8SEitiri_10ryo3_bytes10ryo3_bytesNtB5_7PyBytes5slice
FNDA:385,_RNvMs1_NtCs6ag8SEitiri_10ryo3_bytes10ryo3_bytesNtB5_7PyBytes8as_slice
FNDA:0,_RNvMsB_NtCs6ag8SEitiri_10ryo3_bytes10ryo3_bytesNtB5_7PyBytes18___pymethod_lower__
FNDA:0,_RNvMsB_NtCs6ag8SEitiri_10ryo3_bytes10ryo3_bytesNtB5_7PyBytes18___pymethod_title__
FNDA:0,_RNvMsB_NtCs6ag8SEitiri_10ryo3_bytes10ryo3_bytesNtB5_7PyBytes18___pymethod_upper__
FNDA:0,_RNvMsB_NtCs6ag8SEitiri_10ryo3_bytes10ryo3_bytesNtB5_7PyBytes20___pymethod___len____
FNDA:0,_RNvMsB_NtCs6ag8SEitiri_10ryo3_bytes10ryo3_bytesNtB5_7PyBytes20___pymethod_isalnum__
FNDA:0,_RNvMsB_NtCs6ag8SEitiri_10ryo3_bytes10ryo3_bytesNtB5_7PyBytes20___pymethod_isalpha__
FNDA:0,_RNvMsB_NtCs6ag8SEitiri_10ryo3_bytes10ryo3_bytesNtB5_7PyBytes20___pymethod_isascii__
FNDA:0,_RNvMsB_NtCs6ag8SEitiri_10ryo3_bytes10ryo3_bytesNtB5_7PyBytes20___pymethod_isdigit__
FNDA:0,_RNvMsB_NtCs6ag8SEitiri_10ryo3_bytes10ryo3_bytesNtB5_7PyBytes20___pymethod_islower__
FNDA:0,_RNvMsB_NtCs6ag8SEitiri_10ryo3_bytes10ryo3_bytesNtB5_7PyBytes20___pymethod_isspace__
FNDA:0,_RNvMsB_NtCs6ag8SEitiri_10ryo3_bytes10ryo3_bytesNtB5_7PyBytes20___pymethod_istitle__
FNDA:0,_RNvMsB_NtCs6ag8SEitiri_10ryo3_bytes10ryo3_bytesNtB5_7PyBytes20___pymethod_isupper__
FNDA:0,_RNvMsB_NtCs6ag8SEitiri_10ryo3_bytes10ryo3_bytesNtB5_7PyBytes21___pymethod___hash____
FNDA:0,_RNvMsB_NtCs6ag8SEitiri_10ryo3_bytes10ryo3_bytesNtB5_7PyBytes21___pymethod___repr____
FNDA:0,_RNvMsB_NtCs6ag8SEitiri_10ryo3_bytes10ryo3_bytesNtB5_7PyBytes21___pymethod_swapcase__
FNDA:0,_RNvMsB_NtCs6ag8SEitiri_10ryo3_bytes10ryo3_bytesNtB5_7PyBytes21___pymethod_to_bytes__
FNDA:0,_RNvMsB_NtCs6ag8SEitiri_10ryo3_bytes10ryo3_bytesNtB5_7PyBytes22___pymethod___bytes____
FNDA:0,_RNvMsB_NtCs6ag8SEitiri_10ryo3_bytes10ryo3_bytesNtB5_7PyBytes23___pymethod_capitalize__
FNDA:0,_RNvMsB_NtCs6ag8SEitiri_10ryo3_bytes10ryo3_bytesNtB5_7PyBytes26___pymethod___getbuffer____
FNDA:0,_RNvMsB_NtCs6ag8SEitiri_10ryo3_bytes10ryo3_bytesNtB5_7PyBytes30___pymethod___getnewargs_ex____
FNDA:0,_RNvMsB_NtCs6ag8SEitiri_10ryo3_bytes10ryo3_bytesNtB5_7PyBytes30___pymethod___releasebuffer____
FNDA:100,_RNvMsr_NtCs6ag8SEitiri_10ryo3_bytes10ryo3_bytesNtB5_7PyBytes10capitalize
FNDA:109,_RNvMsr_NtCs6ag8SEitiri_10ryo3_bytes10ryo3_bytesNtB5_7PyBytes10expandtabs
FNDA:8,_RNvMsr_NtCs6ag8SEitiri_10ryo3_bytes10ryo3_bytesNtB5_7PyBytes10startswith
FNDA:539,_RNvMsr_NtCs6ag8SEitiri_10ryo3_bytes10ryo3_bytesNtB5_7PyBytes11___getitem__
FNDA:0,_RNvMsr_NtCs6ag8SEitiri_10ryo3_bytes10ryo3_bytesNtB5_7PyBytes12___contains__
FNDA:2,_RNvMsr_NtCs6ag8SEitiri_10ryo3_bytes10ryo3_bytesNtB5_7PyBytes12removeprefix
FNDA:2,_RNvMsr_NtCs6ag8SEitiri_10ryo3_bytes10ryo3_bytesNtB5_7PyBytes12removesuffix
FNDA:2469,_RNvMsr_NtCs6ag8SEitiri_10ryo3_bytes10ryo3_bytesNtB5_7PyBytes13___getbuffer__
FNDA:2,_RNvMsr_NtCs6ag8SEitiri_10ryo3_bytes10ryo3_bytesNtB5_7PyBytes17___getnewargs_ex__
FNDA:2469,_RNvMsr_NtCs6ag8SEitiri_10ryo3_bytes10ryo3_bytesNtB5_7PyBytes17___releasebuffer__
FNDA:356,_RNvMsr_NtCs6ag8SEitiri_10ryo3_bytes10ryo3_bytesNtB5_7PyBytes3hex
FNDA:0,_RNvMsr_NtCs6ag8SEitiri_10ryo3_bytes10ryo3_bytesNtB5_7PyBytes5lower
FNDA:642,_RNvMsr_NtCs6ag8SEitiri_10ryo3_bytes10ryo3_bytesNtB5_7PyBytes5strip
FNDA:100,_RNvMsr_NtCs6ag8SEitiri_10ryo3_bytes10ryo3_bytesNtB5_7PyBytes5title
FNDA:0,_RNvMsr_NtCs6ag8SEitiri_10ryo3_bytes10ryo3_bytesNtB5_7PyBytes5upper
FNDA:2925,_RNvMsr_NtCs6ag8SEitiri_10ryo3_bytes10ryo3_bytesNtB5_7PyBytes6___eq__
FNDA:616,_RNvMsr_NtCs6ag8SEitiri_10ryo3_bytes10ryo3_bytesNtB5_7PyBytes6decode
FNDA:0,_RNvMsr_NtCs6ag8SEitiri_10ryo3_bytes10ryo3_bytesNtB5_7PyBytes6lstrip
FNDA:3122,_RNvMsr_NtCs6ag8SEitiri_10ryo3_bytes10ryo3_bytesNtB5_7PyBytes6py_new
FNDA:0,_RNvMsr_NtCs6ag8SEitiri_10ryo3_bytes10ryo3_bytesNtB5_7PyBytes6rstrip
FNDA:0,_RNvMsr_NtCs6ag8SEitiri_10ryo3_bytes10ryo3_bytesNtB5_7PyBytes7___add__
FNDA:672,_RNvMsr_NtCs6ag8SEitiri_10ryo3_bytes10ryo3_bytesNtB5_7PyBytes7___len__
FNDA:0,_RNvMsr_NtCs6ag8SEitiri_10ryo3_bytes10ryo3_bytesNtB5_7PyBytes7___mul__
FNDA:356,_RNvMsr_NtCs6ag8SEitiri_10ryo3_bytes10ryo3_bytesNtB5_7PyBytes7fromhex
FNDA:100,_RNvMsr_NtCs6ag8SEitiri_10ryo3_bytes10ryo3_bytesNtB5_7PyBytes7isalnum
FNDA:100,_RNvMsr_NtCs6ag8SEitiri_10ryo3_bytes10ryo3_bytesNtB5_7PyBytes7isalpha
FNDA:100,_RNvMsr_NtCs6ag8SEitiri_10ryo3_bytes10ryo3_bytesNtB5_7PyBytes7isascii
FNDA:100,_RNvMsr_NtCs6ag8SEitiri_10ryo3_bytes10ryo3_bytesNtB5_7PyBytes7isdigit
FNDA:100,_RNvMsr_NtCs6ag8SEitiri_10ryo3_bytes10ryo3_bytesNtB5_7PyBytes7islower
FNDA:100,_RNvMsr_NtCs6ag8SEitiri_10ryo3_bytes10ryo3_bytesNtB5_7PyBytes7isspace
FNDA:100,_RNvMsr_NtCs6ag8SEitiri_10ryo3_bytes10ryo3_bytesNtB5_7PyBytes7istitle
FNDA:100,_RNvMsr_NtCs6ag8SEitiri_10ryo3_bytes10ryo3_bytesNtB5_7PyBytes7isupper
FNDA:0,_RNvMsr_NtCs6ag8SEitiri_10ryo3_bytes10ryo3_bytesNtB5_7PyBytes8___hash__
FNDA:257,_RNvMsr_NtCs6ag8SEitiri_10ryo3_bytes10ryo3_bytesNtB5_7PyBytes8___repr__
FNDA:0,_RNvMsr_NtCs6ag8SEitiri_10ryo3_bytes10ryo3_bytesNtB5_7PyBytes8___rmul__
FNDA:0,_RNvMsr_NtCs6ag8SEitiri_10ryo3_bytes10ryo3_bytesNtB5_7PyBytes8endswith
FNDA:100,_RNvMsr_NtCs6ag8SEitiri_10ryo3_bytes10ryo3_bytesNtB5_7PyBytes8swapcase
FNDA:11,_RNvMsr_NtCs6ag8SEitiri_10ryo3_bytes10ryo3_bytesNtB5_7PyBytes8to_bytes
FNDA:63,_RNvMsr_NtCs6ag8SEitiri_10ryo3_bytes10ryo3_bytesNtB5_7PyBytes9___bytes__
FNDA:902,_RNvNtCs6ag8SEitiri_10ryo3_bytes10ryo3_bytes15validate_buffer
FNDA:8121,_RNvXs0_NtCs6ag8SEitiri_10ryo3_bytes10ryo3_bytesNtB5_7PyBytesINtNtCs66KPHxksi63_4core7convert5AsRefShE6as_ref
FNDA:2314,_RNvXs3_NtCs6ag8SEitiri_10ryo3_bytes10ryo3_bytesNtB5_7PyBytesINtNtCs66KPHxksi63_4core7convert4FromINtNtCs8Ty2CzGA6U3_5alloc3vec3VechEE4from
FNDA:1364,_RNvXs4_NtCs6ag8SEitiri_10ryo3_bytes10ryo3_bytesNtB5_7PyBytesINtNtCs66KPHxksi63_4core7convert4FromNtNtCsdeDPnamZes_5bytes5bytes5BytesE4from
FNDA:0,_RNvXs5_NtCs6ag8SEitiri_10ryo3_bytes10ryo3_bytesNtB5_7PyBytesINtNtCs66KPHxksi63_4core7convert4FromNtNtCsdeDPnamZes_5bytes9bytes_mut8BytesMutE4from
FNDA:12204,_RNvXs6_NtCs6ag8SEitiri_10ryo3_bytes10ryo3_bytesNtB5_7PyBytesNtNtCsjhPV6BdWoWa_4pyo310conversion12FromPyObject13extract_bound
FNDA:12196,_RNvXs8_NtCs6ag8SEitiri_10ryo3_bytes10ryo3_bytesNtB5_14PyBytesWrapperINtNtCs66KPHxksi63_4core7convert5AsRefShE6as_ref
FNDA:12204,_RNvXs9_NtCs6ag8SEitiri_10ryo3_bytes10ryo3_bytesNtB5_14PyBytesWrapperNtNtCsjhPV6BdWoWa_4pyo310conversion12FromPyObject13extract_bound
FNDA:0,_RNvXs_NtCs6ag8SEitiri_10ryo3_bytes10ryo3_bytesNtB4_7PyBytesINtNtCs66KPHxksi63_4core7convert5AsRefNtNtCsdeDPnamZes_5bytes5bytes5BytesE6as_ref
FNDA:257,_RNvXsa_NtCs6ag8SEitiri_10ryo3_bytes10ryo3_bytesNtB5_7PyBytesNtNtCs66KPHxksi63_4core3fmt5Debug3fmt
FNDA:0,_RNvXs2_NtCs6ag8SEitiri_10ryo3_bytes10ryo3_bytesNtNtCsdeDPnamZes_5bytes5bytes5BytesINtNtCs66KPHxksi63_4core7convert4FromNtB5_7PyBytesE4from
FNDA:0,_RNCNvMs1_NtCs6ag8SEitiri_10ryo3_bytes10ryo3_bytesNtB7_7PyBytes5slice0B9_
FNDA:0,_RNCNvMs1_NtCs6ag8SEitiri_10ryo3_bytes10ryo3_bytesNtB7_7PyBytes5slices_0B9_
FNDA:0,_RNCNvMsB_NtCs6ag8SEitiri_10ryo3_bytes10ryo3_bytesNtB7_7PyBytes20___pymethod___new____0B9_
FNDA:0,_RNCNvMsr_NtCs6ag8SEitiri_10ryo3_bytes10ryo3_bytesNtB7_7PyBytes11___getitem__0B9_
FNDA:0,_RNCNvMsr_NtCs6ag8SEitiri_10ryo3_bytes10ryo3_bytesNtB7_7PyBytes12___contains__0B9_
FNDA:0,_RNCNvMsr_NtCs6ag8SEitiri_10ryo3_bytes10ryo3_bytesNtB7_7PyBytes7___mul__0B9_
FNDA:101,_RNCNvMsr_NtCs6ag8SEitiri_10ryo3_bytes10ryo3_bytesNtB7_7PyBytes7isspace0B9_
FNDA:902,_RNCNvNtCs6ag8SEitiri_10ryo3_bytes10ryo3_bytes15validate_buffer0B5_
FNF:64
FNH:43
DA:44,0
DA:45,0
DA:46,0
DA:50,8121
DA:51,8121
DA:52,8121
DA:57,0
DA:58,0
DA:59,0
DA:62,3
DA:63,3
DA:64,3
DA:67,385
DA:68,385
DA:69,385
DA:80,539
DA:81,539
DA:82,538
DA:83,539
DA:84,538
DA:87,538
DA:88,0
DA:90,538
DA:93,538
DA:94,538
DA:95,0
DA:96,0
DA:98,0
DA:99,0
DA:100,0
DA:101,0
DA:102,0
DA:104,0
DA:105,0
DA:106,0
DA:107,0
DA:108,0
DA:110,0
DA:111,0
DA:113,0
DA:114,0
DA:115,0
DA:116,0
DA:117,0
DA:119,0
DA:122,0
DA:123,0
DA:124,0
DA:125,0
DA:126,0
DA:127,0
DA:129,0
DA:131,539
DA:135,0
DA:136,0
DA:137,0
DA:141,2314
DA:142,2314
DA:143,2314
DA:147,1364
DA:148,1364
DA:149,1364
DA:153,0
DA:154,0
DA:155,0
DA:158,0
DA:163,0
DA:164,3122
DA:165,3122
DA:166,3122
DA:168,2
DA:169,2
DA:170,2
DA:171,2
DA:172,2
DA:173,2
DA:176,672
DA:177,672
DA:178,672
DA:180,257
DA:181,257
DA:182,257
DA:184,0
DA:185,0
DA:186,0
DA:187,0
DA:188,0
DA:189,0
DA:190,0
DA:192,0
DA:193,0
DA:194,0
DA:195,0
DA:196,0
DA:198,2925
DA:199,2925
DA:200,2925
DA:202,539
DA:203,539
DA:204,539
DA:205,539
DA:206,539
DA:207,539
DA:208,0
DA:209,0
DA:210,0
DA:211,0
DA:212,0
DA:213,0
DA:214,0
DA:215,0
DA:216,0
DA:217,0
DA:218,0
DA:220,539
DA:221,539
DA:222,538
DA:225,539
DA:227,0
DA:228,0
DA:229,0
DA:230,0
DA:231,0
DA:233,0
DA:234,0
DA:235,0
DA:240,2469
DA:241,2469
DA:242,2469
DA:243,2469
DA:244,2469
DA:246,2469
DA:247,2469
DA:248,2469
DA:249,2469
DA:250,2469
DA:251,2469
DA:253,2469
DA:255,2469
DA:256,0
DA:257,2469
DA:258,2469
DA:260,2469
DA:268,2469
DA:273,2
DA:274,2
DA:275,2
DA:277,0
DA:279,2
DA:284,2
DA:285,2
DA:286,2
DA:288,0
DA:290,2
DA:296,100
DA:297,100
DA:298,100
DA:303,100
DA:304,100
DA:305,100
DA:309,100
DA:310,100
DA:311,100
DA:316,100
DA:317,100
DA:318,100
DA:322,100
DA:323,100
DA:324,388
DA:325,388
DA:326,49
DA:327,339
DA:328,339
DA:330,51
DA:331,100
DA:336,100
DA:337,100
DA:338,101
DA:339,101
DA:340,101
DA:341,100
DA:345,100
DA:346,100
DA:347,403
DA:348,403
DA:349,47
DA:350,356
DA:351,356
DA:353,53
DA:354,100
DA:358,0
DA:359,0
DA:360,0
DA:364,0
DA:365,0
DA:366,0
DA:369,63
DA:370,63
DA:371,63
DA:374,11
DA:375,11
DA:376,11
DA:380,0
DA:381,0
DA:382,0
DA:400,616
DA:401,616
DA:402,616
DA:403,616
DA:404,616
DA:405,616
DA:406,616
DA:407,616
DA:428,356
DA:429,356
DA:430,356
DA:442,356
DA:443,356
DA:444,356
DA:497,100
DA:498,100
DA:499,100
DA:501,100
DA:502,100
DA:503,100
DA:506,8
DA:507,8
DA:508,8
DA:511,0
DA:512,0
DA:513,0
DA:515,100
DA:516,100
DA:517,100
DA:519,100
DA:520,100
DA:521,100
DA:524,109
DA:525,109
DA:526,109
DA:529,642
DA:530,642
DA:531,30
DA:533,612
DA:535,642
DA:538,0
DA:539,0
DA:540,0
DA:542,0
DA:544,0
DA:547,0
DA:548,0
DA:549,0
DA:551,0
DA:553,0
DA:558,12204
DA:559,12204
DA:560,12196
DA:561,12196
DA:562,12204
DA:574,12193
DA:579,12193
DA:580,12193
DA:581,12193
DA:582,0
DA:583,12193
DA:584,12193
DA:585,12193
DA:586,0
DA:587,12193
DA:592,12196
DA:593,12196
DA:594,12196
DA:596,12196
DA:603,12196
DA:604,12196
DA:607,902
DA:608,902
DA:609,0
DA:610,902
DA:612,902
DA:613,0
DA:614,0
DA:615,0
DA:616,0
DA:617,902
DA:619,902
DA:620,902
DA:623,12204
DA:624,12204
DA:625,11294
DA:626,11294
DA:628,910
DA:629,902
DA:630,902
DA:632,12204
DA:642,257
DA:643,257
DA:644,267
DA:645,267
DA:647,1
DA:648,1
DA:649,3
DA:650,1
DA:651,1
DA:653,231
DA:654,158
DA:657,257
DA:658,257
DA:659,257
BRF:0
BRH:0
LF:317
LH:207
end_of_record
SF:/home/jesse/ry/crates/ryo3-bzip2/src/lib.rs
FN:45,_RNvCs6Swyi7X0Xeu_10ryo3_bzip212bzip2_decode
FN:22,_RNvCs6Swyi7X0Xeu_10ryo3_bzip212bzip2_encode
FN:12,_RNvCs6Swyi7X0Xeu_10ryo3_bzip215rs_bzip2_encode
FN:34,_RNvCs6Swyi7X0Xeu_10ryo3_bzip25bzip2
FN:81,_RNvCs6Swyi7X0Xeu_10ryo3_bzip29pymod_add
FN:57,_RNvXCs6Swyi7X0Xeu_10ryo3_bzip2NtB2_13PyCompressionNtNtCsjhPV6BdWoWa_4pyo310conversion12FromPyObject13extract_bound
FNDA:6,_RNvCs6Swyi7X0Xeu_10ryo3_bzip212bzip2_decode
FNDA:5,_RNvCs6Swyi7X0Xeu_10ryo3_bzip212bzip2_encode
FNDA:5,_RNvCs6Swyi7X0Xeu_10ryo3_bzip215rs_bzip2_encode
FNDA:0,_RNvCs6Swyi7X0Xeu_10ryo3_bzip25bzip2
FNDA:8,_RNvCs6Swyi7X0Xeu_10ryo3_bzip29pymod_add
FNDA:2,_RNvXCs6Swyi7X0Xeu_10ryo3_bzip2NtB2_13PyCompressionNtNtCsjhPV6BdWoWa_4pyo310conversion12FromPyObject13extract_bound
FNF:6
FNH:5
DA:12,5
DA:13,5
DA:14,5
DA:15,5
DA:16,5
DA:17,5
DA:22,5
DA:23,5
DA:24,5
DA:25,5
DA:26,5
DA:27,5
DA:28,5
DA:29,5
DA:34,0
DA:35,0
DA:36,0
DA:37,0
DA:38,0
DA:39,0
DA:40,0
DA:41,0
DA:45,6
DA:46,6
DA:47,6
DA:48,6
DA:50,6
DA:51,6
DA:57,2
DA:58,2
DA:59,2
DA:60,2
DA:61,2
DA:62,0
DA:63,0
DA:64,0
DA:65,0
DA:66,0
DA:67,0
DA:68,0
DA:69,0
DA:71,0
DA:72,0
DA:73,0
DA:74,0
DA:75,0
DA:76,0
DA:77,0
DA:78,2
DA:81,8
DA:82,8
DA:83,8
DA:84,8
DA:85,8
DA:86,8
BRF:0
BRH:0
LF:55
LH:32
end_of_record
SF:/home/jesse/ry/crates/ryo3-core/src/lib.rs
FN:12,_RNvCs2rqQyGAU8eF_9ryo3_core11py_bool2strCs5G4Au3t2kpO_8ryo3_std
FNDA:0,_RNvCs2rqQyGAU8eF_9ryo3_core11py_bool2strCs5G4Au3t2kpO_8ryo3_std
FNF:1
FNH:0
DA:12,0
DA:13,0
DA:14,0
DA:16,0
DA:18,0
BRF:0
BRH:0
LF:5
LH:0
end_of_record
SF:/home/jesse/ry/crates/ryo3-core/src/pymutex.rs
FN:14,_RNvXNtCs2rqQyGAU8eF_9ryo3_core7pymutexINtNtNtNtCsiKSG5X70Gj7_3std4sync6poison5mutex5MutexNtNtCslMiNONFeTze_11xxhash_rust4xxh34Xxh3EINtB2_6PyLockB1p_E7py_lockCsfW6IUNVNipD_11ryo3_xxhash
FN:14,_RNvXNtCs2rqQyGAU8eF_9ryo3_core7pymutexINtNtNtNtCsiKSG5X70Gj7_3std4sync6poison5mutex5MutexNtNtCslMiNONFeTze_11xxhash_rust5xxh325Xxh32EINtB2_6PyLockB1p_E7py_lockCsfW6IUNVNipD_11ryo3_xxhash
FN:14,_RNvXNtCs2rqQyGAU8eF_9ryo3_core7pymutexINtNtNtNtCsiKSG5X70Gj7_3std4sync6poison5mutex5MutexNtNtCslMiNONFeTze_11xxhash_rust5xxh645Xxh64EINtB2_6PyLockB1p_E7py_lockCsfW6IUNVNipD_11ryo3_xxhash
FN:5,_RINvNtCs2rqQyGAU8eF_9ryo3_core7pymutex16map_poison_errorNtNtCslMiNONFeTze_11xxhash_rust4xxh34Xxh3ECsfW6IUNVNipD_11ryo3_xxhash
FN:5,_RINvNtCs2rqQyGAU8eF_9ryo3_core7pymutex16map_poison_errorNtNtCslMiNONFeTze_11xxhash_rust5xxh325Xxh32ECsfW6IUNVNipD_11ryo3_xxhash
FN:5,_RINvNtCs2rqQyGAU8eF_9ryo3_core7pymutex16map_poison_errorNtNtCslMiNONFeTze_11xxhash_rust5xxh645Xxh64ECsfW6IUNVNipD_11ryo3_xxhash
FN:15,_RNCNvXNtCs2rqQyGAU8eF_9ryo3_core7pymutexINtNtNtNtCsiKSG5X70Gj7_3std4sync6poison5mutex5MutexNtNtCslMiNONFeTze_11xxhash_rust4xxh34Xxh3EINtB4_6PyLockB1r_E7py_lock0CsfW6IUNVNipD_11ryo3_xxhash
FN:15,_RNCNvXNtCs2rqQyGAU8eF_9ryo3_core7pymutexINtNtNtNtCsiKSG5X70Gj7_3std4sync6poison5mutex5MutexNtNtCslMiNONFeTze_11xxhash_rust5xxh325Xxh32EINtB4_6PyLockB1r_E7py_lock0CsfW6IUNVNipD_11ryo3_xxhash
FN:15,_RNCNvXNtCs2rqQyGAU8eF_9ryo3_core7pymutexINtNtNtNtCsiKSG5X70Gj7_3std4sync6poison5mutex5MutexNtNtCslMiNONFeTze_11xxhash_rust5xxh645Xxh64EINtB4_6PyLockB1r_E7py_lock0CsfW6IUNVNipD_11ryo3_xxhash
FNDA:0,_RNvXNtCs2rqQyGAU8eF_9ryo3_core7pymutexINtNtNtNtCsiKSG5X70Gj7_3std4sync6poison5mutex5MutexNtNtCslMiNONFeTze_11xxhash_rust4xxh34Xxh3EINtB2_6PyLockB1p_E7py_lockCsfW6IUNVNipD_11ryo3_xxhash
FNDA:1122,_RNvXNtCs2rqQyGAU8eF_9ryo3_core7pymutexINtNtNtNtCsiKSG5X70Gj7_3std4sync6poison5mutex5MutexNtNtCslMiNONFeTze_11xxhash_rust5xxh325Xxh32EINtB2_6PyLockB1p_E7py_lockCsfW6IUNVNipD_11ryo3_xxhash
FNDA:0,_RNvXNtCs2rqQyGAU8eF_9ryo3_core7pymutexINtNtNtNtCsiKSG5X70Gj7_3std4sync6poison5mutex5MutexNtNtCslMiNONFeTze_11xxhash_rust5xxh645Xxh64EINtB2_6PyLockB1p_E7py_lockCsfW6IUNVNipD_11ryo3_xxhash
FNDA:0,_RINvNtCs2rqQyGAU8eF_9ryo3_core7pymutex16map_poison_errorNtNtCslMiNONFeTze_11xxhash_rust4xxh34Xxh3ECsfW6IUNVNipD_11ryo3_xxhash
FNDA:0,_RINvNtCs2rqQyGAU8eF_9ryo3_core7pymutex16map_poison_errorNtNtCslMiNONFeTze_11xxhash_rust5xxh325Xxh32ECsfW6IUNVNipD_11ryo3_xxhash
FNDA:0,_RINvNtCs2rqQyGAU8eF_9ryo3_core7pymutex16map_poison_errorNtNtCslMiNONFeTze_11xxhash_rust5xxh645Xxh64ECsfW6IUNVNipD_11ryo3_xxhash
FNDA:0,_RNCNvXNtCs2rqQyGAU8eF_9ryo3_core7pymutexINtNtNtNtCsiKSG5X70Gj7_3std4sync6poison5mutex5MutexNtNtCslMiNONFeTze_11xxhash_rust4xxh34Xxh3EINtB4_6PyLockB1r_E7py_lock0CsfW6IUNVNipD_11ryo3_xxhash
FNDA:0,_RNCNvXNtCs2rqQyGAU8eF_9ryo3_core7pymutexINtNtNtNtCsiKSG5X70Gj7_3std4sync6poison5mutex5MutexNtNtCslMiNONFeTze_11xxhash_rust5xxh325Xxh32EINtB4_6PyLockB1r_E7py_lock0CsfW6IUNVNipD_11ryo3_xxhash
FNDA:0,_RNCNvXNtCs2rqQyGAU8eF_9ryo3_core7pymutexINtNtNtNtCsiKSG5X70Gj7_3std4sync6poison5mutex5MutexNtNtCslMiNONFeTze_11xxhash_rust5xxh645Xxh64EINtB4_6PyLockB1r_E7py_lock0CsfW6IUNVNipD_11ryo3_xxhash
FNF:3
FNH:1
DA:5,0
DA:6,0
DA:7,0
DA:14,1122
DA:15,1122
DA:16,1122
BRF:0
BRH:0
LF:7
LH:3
end_of_record
SF:/home/jesse/ry/crates/ryo3-core/src/types/pathlike.rs
FN:29,_RNvXs0_NtNtCs2rqQyGAU8eF_9ryo3_core5types8pathlikeNtB5_8PathLikeINtNtCs66KPHxksi63_4core7convert4FromRNtNtCsiKSG5X70Gj7_3std4path4PathE4from
FN:35,_RNvXs1_NtNtCs2rqQyGAU8eF_9ryo3_core5types8pathlikeNtB5_8PathLikeNtNtCs66KPHxksi63_4core3fmt7Display3fmt
FN:20,_RNvXs_NtNtCs2rqQyGAU8eF_9ryo3_core5types8pathlikeNtB4_8PathLikeINtNtCs66KPHxksi63_4core7convert5AsRefNtNtCsiKSG5X70Gj7_3std4path4PathE6as_ref
FN:11,_RNvXNtNtCs2rqQyGAU8eF_9ryo3_core5types8pathlikeNtNtCs8Ty2CzGA6U3_5alloc6string6StringINtNtCs66KPHxksi63_4core7convert4FromNtB2_8PathLikeE4from
FNDA:0,_RNvXs0_NtNtCs2rqQyGAU8eF_9ryo3_core5types8pathlikeNtB5_8PathLikeINtNtCs66KPHxksi63_4core7convert4FromRNtNtCsiKSG5X70Gj7_3std4path4PathE4from
FNDA:2,_RNvXs1_NtNtCs2rqQyGAU8eF_9ryo3_core5types8pathlikeNtB5_8PathLikeNtNtCs66KPHxksi63_4core3fmt7Display3fmt
FNDA:222,_RNvXs_NtNtCs2rqQyGAU8eF_9ryo3_core5types8pathlikeNtB4_8PathLikeINtNtCs66KPHxksi63_4core7convert5AsRefNtNtCsiKSG5X70Gj7_3std4path4PathE6as_ref
FNDA:0,_RNvXNtNtCs2rqQyGAU8eF_9ryo3_core5types8pathlikeNtNtCs8Ty2CzGA6U3_5alloc6string6StringINtNtCs66KPHxksi63_4core7convert4FromNtB2_8PathLikeE4from
FNF:4
FNH:2
DA:11,0
DA:12,0
DA:13,0
DA:14,0
DA:16,0
DA:20,222
DA:21,222
DA:22,221
DA:23,1
DA:25,222
DA:29,0
DA:30,0
DA:31,0
DA:35,2
DA:36,2
DA:37,2
DA:38,0
DA:40,2
BRF:0
BRH:0
LF:18
LH:9
end_of_record
SF:/home/jesse/ry/crates/ryo3-core/src/types/string_or_strings.rs
FN:10,_RNvXNtNtCs2rqQyGAU8eF_9ryo3_core5types17string_or_stringsINtNtCs8Ty2CzGA6U3_5alloc3vec3VecNtNtBY_6string6StringEINtNtCs66KPHxksi63_4core7convert4FromNtB2_15StringOrStringsE4from
FNDA:10,_RNvXNtNtCs2rqQyGAU8eF_9ryo3_core5types17string_or_stringsINtNtCs8Ty2CzGA6U3_5alloc3vec3VecNtNtBY_6string6StringEINtNtCs66KPHxksi63_4core7convert4FromNtB2_15StringOrStringsE4from
FNF:1
FNH:1
DA:10,10
DA:11,10
DA:12,0
DA:13,10
DA:15,10
BRF:0
BRH:0
LF:5
LH:4
end_of_record
SF:/home/jesse/ry/crates/ryo3-dirs/src/lib.rs
FN:58,_RNCNvCsgE2VOkEyVsA_9ryo3_dirs10config_dir0B3_
FN:50,_RNCNvCsgE2VOkEyVsA_9ryo3_dirs10data_local0B3_
FN:50,_RNCNvCsgE2VOkEyVsA_9ryo3_dirs10executable0B3_
FN:50,_RNCNvCsgE2VOkEyVsA_9ryo3_dirs10preference0B3_
FN:58,_RNCNvCsgE2VOkEyVsA_9ryo3_dirs10public_dir0B3_
FN:58,_RNCNvCsgE2VOkEyVsA_9ryo3_dirs11desktop_dir0B3_
FN:58,_RNCNvCsgE2VOkEyVsA_9ryo3_dirs11picture_dir0B3_
FN:58,_RNCNvCsgE2VOkEyVsA_9ryo3_dirs11runtime_dir0B3_
FN:50,_RNCNvCsgE2VOkEyVsA_9ryo3_dirs12config_local0B3_
FN:58,_RNCNvCsgE2VOkEyVsA_9ryo3_dirs12document_dir0B3_
FN:58,_RNCNvCsgE2VOkEyVsA_9ryo3_dirs12download_dir0B3_
FN:58,_RNCNvCsgE2VOkEyVsA_9ryo3_dirs12template_dir0B3_
FN:58,_RNCNvCsgE2VOkEyVsA_9ryo3_dirs14data_local_dir0B3_
FN:58,_RNCNvCsgE2VOkEyVsA_9ryo3_dirs14executable_dir0B3_
FN:58,_RNCNvCsgE2VOkEyVsA_9ryo3_dirs14preference_dir0B3_
FN:58,_RNCNvCsgE2VOkEyVsA_9ryo3_dirs16config_local_dir0B3_
FN:50,_RNCNvCsgE2VOkEyVsA_9ryo3_dirs4data0B3_
FN:50,_RNCNvCsgE2VOkEyVsA_9ryo3_dirs4font0B3_
FN:33,_RNCNvCsgE2VOkEyVsA_9ryo3_dirs4home0B3_
FN:50,_RNCNvCsgE2VOkEyVsA_9ryo3_dirs5audio0B3_
FN:33,_RNCNvCsgE2VOkEyVsA_9ryo3_dirs5cache0B3_
FN:50,_RNCNvCsgE2VOkEyVsA_9ryo3_dirs5state0B3_
FN:50,_RNCNvCsgE2VOkEyVsA_9ryo3_dirs5video0B3_
FN:50,_RNCNvCsgE2VOkEyVsA_9ryo3_dirs6config0B3_
FN:50,_RNCNvCsgE2VOkEyVsA_9ryo3_dirs6public0B3_
FN:50,_RNCNvCsgE2VOkEyVsA_9ryo3_dirs7desktop0B3_
FN:50,_RNCNvCsgE2VOkEyVsA_9ryo3_dirs7picture0B3_
FN:50,_RNCNvCsgE2VOkEyVsA_9ryo3_dirs7runtime0B3_
FN:58,_RNCNvCsgE2VOkEyVsA_9ryo3_dirs8data_dir0B3_
FN:50,_RNCNvCsgE2VOkEyVsA_9ryo3_dirs8document0B3_
FN:50,_RNCNvCsgE2VOkEyVsA_9ryo3_dirs8download0B3_
FN:58,_RNCNvCsgE2VOkEyVsA_9ryo3_dirs8font_dir0B3_
FN:41,_RNCNvCsgE2VOkEyVsA_9ryo3_dirs8home_dir0B3_
FN:50,_RNCNvCsgE2VOkEyVsA_9ryo3_dirs8template0B3_
FN:58,_RNCNvCsgE2VOkEyVsA_9ryo3_dirs9audio_dir0B3_
FN:41,_RNCNvCsgE2VOkEyVsA_9ryo3_dirs9cache_dir0B3_
FN:58,_RNCNvCsgE2VOkEyVsA_9ryo3_dirs9state_dir0B3_
FN:58,_RNCNvCsgE2VOkEyVsA_9ryo3_dirs9video_dir0B3_
FN:57,_RNvCsgE2VOkEyVsA_9ryo3_dirs10config_dir
FN:49,_RNvCsgE2VOkEyVsA_9ryo3_dirs10data_local
FN:49,_RNvCsgE2VOkEyVsA_9ryo3_dirs10executable
FN:49,_RNvCsgE2VOkEyVsA_9ryo3_dirs10preference
FN:57,_RNvCsgE2VOkEyVsA_9ryo3_dirs10public_dir
FN:57,_RNvCsgE2VOkEyVsA_9ryo3_dirs11desktop_dir
FN:57,_RNvCsgE2VOkEyVsA_9ryo3_dirs11picture_dir
FN:57,_RNvCsgE2VOkEyVsA_9ryo3_dirs11runtime_dir
FN:49,_RNvCsgE2VOkEyVsA_9ryo3_dirs12config_local
FN:57,_RNvCsgE2VOkEyVsA_9ryo3_dirs12document_dir
FN:57,_RNvCsgE2VOkEyVsA_9ryo3_dirs12download_dir
FN:57,_RNvCsgE2VOkEyVsA_9ryo3_dirs12template_dir
FN:57,_RNvCsgE2VOkEyVsA_9ryo3_dirs14data_local_dir
FN:57,_RNvCsgE2VOkEyVsA_9ryo3_dirs14executable_dir
FN:57,_RNvCsgE2VOkEyVsA_9ryo3_dirs14preference_dir
FN:57,_RNvCsgE2VOkEyVsA_9ryo3_dirs16config_local_dir
FN:104,_RNvCsgE2VOkEyVsA_9ryo3_dirs21pymod_register_suffix
FN:127,_RNvCsgE2VOkEyVsA_9ryo3_dirs24pymod_register_no_suffix
FN:49,_RNvCsgE2VOkEyVsA_9ryo3_dirs4data
FN:49,_RNvCsgE2VOkEyVsA_9ryo3_dirs4font
FN:32,_RNvCsgE2VOkEyVsA_9ryo3_dirs4home
FN:49,_RNvCsgE2VOkEyVsA_9ryo3_dirs5audio
FN:32,_RNvCsgE2VOkEyVsA_9ryo3_dirs5cache
FN:49,_RNvCsgE2VOkEyVsA_9ryo3_dirs5state
FN:49,_RNvCsgE2VOkEyVsA_9ryo3_dirs5video
FN:49,_RNvCsgE2VOkEyVsA_9ryo3_dirs6config
FN:49,_RNvCsgE2VOkEyVsA_9ryo3_dirs6public
FN:49,_RNvCsgE2VOkEyVsA_9ryo3_dirs7desktop
FN:49,_RNvCsgE2VOkEyVsA_9ryo3_dirs7picture
FN:49,_RNvCsgE2VOkEyVsA_9ryo3_dirs7runtime
FN:57,_RNvCsgE2VOkEyVsA_9ryo3_dirs8data_dir
FN:49,_RNvCsgE2VOkEyVsA_9ryo3_dirs8document
FN:49,_RNvCsgE2VOkEyVsA_9ryo3_dirs8download
FN:57,_RNvCsgE2VOkEyVsA_9ryo3_dirs8font_dir
FN:40,_RNvCsgE2VOkEyVsA_9ryo3_dirs8home_dir
FN:49,_RNvCsgE2VOkEyVsA_9ryo3_dirs8template
FN:57,_RNvCsgE2VOkEyVsA_9ryo3_dirs9audio_dir
FN:40,_RNvCsgE2VOkEyVsA_9ryo3_dirs9cache_dir
FN:149,_RNvCsgE2VOkEyVsA_9ryo3_dirs9pymod_add
FN:57,_RNvCsgE2VOkEyVsA_9ryo3_dirs9state_dir
FN:57,_RNvCsgE2VOkEyVsA_9ryo3_dirs9video_dir
FNDA:1,_RNCNvCsgE2VOkEyVsA_9ryo3_dirs10config_dir0B3_
FNDA:1,_RNCNvCsgE2VOkEyVsA_9ryo3_dirs10data_local0B3_
FNDA:1,_RNCNvCsgE2VOkEyVsA_9ryo3_dirs10executable0B3_
FNDA:1,_RNCNvCsgE2VOkEyVsA_9ryo3_dirs10preference0B3_
FNDA:0,_RNCNvCsgE2VOkEyVsA_9ryo3_dirs10public_dir0B3_
FNDA:0,_RNCNvCsgE2VOkEyVsA_9ryo3_dirs11desktop_dir0B3_
FNDA:0,_RNCNvCsgE2VOkEyVsA_9ryo3_dirs11picture_dir0B3_
FNDA:1,_RNCNvCsgE2VOkEyVsA_9ryo3_dirs11runtime_dir0B3_
FNDA:1,_RNCNvCsgE2VOkEyVsA_9ryo3_dirs12config_local0B3_
FNDA:0,_RNCNvCsgE2VOkEyVsA_9ryo3_dirs12document_dir0B3_
FNDA:0,_RNCNvCsgE2VOkEyVsA_9ryo3_dirs12download_dir0B3_
FNDA:0,_RNCNvCsgE2VOkEyVsA_9ryo3_dirs12template_dir0B3_
FNDA:1,_RNCNvCsgE2VOkEyVsA_9ryo3_dirs14data_local_dir0B3_
FNDA:1,_RNCNvCsgE2VOkEyVsA_9ryo3_dirs14executable_dir0B3_
FNDA:1,_RNCNvCsgE2VOkEyVsA_9ryo3_dirs14preference_dir0B3_
FNDA:1,_RNCNvCsgE2VOkEyVsA_9ryo3_dirs16config_local_dir0B3_
FNDA:1,_RNCNvCsgE2VOkEyVsA_9ryo3_dirs4data0B3_
FNDA:1,_RNCNvCsgE2VOkEyVsA_9ryo3_dirs4font0B3_
FNDA:1,_RNCNvCsgE2VOkEyVsA_9ryo3_dirs4home0B3_
FNDA:0,_RNCNvCsgE2VOkEyVsA_9ryo3_dirs5audio0B3_
FNDA:1,_RNCNvCsgE2VOkEyVsA_9ryo3_dirs5cache0B3_
FNDA:1,_RNCNvCsgE2VOkEyVsA_9ryo3_dirs5state0B3_
FNDA:0,_RNCNvCsgE2VOkEyVsA_9ryo3_dirs5video0B3_
FNDA:1,_RNCNvCsgE2VOkEyVsA_9ryo3_dirs6config0B3_
FNDA:0,_RNCNvCsgE2VOkEyVsA_9ryo3_dirs6public0B3_
FNDA:0,_RNCNvCsgE2VOkEyVsA_9ryo3_dirs7desktop0B3_
FNDA:0,_RNCNvCsgE2VOkEyVsA_9ryo3_dirs7picture0B3_
FNDA:1,_RNCNvCsgE2VOkEyVsA_9ryo3_dirs7runtime0B3_
FNDA:1,_RNCNvCsgE2VOkEyVsA_9ryo3_dirs8data_dir0B3_
FNDA:0,_RNCNvCsgE2VOkEyVsA_9ryo3_dirs8document0B3_
FNDA:0,_RNCNvCsgE2VOkEyVsA_9ryo3_dirs8download0B3_
FNDA:1,_RNCNvCsgE2VOkEyVsA_9ryo3_dirs8font_dir0B3_
FNDA:1,_RNCNvCsgE2VOkEyVsA_9ryo3_dirs8home_dir0B3_
FNDA:0,_RNCNvCsgE2VOkEyVsA_9ryo3_dirs8template0B3_
FNDA:0,_RNCNvCsgE2VOkEyVsA_9ryo3_dirs9audio_dir0B3_
FNDA:1,_RNCNvCsgE2VOkEyVsA_9ryo3_dirs9cache_dir0B3_
FNDA:1,_RNCNvCsgE2VOkEyVsA_9ryo3_dirs9state_dir0B3_
FNDA:0,_RNCNvCsgE2VOkEyVsA_9ryo3_dirs9video_dir0B3_
FNDA:1,_RNvCsgE2VOkEyVsA_9ryo3_dirs10config_dir
FNDA:1,_RNvCsgE2VOkEyVsA_9ryo3_dirs10data_local
FNDA:1,_RNvCsgE2VOkEyVsA_9ryo3_dirs10executable
FNDA:1,_RNvCsgE2VOkEyVsA_9ryo3_dirs10preference
FNDA:1,_RNvCsgE2VOkEyVsA_9ryo3_dirs10public_dir
FNDA:1,_RNvCsgE2VOkEyVsA_9ryo3_dirs11desktop_dir
FNDA:1,_RNvCsgE2VOkEyVsA_9ryo3_dirs11picture_dir
FNDA:1,_RNvCsgE2VOkEyVsA_9ryo3_dirs11runtime_dir
FNDA:1,_RNvCsgE2VOkEyVsA_9ryo3_dirs12config_local
FNDA:1,_RNvCsgE2VOkEyVsA_9ryo3_dirs12document_dir
FNDA:1,_RNvCsgE2VOkEyVsA_9ryo3_dirs12download_dir
FNDA:1,_RNvCsgE2VOkEyVsA_9ryo3_dirs12template_dir
FNDA:1,_RNvCsgE2VOkEyVsA_9ryo3_dirs14data_local_dir
FNDA:1,_RNvCsgE2VOkEyVsA_9ryo3_dirs14executable_dir
FNDA:1,_RNvCsgE2VOkEyVsA_9ryo3_dirs14preference_dir
FNDA:1,_RNvCsgE2VOkEyVsA_9ryo3_dirs16config_local_dir
FNDA:8,_RNvCsgE2VOkEyVsA_9ryo3_dirs21pymod_register_suffix
FNDA:8,_RNvCsgE2VOkEyVsA_9ryo3_dirs24pymod_register_no_suffix
FNDA:1,_RNvCsgE2VOkEyVsA_9ryo3_dirs4data
FNDA:1,_RNvCsgE2VOkEyVsA_9ryo3_dirs4font
FNDA:1,_RNvCsgE2VOkEyVsA_9ryo3_dirs4home
FNDA:1,_RNvCsgE2VOkEyVsA_9ryo3_dirs5audio
FNDA:1,_RNvCsgE2VOkEyVsA_9ryo3_dirs5cache
FNDA:1,_RNvCsgE2VOkEyVsA_9ryo3_dirs5state
FNDA:1,_RNvCsgE2VOkEyVsA_9ryo3_dirs5video
FNDA:1,_RNvCsgE2VOkEyVsA_9ryo3_dirs6config
FNDA:1,_RNvCsgE2VOkEyVsA_9ryo3_dirs6public
FNDA:1,_RNvCsgE2VOkEyVsA_9ryo3_dirs7desktop
FNDA:1,_RNvCsgE2VOkEyVsA_9ryo3_dirs7picture
FNDA:1,_RNvCsgE2VOkEyVsA_9ryo3_dirs7runtime
FNDA:1,_RNvCsgE2VOkEyVsA_9ryo3_dirs8data_dir
FNDA:1,_RNvCsgE2VOkEyVsA_9ryo3_dirs8document
FNDA:1,_RNvCsgE2VOkEyVsA_9ryo3_dirs8download
FNDA:1,_RNvCsgE2VOkEyVsA_9ryo3_dirs8font_dir
FNDA:1,_RNvCsgE2VOkEyVsA_9ryo3_dirs8home_dir
FNDA:1,_RNvCsgE2VOkEyVsA_9ryo3_dirs8template
FNDA:1,_RNvCsgE2VOkEyVsA_9ryo3_dirs9audio_dir
FNDA:1,_RNvCsgE2VOkEyVsA_9ryo3_dirs9cache_dir
FNDA:8,_RNvCsgE2VOkEyVsA_9ryo3_dirs9pymod_add
FNDA:1,_RNvCsgE2VOkEyVsA_9ryo3_dirs9state_dir
FNDA:1,_RNvCsgE2VOkEyVsA_9ryo3_dirs9video_dir
FNF:11
FNH:11
DA:32,2
DA:33,2
DA:34,2
DA:35,2
DA:36,2
DA:40,2
DA:41,2
DA:42,2
DA:43,2
DA:44,2
DA:49,17
DA:50,17
DA:51,9
DA:52,9
DA:53,17
DA:57,17
DA:58,17
DA:59,9
DA:60,9
DA:61,17
DA:104,8
DA:105,8
DA:106,8
DA:107,8
DA:108,8
DA:109,8
DA:110,8
DA:111,8
DA:112,8
DA:113,8
DA:114,8
DA:115,8
DA:116,8
DA:117,8
DA:118,8
DA:119,8
DA:120,8
DA:121,8
DA:122,8
DA:123,8
DA:124,8
DA:125,8
DA:127,8
DA:128,8
DA:129,8
DA:130,8
DA:131,8
DA:132,8
DA:133,8
DA:134,8
DA:135,8
DA:136,8
DA:137,8
DA:138,8
DA:139,8
DA:140,8
DA:141,8
DA:142,8
DA:143,8
DA:144,8
DA:145,8
DA:146,8
DA:147,8
DA:148,8
DA:149,8
DA:150,8
DA:151,8
DA:152,8
DA:153,8
BRF:0
BRH:0
LF:73
LH:73
end_of_record
SF:/home/jesse/ry/crates/ryo3-flate2/src/compression.rs
FN:9,_RNvXNtCsjuvxuIOjyBG_11ryo3_flate211compressionNtB2_13PyCompressionNtNtCsjhPV6BdWoWa_4pyo310conversion12FromPyObject13extract_bound
FNDA:15,_RNvXNtCsjuvxuIOjyBG_11ryo3_flate211compressionNtB2_13PyCompressionNtNtCsjhPV6BdWoWa_4pyo310conversion12FromPyObject13extract_bound
FNF:1
FNH:1
DA:9,15
DA:10,15
DA:11,13
DA:12,13
DA:13,12
DA:14,1
DA:15,2
DA:16,2
DA:17,2
DA:18,2
DA:19,1
DA:20,0
DA:22,2
DA:23,2
DA:24,0
DA:25,0
DA:26,1
DA:27,1
DA:28,1
DA:29,15
BRF:0
BRH:0
LF:20
LH:17
end_of_record
SF:/home/jesse/ry/crates/ryo3-flate2/src/gz.rs
FN:62,_RNvNtCsjuvxuIOjyBG_11ryo3_flate22gz10is_gzipped
FN:36,_RNvNtCsjuvxuIOjyBG_11ryo3_flate22gz11gzip_decode
FN:25,_RNvNtCsjuvxuIOjyBG_11ryo3_flate22gz11gzip_encode
FN:16,_RNvNtCsjuvxuIOjyBG_11ryo3_flate22gz14rs_gzip_decode
FN:9,_RNvNtCsjuvxuIOjyBG_11ryo3_flate22gz14rs_gzip_encode
FN:45,_RNvNtCsjuvxuIOjyBG_11ryo3_flate22gz4gzip
FN:56,_RNvNtCsjuvxuIOjyBG_11ryo3_flate22gz6gunzip
FNDA:0,_RNvNtCsjuvxuIOjyBG_11ryo3_flate22gz10is_gzipped
FNDA:18,_RNvNtCsjuvxuIOjyBG_11ryo3_flate22gz11gzip_decode
FNDA:17,_RNvNtCsjuvxuIOjyBG_11ryo3_flate22gz11gzip_encode
FNDA:18,_RNvNtCsjuvxuIOjyBG_11ryo3_flate22gz14rs_gzip_decode
FNDA:17,_RNvNtCsjuvxuIOjyBG_11ryo3_flate22gz14rs_gzip_encode
FNDA:0,_RNvNtCsjuvxuIOjyBG_11ryo3_flate22gz4gzip
FNDA:0,_RNvNtCsjuvxuIOjyBG_11ryo3_flate22gz6gunzip
FNF:7
FNH:4
DA:9,17
DA:10,17
DA:11,17
DA:12,17
DA:13,17
DA:14,17
DA:16,18
DA:17,18
DA:18,18
DA:19,18
DA:20,18
DA:25,17
DA:26,17
DA:27,17
DA:28,17
DA:29,17
DA:30,17
DA:31,17
DA:32,17
DA:36,18
DA:37,18
DA:38,18
DA:39,18
DA:45,0
DA:46,0
DA:47,0
DA:48,0
DA:49,0
DA:50,0
DA:51,0
DA:52,0
DA:56,0
DA:57,0
DA:58,0
DA:62,0
DA:63,0
DA:64,0
DA:65,0
BRF:0
BRH:0
LF:38
LH:23
end_of_record
SF:/home/jesse/ry/crates/ryo3-flate2/src/lib.rs
FN:8,_RNvCsjuvxuIOjyBG_11ryo3_flate29pymod_add
FNDA:8,_RNvCsjuvxuIOjyBG_11ryo3_flate29pymod_add
FNF:1
FNH:1
DA:8,8
DA:9,8
DA:10,8
DA:11,8
DA:12,8
DA:13,8
DA:14,8
DA:15,8
BRF:0
BRH:0
LF:8
LH:8
end_of_record
SF:/home/jesse/ry/crates/ryo3-fnv/src/lib.rs
FN:116,_RNvCs6DQHkTO1FLp_8ryo3_fnv5fnv1a
FN:120,_RNvCs6DQHkTO1FLp_8ryo3_fnv9pymod_add
FN:16,_RNvMCs6DQHkTO1FLp_8ryo3_fnvNtB2_11PyFnvHasher6finish
FN:54,_RNvMs9_Cs6DQHkTO1FLp_8ryo3_fnvNtB5_11PyFnvHasher10block_size
FN:49,_RNvMs9_Cs6DQHkTO1FLp_8ryo3_fnvNtB5_11PyFnvHasher11digest_size
FN:60,_RNvMs9_Cs6DQHkTO1FLp_8ryo3_fnvNtB5_11PyFnvHasher14___getnewargs__
FN:109,_RNvMs9_Cs6DQHkTO1FLp_8ryo3_fnvNtB5_11PyFnvHasher4copy
FN:79,_RNvMs9_Cs6DQHkTO1FLp_8ryo3_fnvNtB5_11PyFnvHasher4name
FN:87,_RNvMs9_Cs6DQHkTO1FLp_8ryo3_fnvNtB5_11PyFnvHasher6digest
FN:31,_RNvMs9_Cs6DQHkTO1FLp_8ryo3_fnvNtB5_11PyFnvHasher6py_new
FN:98,_RNvMs9_Cs6DQHkTO1FLp_8ryo3_fnvNtB5_11PyFnvHasher6update
FN:70,_RNvMs9_Cs6DQHkTO1FLp_8ryo3_fnvNtB5_11PyFnvHasher7___str__
FN:74,_RNvMs9_Cs6DQHkTO1FLp_8ryo3_fnvNtB5_11PyFnvHasher8___repr__
FN:92,_RNvMs9_Cs6DQHkTO1FLp_8ryo3_fnvNtB5_11PyFnvHasher9hexdigest
FN:83,_RNvMs9_Cs6DQHkTO1FLp_8ryo3_fnvNtB5_11PyFnvHasher9intdigest
FN:27,_RNvMsb_Cs6DQHkTO1FLp_8ryo3_fnvNtB5_11PyFnvHasher17___pymethod_copy__
FN:27,_RNvMsb_Cs6DQHkTO1FLp_8ryo3_fnvNtB5_11PyFnvHasher19___pymethod_digest__
FN:27,_RNvMsb_Cs6DQHkTO1FLp_8ryo3_fnvNtB5_11PyFnvHasher20___pymethod___str____
FN:27,_RNvMsb_Cs6DQHkTO1FLp_8ryo3_fnvNtB5_11PyFnvHasher21___pymethod___repr____
FN:27,_RNvMsb_Cs6DQHkTO1FLp_8ryo3_fnvNtB5_11PyFnvHasher22___pymethod_hexdigest__
FN:27,_RNvMsb_Cs6DQHkTO1FLp_8ryo3_fnvNtB5_11PyFnvHasher22___pymethod_intdigest__
FN:27,_RNvMsb_Cs6DQHkTO1FLp_8ryo3_fnvNtB5_11PyFnvHasher27___pymethod___getnewargs____
FN:22,_RNvXs_Cs6DQHkTO1FLp_8ryo3_fnvNtB4_11PyFnvHasherINtNtCs66KPHxksi63_4core7convert4FromNtCs1utYeZj489c_3fnv9FnvHasherE4from
FNDA:247,_RNvCs6DQHkTO1FLp_8ryo3_fnv5fnv1a
FNDA:8,_RNvCs6DQHkTO1FLp_8ryo3_fnv9pymod_add
FNDA:614,_RNvMCs6DQHkTO1FLp_8ryo3_fnvNtB2_11PyFnvHasher6finish
FNDA:8,_RNvMs9_Cs6DQHkTO1FLp_8ryo3_fnvNtB5_11PyFnvHasher10block_size
FNDA:8,_RNvMs9_Cs6DQHkTO1FLp_8ryo3_fnvNtB5_11PyFnvHasher11digest_size
FNDA:0,_RNvMs9_Cs6DQHkTO1FLp_8ryo3_fnvNtB5_11PyFnvHasher14___getnewargs__
FNDA:1,_RNvMs9_Cs6DQHkTO1FLp_8ryo3_fnvNtB5_11PyFnvHasher4copy
FNDA:8,_RNvMs9_Cs6DQHkTO1FLp_8ryo3_fnvNtB5_11PyFnvHasher4name
FNDA:2,_RNvMs9_Cs6DQHkTO1FLp_8ryo3_fnvNtB5_11PyFnvHasher6digest
FNDA:491,_RNvMs9_Cs6DQHkTO1FLp_8ryo3_fnvNtB5_11PyFnvHasher6py_new
FNDA:124,_RNvMs9_Cs6DQHkTO1FLp_8ryo3_fnvNtB5_11PyFnvHasher6update
FNDA:0,_RNvMs9_Cs6DQHkTO1FLp_8ryo3_fnvNtB5_11PyFnvHasher7___str__
FNDA:0,_RNvMs9_Cs6DQHkTO1FLp_8ryo3_fnvNtB5_11PyFnvHasher8___repr__
FNDA:242,_RNvMs9_Cs6DQHkTO1FLp_8ryo3_fnvNtB5_11PyFnvHasher9hexdigest
FNDA:369,_RNvMs9_Cs6DQHkTO1FLp_8ryo3_fnvNtB5_11PyFnvHasher9intdigest
FNDA:0,_RNvMsb_Cs6DQHkTO1FLp_8ryo3_fnvNtB5_11PyFnvHasher17___pymethod_copy__
FNDA:0,_RNvMsb_Cs6DQHkTO1FLp_8ryo3_fnvNtB5_11PyFnvHasher19___pymethod_digest__
FNDA:0,_RNvMsb_Cs6DQHkTO1FLp_8ryo3_fnvNtB5_11PyFnvHasher20___pymethod___str____
FNDA:0,_RNvMsb_Cs6DQHkTO1FLp_8ryo3_fnvNtB5_11PyFnvHasher21___pymethod___repr____
FNDA:0,_RNvMsb_Cs6DQHkTO1FLp_8ryo3_fnvNtB5_11PyFnvHasher22___pymethod_hexdigest__
FNDA:0,_RNvMsb_Cs6DQHkTO1FLp_8ryo3_fnvNtB5_11PyFnvHasher22___pymethod_intdigest__
FNDA:0,_RNvMsb_Cs6DQHkTO1FLp_8ryo3_fnvNtB5_11PyFnvHasher27___pymethod___getnewargs____
FNDA:492,_RNvXs_Cs6DQHkTO1FLp_8ryo3_fnvNtB4_11PyFnvHasherINtNtCs66KPHxksi63_4core7convert4FromNtCs1utYeZj489c_3fnv9FnvHasherE4from
FNF:17
FNH:13
DA:16,614
DA:17,614
DA:18,614
DA:22,492
DA:23,492
DA:24,492
DA:27,0
DA:31,491
DA:32,491
DA:33,0
DA:34,0
DA:35,0
DA:36,0
DA:38,0
DA:39,368
DA:40,368
DA:41,368
DA:42,368
DA:44,123
DA:46,491
DA:49,8
DA:50,8
DA:51,8
DA:54,8
DA:57,8
DA:58,8
DA:60,0
DA:61,0
DA:62,0
DA:64,0
DA:65,0
DA:68,0
DA:70,0
DA:71,0
DA:72,0
DA:74,0
DA:75,0
DA:76,0
DA:79,8
DA:80,8
DA:81,8
DA:83,369
DA:84,369
DA:85,369
DA:87,2
DA:88,2
DA:89,2
DA:90,2
DA:92,242
DA:94,242
DA:95,242
DA:98,124
DA:99,124
DA:100,124
DA:101,124
DA:103,0
DA:104,0
DA:105,0
DA:107,124
DA:109,1
DA:110,1
DA:111,1
DA:116,247
DA:117,247
DA:118,247
DA:120,8
DA:121,8
DA:122,8
DA:123,8
DA:124,8
BRF:0
BRH:0
LF:70
LH:49
end_of_record
SF:/home/jesse/ry/crates/ryo3-fspath/src/fspath.rs
FN:28,_RINvMNtCsatH6JTyZaMN_11ryo3_fspath6fspathNtB3_8PyFsPath3newNtNtCs8Ty2CzGA6U3_5alloc6string6StringECs6myCTDfRRSF_4ryo3
FN:52,_RINvNtCsatH6JTyZaMN_11ryo3_fspath6fspath8path2strRNtNtCsiKSG5X70Gj7_3std4path4PathEB4_
FN:612,_RNCNvMsf_NtCsatH6JTyZaMN_11ryo3_fspath6fspathNtB7_8PyFsPath10components0B9_
FN:646,_RNCNvMsf_NtCsatH6JTyZaMN_11ryo3_fspath6fspathNtB7_8PyFsPath11file_prefix0B9_
FN:712,_RNCNvMsf_NtCsatH6JTyZaMN_11ryo3_fspath6fspathNtB7_8PyFsPath12strip_prefix0B9_
FN:719,_RNCNvMsf_NtCsatH6JTyZaMN_11ryo3_fspath6fspathNtB7_8PyFsPath16symlink_metadata0B9_
FN:316,_RNCNvMsf_NtCsatH6JTyZaMN_11ryo3_fspath6fspathNtB7_8PyFsPath3cwd0B9_
FN:173,_RNCNvMsf_NtCsatH6JTyZaMN_11ryo3_fspath6fspathNtB7_8PyFsPath4root0B9_
FN:301,_RNCNvMsf_NtCsatH6JTyZaMN_11ryo3_fspath6fspathNtB7_8PyFsPath4stem0B9_
FN:302,_RNCNvMsf_NtCsatH6JTyZaMN_11ryo3_fspath6fspathNtB7_8PyFsPath4stems_0B9_
FN:413,_RNCNvMsf_NtCsatH6JTyZaMN_11ryo3_fspath6fspathNtB7_8PyFsPath5mkdir0B9_
FN:428,_RNCNvMsf_NtCsatH6JTyZaMN_11ryo3_fspath6fspathNtB7_8PyFsPath5mkdirs0_0B9_
FN:433,_RNCNvMsf_NtCsatH6JTyZaMN_11ryo3_fspath6fspathNtB7_8PyFsPath5mkdirs1_0B9_
FN:418,_RNCNvMsf_NtCsatH6JTyZaMN_11ryo3_fspath6fspathNtB7_8PyFsPath5mkdirs_0B9_
FN:237,_RNCNvMsf_NtCsatH6JTyZaMN_11ryo3_fspath6fspathNtB7_8PyFsPath5parts0B9_
FN:456,_RNCNvMsf_NtCsatH6JTyZaMN_11ryo3_fspath6fspathNtB7_8PyFsPath5rmdir0B9_
FN:461,_RNCNvMsf_NtCsatH6JTyZaMN_11ryo3_fspath6fspathNtB7_8PyFsPath5rmdirs_0B9_
FN:757,_RNCNvMsf_NtCsatH6JTyZaMN_11ryo3_fspath6fspathNtB7_8PyFsPath5which0B9_
FN:628,_RNCNvMsf_NtCsatH6JTyZaMN_11ryo3_fspath6fspathNtB7_8PyFsPath6exists0B9_
FN:502,_RNCNvMsf_NtCsatH6JTyZaMN_11ryo3_fspath6fspathNtB7_8PyFsPath6rename0B9_
FN:483,_RNCNvMsf_NtCsatH6JTyZaMN_11ryo3_fspath6fspathNtB7_8PyFsPath6unlink0B9_
FN:522,_RNCNvMsf_NtCsatH6JTyZaMN_11ryo3_fspath6fspathNtB7_8PyFsPath7replace0B9_
FN:687,_RNCNvMsf_NtCsatH6JTyZaMN_11ryo3_fspath6fspathNtB7_8PyFsPath8metadata0B9_
FN:693,_RNCNvMsf_NtCsatH6JTyZaMN_11ryo3_fspath6fspathNtB7_8PyFsPath8read_dir0B9_
FN:791,_RNCNvMsf_NtCsatH6JTyZaMN_11ryo3_fspath6fspathNtB7_8PyFsPath8which_re0B9_
FN:634,_RNCNvMsf_NtCsatH6JTyZaMN_11ryo3_fspath6fspathNtB7_8PyFsPath9extension0B9_
FN:640,_RNCNvMsf_NtCsatH6JTyZaMN_11ryo3_fspath6fspathNtB7_8PyFsPath9file_name0B9_
FN:652,_RNCNvMsf_NtCsatH6JTyZaMN_11ryo3_fspath6fspathNtB7_8PyFsPath9file_stem0B9_
FN:701,_RNCNvMsf_NtCsatH6JTyZaMN_11ryo3_fspath6fspathNtB7_8PyFsPath9read_link0B9_
FN:355,_RNCNvMsf_NtCsatH6JTyZaMN_11ryo3_fspath6fspathNtB7_8PyFsPath9read_text0B9_
FN:774,_RNCNvMsf_NtCsatH6JTyZaMN_11ryo3_fspath6fspathNtB7_8PyFsPath9which_all0B9_
FN:851,_RNCNvMsv_NtCsatH6JTyZaMN_11ryo3_fspath6fspathNtB7_15PyFsPathReadDir4take0B9_
FN:808,_RNvXs_NtCsatH6JTyZaMN_11ryo3_fspath6fspathNtB4_8PyFsPathINtNtCs66KPHxksi63_4core7convert4FromNtNtCs8Ty2CzGA6U3_5alloc6string6StringE4fromB6_
FN:808,_RNvXs_NtCsatH6JTyZaMN_11ryo3_fspath6fspathNtB4_8PyFsPathINtNtCs66KPHxksi63_4core7convert4FromNtNtCsiKSG5X70Gj7_3std4path7PathBufE4fromB6_
FN:808,_RNvXs_NtCsatH6JTyZaMN_11ryo3_fspath6fspathNtB4_8PyFsPathINtNtCs66KPHxksi63_4core7convert4FromRNtNtCsiKSG5X70Gj7_3std4path4PathE4fromB6_
FN:808,_RNvXs_NtCsatH6JTyZaMN_11ryo3_fspath6fspathNtB4_8PyFsPathINtNtCs66KPHxksi63_4core7convert4FromRNtNtNtCsiKSG5X70Gj7_3std3ffi6os_str5OsStrE4fromB6_
FN:808,_RNvXs_NtCsatH6JTyZaMN_11ryo3_fspath6fspathNtB4_8PyFsPathINtNtCs66KPHxksi63_4core7convert4FromReE4fromB6_
FN:35,_RNvMNtCsatH6JTyZaMN_11ryo3_fspath6fspathNtB2_8PyFsPath4path
FN:143,_RNvMsf_NtCsatH6JTyZaMN_11ryo3_fspath6fspathNtB5_8PyFsPath10___fspath__
FN:608,_RNvMsf_NtCsatH6JTyZaMN_11ryo3_fspath6fspathNtB5_8PyFsPath10components
FN:675,_RNvMsf_NtCsatH6JTyZaMN_11ryo3_fspath6fspathNtB5_8PyFsPath10is_symlink
FN:341,_RNvMsf_NtCsatH6JTyZaMN_11ryo3_fspath6fspathNtB5_8PyFsPath10read_bytes
FN:92,_RNvMsf_NtCsatH6JTyZaMN_11ryo3_fspath6fspathNtB5_8PyFsPath10to_pathlib
FN:387,_RNvMsf_NtCsatH6JTyZaMN_11ryo3_fspath6fspathNtB5_8PyFsPath10write_text
FN:106,_RNvMsf_NtCsatH6JTyZaMN_11ryo3_fspath6fspathNtB5_8PyFsPath11___richcmp__
FN:153,_RNvMsf_NtCsatH6JTyZaMN_11ryo3_fspath6fspathNtB5_8PyFsPath11___truediv__
FN:643,_RNvMsf_NtCsatH6JTyZaMN_11ryo3_fspath6fspathNtB5_8PyFsPath11file_prefix
FN:659,_RNvMsf_NtCsatH6JTyZaMN_11ryo3_fspath6fspathNtB5_8PyFsPath11is_absolute
FN:671,_RNvMsf_NtCsatH6JTyZaMN_11ryo3_fspath6fspathNtB5_8PyFsPath11is_relative
FN:554,_RNvMsf_NtCsatH6JTyZaMN_11ryo3_fspath6fspathNtB5_8PyFsPath11relative_to
FN:704,_RNvMsf_NtCsatH6JTyZaMN_11ryo3_fspath6fspathNtB5_8PyFsPath11starts_with
FN:271,_RNvMsf_NtCsatH6JTyZaMN_11ryo3_fspath6fspathNtB5_8PyFsPath11with_suffix
FN:383,_RNvMsf_NtCsatH6JTyZaMN_11ryo3_fspath6fspathNtB5_8PyFsPath11write_bytes
FN:157,_RNvMsf_NtCsatH6JTyZaMN_11ryo3_fspath6fspathNtB5_8PyFsPath12___rtruediv__
FN:603,_RNvMsf_NtCsatH6JTyZaMN_11ryo3_fspath6fspathNtB5_8PyFsPath12canonicalize
FN:708,_RNvMsf_NtCsatH6JTyZaMN_11ryo3_fspath6fspathNtB5_8PyFsPath12strip_prefix
FN:69,_RNvMsf_NtCsatH6JTyZaMN_11ryo3_fspath6fspathNtB5_8PyFsPath14___getnewargs__
FN:722,_RNvMsf_NtCsatH6JTyZaMN_11ryo3_fspath6fspathNtB5_8PyFsPath14with_extension
FN:726,_RNvMsf_NtCsatH6JTyZaMN_11ryo3_fspath6fspathNtB5_8PyFsPath14with_file_name
FN:715,_RNvMsf_NtCsatH6JTyZaMN_11ryo3_fspath6fspathNtB5_8PyFsPath16symlink_metadata
FN:313,_RNvMsf_NtCsatH6JTyZaMN_11ryo3_fspath6fspathNtB5_8PyFsPath3cwd
FN:308,_RNvMsf_NtCsatH6JTyZaMN_11ryo3_fspath6fspathNtB5_8PyFsPath4home
FN:679,_RNvMsf_NtCsatH6JTyZaMN_11ryo3_fspath6fspathNtB5_8PyFsPath4join
FN:243,_RNvMsf_NtCsatH6JTyZaMN_11ryo3_fspath6fspathNtB5_8PyFsPath4name
FN:543,_RNvMsf_NtCsatH6JTyZaMN_11ryo3_fspath6fspathNtB5_8PyFsPath4open
FN:336,_RNvMsf_NtCsatH6JTyZaMN_11ryo3_fspath6fspathNtB5_8PyFsPath4read
FN:169,_RNvMsf_NtCsatH6JTyZaMN_11ryo3_fspath6fspathNtB5_8PyFsPath4root
FN:298,_RNvMsf_NtCsatH6JTyZaMN_11ryo3_fspath6fspathNtB5_8PyFsPath4stem
FN:147,_RNvMsf_NtCsatH6JTyZaMN_11ryo3_fspath6fspathNtB5_8PyFsPath5clone
FN:191,_RNvMsf_NtCsatH6JTyZaMN_11ryo3_fspath6fspathNtB5_8PyFsPath5drive
FN:87,_RNvMsf_NtCsatH6JTyZaMN_11ryo3_fspath6fspathNtB5_8PyFsPath5equiv
FN:402,_RNvMsf_NtCsatH6JTyZaMN_11ryo3_fspath6fspathNtB5_8PyFsPath5mkdir
FN:233,_RNvMsf_NtCsatH6JTyZaMN_11ryo3_fspath6fspathNtB5_8PyFsPath5parts
FN:442,_RNvMsf_NtCsatH6JTyZaMN_11ryo3_fspath6fspathNtB5_8PyFsPath5rmdir
FN:96,_RNvMsf_NtCsatH6JTyZaMN_11ryo3_fspath6fspathNtB5_8PyFsPath5to_py
FN:756,_RNvMsf_NtCsatH6JTyZaMN_11ryo3_fspath6fspathNtB5_8PyFsPath5which
FN:369,_RNvMsf_NtCsatH6JTyZaMN_11ryo3_fspath6fspathNtB5_8PyFsPath5write
FN:196,_RNvMsf_NtCsatH6JTyZaMN_11ryo3_fspath6fspathNtB5_8PyFsPath6anchor
FN:529,_RNvMsf_NtCsatH6JTyZaMN_11ryo3_fspath6fspathNtB5_8PyFsPath6as_uri
FN:625,_RNvMsf_NtCsatH6JTyZaMN_11ryo3_fspath6fspathNtB5_8PyFsPath6exists
FN:663,_RNvMsf_NtCsatH6JTyZaMN_11ryo3_fspath6fspathNtB5_8PyFsPath6is_dir
FN:208,_RNvMsf_NtCsatH6JTyZaMN_11ryo3_fspath6fspathNtB5_8PyFsPath6parent
FN:62,_RNvMsf_NtCsatH6JTyZaMN_11ryo3_fspath6fspathNtB5_8PyFsPath6py_new
FN:491,_RNvMsf_NtCsatH6JTyZaMN_11ryo3_fspath6fspathNtB5_8PyFsPath6rename
FN:74,_RNvMsf_NtCsatH6JTyZaMN_11ryo3_fspath6fspathNtB5_8PyFsPath6string
FN:256,_RNvMsf_NtCsatH6JTyZaMN_11ryo3_fspath6fspathNtB5_8PyFsPath6suffix
FN:470,_RNvMsf_NtCsatH6JTyZaMN_11ryo3_fspath6fspathNtB5_8PyFsPath6unlink
FN:78,_RNvMsf_NtCsatH6JTyZaMN_11ryo3_fspath6fspathNtB5_8PyFsPath7___str__
FN:617,_RNvMsf_NtCsatH6JTyZaMN_11ryo3_fspath6fspathNtB5_8PyFsPath7display
FN:667,_RNvMsf_NtCsatH6JTyZaMN_11ryo3_fspath6fspathNtB5_8PyFsPath7is_file
FN:535,_RNvMsf_NtCsatH6JTyZaMN_11ryo3_fspath6fspathNtB5_8PyFsPath7iterdir
FN:227,_RNvMsf_NtCsatH6JTyZaMN_11ryo3_fspath6fspathNtB5_8PyFsPath7parents
FN:509,_RNvMsf_NtCsatH6JTyZaMN_11ryo3_fspath6fspathNtB5_8PyFsPath7replace
FN:138,_RNvMsf_NtCsatH6JTyZaMN_11ryo3_fspath6fspathNtB5_8PyFsPath7resolve
FN:100,_RNvMsf_NtCsatH6JTyZaMN_11ryo3_fspath6fspathNtB5_8PyFsPath8___hash__
FN:82,_RNvMsf_NtCsatH6JTyZaMN_11ryo3_fspath6fspathNtB5_8PyFsPath8___repr__
FN:133,_RNvMsf_NtCsatH6JTyZaMN_11ryo3_fspath6fspathNtB5_8PyFsPath8absolute
FN:319,_RNvMsf_NtCsatH6JTyZaMN_11ryo3_fspath6fspathNtB5_8PyFsPath8as_posix
FN:655,_RNvMsf_NtCsatH6JTyZaMN_11ryo3_fspath6fspathNtB5_8PyFsPath8has_root
FN:331,_RNvMsf_NtCsatH6JTyZaMN_11ryo3_fspath6fspathNtB5_8PyFsPath8joinpath
FN:683,_RNvMsf_NtCsatH6JTyZaMN_11ryo3_fspath6fspathNtB5_8PyFsPath8metadata
FN:690,_RNvMsf_NtCsatH6JTyZaMN_11ryo3_fspath6fspathNtB5_8PyFsPath8read_dir
FN:739,_RNvMsf_NtCsatH6JTyZaMN_11ryo3_fspath6fspathNtB5_8PyFsPath8samefile
FN:283,_RNvMsf_NtCsatH6JTyZaMN_11ryo3_fspath6fspathNtB5_8PyFsPath8suffixes
FN:789,_RNvMsf_NtCsatH6JTyZaMN_11ryo3_fspath6fspathNtB5_8PyFsPath8which_re
FN:162,_RNvMsf_NtCsatH6JTyZaMN_11ryo3_fspath6fspathNtB5_8PyFsPath9___bytes__
FN:598,_RNvMsf_NtCsatH6JTyZaMN_11ryo3_fspath6fspathNtB5_8PyFsPath9ancestors
FN:621,_RNvMsf_NtCsatH6JTyZaMN_11ryo3_fspath6fspathNtB5_8PyFsPath9ends_with
FN:631,_RNvMsf_NtCsatH6JTyZaMN_11ryo3_fspath6fspathNtB5_8PyFsPath9extension
FN:637,_RNvMsf_NtCsatH6JTyZaMN_11ryo3_fspath6fspathNtB5_8PyFsPath9file_name
FN:649,_RNvMsf_NtCsatH6JTyZaMN_11ryo3_fspath6fspathNtB5_8PyFsPath9file_stem
FN:697,_RNvMsf_NtCsatH6JTyZaMN_11ryo3_fspath6fspathNtB5_8PyFsPath9read_link
FN:354,_RNvMsf_NtCsatH6JTyZaMN_11ryo3_fspath6fspathNtB5_8PyFsPath9read_text
FN:772,_RNvMsf_NtCsatH6JTyZaMN_11ryo3_fspath6fspathNtB5_8PyFsPath9which_all
FN:250,_RNvMsf_NtCsatH6JTyZaMN_11ryo3_fspath6fspathNtB5_8PyFsPath9with_name
FN:58,_RNvMsl_NtCsatH6JTyZaMN_11ryo3_fspath6fspathNtB5_8PyFsPath17___pymethod_read__
FN:58,_RNvMsl_NtCsatH6JTyZaMN_11ryo3_fspath6fspathNtB5_8PyFsPath18___pymethod_clone__
FN:58,_RNvMsl_NtCsatH6JTyZaMN_11ryo3_fspath6fspathNtB5_8PyFsPath18___pymethod_to_py__
FN:58,_RNvMsl_NtCsatH6JTyZaMN_11ryo3_fspath6fspathNtB5_8PyFsPath19___pymethod_as_uri__
FN:58,_RNvMsl_NtCsatH6JTyZaMN_11ryo3_fspath6fspathNtB5_8PyFsPath19___pymethod_exists__
FN:58,_RNvMsl_NtCsatH6JTyZaMN_11ryo3_fspath6fspathNtB5_8PyFsPath19___pymethod_is_dir__
FN:58,_RNvMsl_NtCsatH6JTyZaMN_11ryo3_fspath6fspathNtB5_8PyFsPath19___pymethod_string__
FN:58,_RNvMsl_NtCsatH6JTyZaMN_11ryo3_fspath6fspathNtB5_8PyFsPath20___pymethod___str____
FN:58,_RNvMsl_NtCsatH6JTyZaMN_11ryo3_fspath6fspathNtB5_8PyFsPath20___pymethod_display__
FN:58,_RNvMsl_NtCsatH6JTyZaMN_11ryo3_fspath6fspathNtB5_8PyFsPath20___pymethod_is_file__
FN:58,_RNvMsl_NtCsatH6JTyZaMN_11ryo3_fspath6fspathNtB5_8PyFsPath20___pymethod_iterdir__
FN:58,_RNvMsl_NtCsatH6JTyZaMN_11ryo3_fspath6fspathNtB5_8PyFsPath20___pymethod_resolve__
FN:58,_RNvMsl_NtCsatH6JTyZaMN_11ryo3_fspath6fspathNtB5_8PyFsPath21___pymethod___hash____
FN:58,_RNvMsl_NtCsatH6JTyZaMN_11ryo3_fspath6fspathNtB5_8PyFsPath21___pymethod___repr____
FN:58,_RNvMsl_NtCsatH6JTyZaMN_11ryo3_fspath6fspathNtB5_8PyFsPath21___pymethod_absolute__
FN:58,_RNvMsl_NtCsatH6JTyZaMN_11ryo3_fspath6fspathNtB5_8PyFsPath21___pymethod_as_posix__
FN:58,_RNvMsl_NtCsatH6JTyZaMN_11ryo3_fspath6fspathNtB5_8PyFsPath21___pymethod_get_name__
FN:58,_RNvMsl_NtCsatH6JTyZaMN_11ryo3_fspath6fspathNtB5_8PyFsPath21___pymethod_get_root__
FN:58,_RNvMsl_NtCsatH6JTyZaMN_11ryo3_fspath6fspathNtB5_8PyFsPath21___pymethod_get_stem__
FN:58,_RNvMsl_NtCsatH6JTyZaMN_11ryo3_fspath6fspathNtB5_8PyFsPath21___pymethod_has_root__
FN:58,_RNvMsl_NtCsatH6JTyZaMN_11ryo3_fspath6fspathNtB5_8PyFsPath21___pymethod_metadata__
FN:58,_RNvMsl_NtCsatH6JTyZaMN_11ryo3_fspath6fspathNtB5_8PyFsPath21___pymethod_read_dir__
FN:58,_RNvMsl_NtCsatH6JTyZaMN_11ryo3_fspath6fspathNtB5_8PyFsPath22___pymethod___bytes____
FN:58,_RNvMsl_NtCsatH6JTyZaMN_11ryo3_fspath6fspathNtB5_8PyFsPath22___pymethod_ancestors__
FN:58,_RNvMsl_NtCsatH6JTyZaMN_11ryo3_fspath6fspathNtB5_8PyFsPath22___pymethod_extension__
FN:58,_RNvMsl_NtCsatH6JTyZaMN_11ryo3_fspath6fspathNtB5_8PyFsPath22___pymethod_file_name__
FN:58,_RNvMsl_NtCsatH6JTyZaMN_11ryo3_fspath6fspathNtB5_8PyFsPath22___pymethod_file_stem__
FN:58,_RNvMsl_NtCsatH6JTyZaMN_11ryo3_fspath6fspathNtB5_8PyFsPath22___pymethod_get_drive__
FN:58,_RNvMsl_NtCsatH6JTyZaMN_11ryo3_fspath6fspathNtB5_8PyFsPath22___pymethod_get_parts__
FN:58,_RNvMsl_NtCsatH6JTyZaMN_11ryo3_fspath6fspathNtB5_8PyFsPath22___pymethod_read_link__
FN:58,_RNvMsl_NtCsatH6JTyZaMN_11ryo3_fspath6fspathNtB5_8PyFsPath22___pymethod_read_text__
FN:58,_RNvMsl_NtCsatH6JTyZaMN_11ryo3_fspath6fspathNtB5_8PyFsPath23___pymethod___fspath____
FN:58,_RNvMsl_NtCsatH6JTyZaMN_11ryo3_fspath6fspathNtB5_8PyFsPath23___pymethod_components__
FN:58,_RNvMsl_NtCsatH6JTyZaMN_11ryo3_fspath6fspathNtB5_8PyFsPath23___pymethod_get_anchor__
FN:58,_RNvMsl_NtCsatH6JTyZaMN_11ryo3_fspath6fspathNtB5_8PyFsPath23___pymethod_get_parent__
FN:58,_RNvMsl_NtCsatH6JTyZaMN_11ryo3_fspath6fspathNtB5_8PyFsPath23___pymethod_get_suffix__
FN:58,_RNvMsl_NtCsatH6JTyZaMN_11ryo3_fspath6fspathNtB5_8PyFsPath23___pymethod_is_symlink__
FN:58,_RNvMsl_NtCsatH6JTyZaMN_11ryo3_fspath6fspathNtB5_8PyFsPath23___pymethod_read_bytes__
FN:58,_RNvMsl_NtCsatH6JTyZaMN_11ryo3_fspath6fspathNtB5_8PyFsPath23___pymethod_to_pathlib__
FN:58,_RNvMsl_NtCsatH6JTyZaMN_11ryo3_fspath6fspathNtB5_8PyFsPath24___pymethod_file_prefix__
FN:58,_RNvMsl_NtCsatH6JTyZaMN_11ryo3_fspath6fspathNtB5_8PyFsPath24___pymethod_get_parents__
FN:58,_RNvMsl_NtCsatH6JTyZaMN_11ryo3_fspath6fspathNtB5_8PyFsPath24___pymethod_is_absolute__
FN:58,_RNvMsl_NtCsatH6JTyZaMN_11ryo3_fspath6fspathNtB5_8PyFsPath24___pymethod_is_relative__
FN:58,_RNvMsl_NtCsatH6JTyZaMN_11ryo3_fspath6fspathNtB5_8PyFsPath25___pymethod_canonicalize__
FN:58,_RNvMsl_NtCsatH6JTyZaMN_11ryo3_fspath6fspathNtB5_8PyFsPath25___pymethod_get_suffixes__
FN:58,_RNvMsl_NtCsatH6JTyZaMN_11ryo3_fspath6fspathNtB5_8PyFsPath27___pymethod___getnewargs____
FN:58,_RNvMsl_NtCsatH6JTyZaMN_11ryo3_fspath6fspathNtB5_8PyFsPath29___pymethod_symlink_metadata__
FN:846,_RNvMsv_NtCsatH6JTyZaMN_11ryo3_fspath6fspathNtB5_15PyFsPathReadDir4take
FN:834,_RNvMsv_NtCsatH6JTyZaMN_11ryo3_fspath6fspathNtB5_15PyFsPathReadDir7collect
FN:822,_RNvMsv_NtCsatH6JTyZaMN_11ryo3_fspath6fspathNtB5_15PyFsPathReadDir8___iter__
FN:826,_RNvMsv_NtCsatH6JTyZaMN_11ryo3_fspath6fspathNtB5_15PyFsPathReadDir8___next__
FN:820,_RNvMsx_NtCsatH6JTyZaMN_11ryo3_fspath6fspathNtB5_15PyFsPathReadDir20___pymethod_collect__
FN:820,_RNvMsx_NtCsatH6JTyZaMN_11ryo3_fspath6fspathNtB5_15PyFsPathReadDir21___pymethod___iter____
FN:860,_RNvXs0_NtCsatH6JTyZaMN_11ryo3_fspath6fspathNtB5_15PyFsPathReadDirINtNtCs66KPHxksi63_4core7convert4FromNtNtCsiKSG5X70Gj7_3std2fs7ReadDirE4from
FN:28,_RINvMNtCsatH6JTyZaMN_11ryo3_fspath6fspathNtB3_8PyFsPath3newpEB5_
FNDA:4,_RINvMNtCsatH6JTyZaMN_11ryo3_fspath6fspathNtB3_8PyFsPath3newNtNtCs8Ty2CzGA6U3_5alloc6string6StringECs6myCTDfRRSF_4ryo3
FNDA:8,_RINvNtCsatH6JTyZaMN_11ryo3_fspath6fspath8path2strRNtNtCsiKSG5X70Gj7_3std4path4PathEB4_
FNDA:0,_RNCNvMsf_NtCsatH6JTyZaMN_11ryo3_fspath6fspathNtB7_8PyFsPath10components0B9_
FNDA:0,_RNCNvMsf_NtCsatH6JTyZaMN_11ryo3_fspath6fspathNtB7_8PyFsPath11file_prefix0B9_
FNDA:0,_RNCNvMsf_NtCsatH6JTyZaMN_11ryo3_fspath6fspathNtB7_8PyFsPath12strip_prefix0B9_
FNDA:0,_RNCNvMsf_NtCsatH6JTyZaMN_11ryo3_fspath6fspathNtB7_8PyFsPath16symlink_metadata0B9_
FNDA:0,_RNCNvMsf_NtCsatH6JTyZaMN_11ryo3_fspath6fspathNtB7_8PyFsPath3cwd0B9_
FNDA:1,_RNCNvMsf_NtCsatH6JTyZaMN_11ryo3_fspath6fspathNtB7_8PyFsPath4root0B9_
FNDA:1,_RNCNvMsf_NtCsatH6JTyZaMN_11ryo3_fspath6fspathNtB7_8PyFsPath4stem0B9_
FNDA:0,_RNCNvMsf_NtCsatH6JTyZaMN_11ryo3_fspath6fspathNtB7_8PyFsPath4stems_0B9_
FNDA:0,_RNCNvMsf_NtCsatH6JTyZaMN_11ryo3_fspath6fspathNtB7_8PyFsPath5mkdir0B9_
FNDA:0,_RNCNvMsf_NtCsatH6JTyZaMN_11ryo3_fspath6fspathNtB7_8PyFsPath5mkdirs0_0B9_
FNDA:0,_RNCNvMsf_NtCsatH6JTyZaMN_11ryo3_fspath6fspathNtB7_8PyFsPath5mkdirs1_0B9_
FNDA:0,_RNCNvMsf_NtCsatH6JTyZaMN_11ryo3_fspath6fspathNtB7_8PyFsPath5mkdirs_0B9_
FNDA:9,_RNCNvMsf_NtCsatH6JTyZaMN_11ryo3_fspath6fspathNtB7_8PyFsPath5parts0B9_
FNDA:0,_RNCNvMsf_NtCsatH6JTyZaMN_11ryo3_fspath6fspathNtB7_8PyFsPath5rmdir0B9_
FNDA:0,_RNCNvMsf_NtCsatH6JTyZaMN_11ryo3_fspath6fspathNtB7_8PyFsPath5rmdirs_0B9_
FNDA:0,_RNCNvMsf_NtCsatH6JTyZaMN_11ryo3_fspath6fspathNtB7_8PyFsPath5which0B9_
FNDA:0,_RNCNvMsf_NtCsatH6JTyZaMN_11ryo3_fspath6fspathNtB7_8PyFsPath6exists0B9_
FNDA:0,_RNCNvMsf_NtCsatH6JTyZaMN_11ryo3_fspath6fspathNtB7_8PyFsPath6rename0B9_
FNDA:0,_RNCNvMsf_NtCsatH6JTyZaMN_11ryo3_fspath6fspathNtB7_8PyFsPath6unlink0B9_
FNDA:0,_RNCNvMsf_NtCsatH6JTyZaMN_11ryo3_fspath6fspathNtB7_8PyFsPath7replace0B9_
FNDA:0,_RNCNvMsf_NtCsatH6JTyZaMN_11ryo3_fspath6fspathNtB7_8PyFsPath8metadata0B9_
FNDA:0,_RNCNvMsf_NtCsatH6JTyZaMN_11ryo3_fspath6fspathNtB7_8PyFsPath8read_dir0B9_
FNDA:0,_RNCNvMsf_NtCsatH6JTyZaMN_11ryo3_fspath6fspathNtB7_8PyFsPath8which_re0B9_
FNDA:0,_RNCNvMsf_NtCsatH6JTyZaMN_11ryo3_fspath6fspathNtB7_8PyFsPath9extension0B9_
FNDA:0,_RNCNvMsf_NtCsatH6JTyZaMN_11ryo3_fspath6fspathNtB7_8PyFsPath9file_name0B9_
FNDA:0,_RNCNvMsf_NtCsatH6JTyZaMN_11ryo3_fspath6fspathNtB7_8PyFsPath9file_stem0B9_
FNDA:0,_RNCNvMsf_NtCsatH6JTyZaMN_11ryo3_fspath6fspathNtB7_8PyFsPath9read_link0B9_
FNDA:0,_RNCNvMsf_NtCsatH6JTyZaMN_11ryo3_fspath6fspathNtB7_8PyFsPath9read_text0B9_
FNDA:0,_RNCNvMsf_NtCsatH6JTyZaMN_11ryo3_fspath6fspathNtB7_8PyFsPath9which_all0B9_
FNDA:0,_RNCNvMsv_NtCsatH6JTyZaMN_11ryo3_fspath6fspathNtB7_15PyFsPathReadDir4take0B9_
FNDA:0,_RNvXs_NtCsatH6JTyZaMN_11ryo3_fspath6fspathNtB4_8PyFsPathINtNtCs66KPHxksi63_4core7convert4FromNtNtCs8Ty2CzGA6U3_5alloc6string6StringE4fromB6_
FNDA:80,_RNvXs_NtCsatH6JTyZaMN_11ryo3_fspath6fspathNtB4_8PyFsPathINtNtCs66KPHxksi63_4core7convert4FromNtNtCsiKSG5X70Gj7_3std4path7PathBufE4fromB6_
FNDA:0,_RNvXs_NtCsatH6JTyZaMN_11ryo3_fspath6fspathNtB4_8PyFsPathINtNtCs66KPHxksi63_4core7convert4FromRNtNtCsiKSG5X70Gj7_3std4path4PathE4fromB6_
FNDA:1,_RNvXs_NtCsatH6JTyZaMN_11ryo3_fspath6fspathNtB4_8PyFsPathINtNtCs66KPHxksi63_4core7convert4FromRNtNtNtCsiKSG5X70Gj7_3std3ffi6os_str5OsStrE4fromB6_
FNDA:6,_RNvXs_NtCsatH6JTyZaMN_11ryo3_fspath6fspathNtB4_8PyFsPathINtNtCs66KPHxksi63_4core7convert4FromReE4fromB6_
FNDA:114,_RNvMNtCsatH6JTyZaMN_11ryo3_fspath6fspathNtB2_8PyFsPath4path
FNDA:22,_RNvMsf_NtCsatH6JTyZaMN_11ryo3_fspath6fspathNtB5_8PyFsPath10___fspath__
FNDA:0,_RNvMsf_NtCsatH6JTyZaMN_11ryo3_fspath6fspathNtB5_8PyFsPath10components
FNDA:0,_RNvMsf_NtCsatH6JTyZaMN_11ryo3_fspath6fspathNtB5_8PyFsPath10is_symlink
FNDA:3,_RNvMsf_NtCsatH6JTyZaMN_11ryo3_fspath6fspathNtB5_8PyFsPath10read_bytes
FNDA:1,_RNvMsf_NtCsatH6JTyZaMN_11ryo3_fspath6fspathNtB5_8PyFsPath10to_pathlib
FNDA:2,_RNvMsf_NtCsatH6JTyZaMN_11ryo3_fspath6fspathNtB5_8PyFsPath10write_text
FNDA:25,_RNvMsf_NtCsatH6JTyZaMN_11ryo3_fspath6fspathNtB5_8PyFsPath11___richcmp__
FNDA:4,_RNvMsf_NtCsatH6JTyZaMN_11ryo3_fspath6fspathNtB5_8PyFsPath11___truediv__
FNDA:0,_RNvMsf_NtCsatH6JTyZaMN_11ryo3_fspath6fspathNtB5_8PyFsPath11file_prefix
FNDA:0,_RNvMsf_NtCsatH6JTyZaMN_11ryo3_fspath6fspathNtB5_8PyFsPath11is_absolute
FNDA:0,_RNvMsf_NtCsatH6JTyZaMN_11ryo3_fspath6fspathNtB5_8PyFsPath11is_relative
FNDA:1,_RNvMsf_NtCsatH6JTyZaMN_11ryo3_fspath6fspathNtB5_8PyFsPath11relative_to
FNDA:0,_RNvMsf_NtCsatH6JTyZaMN_11ryo3_fspath6fspathNtB5_8PyFsPath11starts_with
FNDA:1,_RNvMsf_NtCsatH6JTyZaMN_11ryo3_fspath6fspathNtB5_8PyFsPath11with_suffix
FNDA:1,_RNvMsf_NtCsatH6JTyZaMN_11ryo3_fspath6fspathNtB5_8PyFsPath11write_bytes
FNDA:1,_RNvMsf_NtCsatH6JTyZaMN_11ryo3_fspath6fspathNtB5_8PyFsPath12___rtruediv__
FNDA:0,_RNvMsf_NtCsatH6JTyZaMN_11ryo3_fspath6fspathNtB5_8PyFsPath12canonicalize
FNDA:0,_RNvMsf_NtCsatH6JTyZaMN_11ryo3_fspath6fspathNtB5_8PyFsPath12strip_prefix
FNDA:1,_RNvMsf_NtCsatH6JTyZaMN_11ryo3_fspath6fspathNtB5_8PyFsPath14___getnewargs__
FNDA:0,_RNvMsf_NtCsatH6JTyZaMN_11ryo3_fspath6fspathNtB5_8PyFsPath14with_extension
FNDA:0,_RNvMsf_NtCsatH6JTyZaMN_11ryo3_fspath6fspathNtB5_8PyFsPath14with_file_name
FNDA:0,_RNvMsf_NtCsatH6JTyZaMN_11ryo3_fspath6fspathNtB5_8PyFsPath16symlink_metadata
FNDA:2,_RNvMsf_NtCsatH6JTyZaMN_11ryo3_fspath6fspathNtB5_8PyFsPath3cwd
FNDA:0,_RNvMsf_NtCsatH6JTyZaMN_11ryo3_fspath6fspathNtB5_8PyFsPath4home
FNDA:0,_RNvMsf_NtCsatH6JTyZaMN_11ryo3_fspath6fspathNtB5_8PyFsPath4join
FNDA:0,_RNvMsf_NtCsatH6JTyZaMN_11ryo3_fspath6fspathNtB5_8PyFsPath4name
FNDA:0,_RNvMsf_NtCsatH6JTyZaMN_11ryo3_fspath6fspathNtB5_8PyFsPath4open
FNDA:3,_RNvMsf_NtCsatH6JTyZaMN_11ryo3_fspath6fspathNtB5_8PyFsPath4read
FNDA:1,_RNvMsf_NtCsatH6JTyZaMN_11ryo3_fspath6fspathNtB5_8PyFsPath4root
FNDA:1,_RNvMsf_NtCsatH6JTyZaMN_11ryo3_fspath6fspathNtB5_8PyFsPath4stem
FNDA:0,_RNvMsf_NtCsatH6JTyZaMN_11ryo3_fspath6fspathNtB5_8PyFsPath5clone
FNDA:0,_RNvMsf_NtCsatH6JTyZaMN_11ryo3_fspath6fspathNtB5_8PyFsPath5drive
FNDA:0,_RNvMsf_NtCsatH6JTyZaMN_11ryo3_fspath6fspathNtB5_8PyFsPath5equiv
FNDA:0,_RNvMsf_NtCsatH6JTyZaMN_11ryo3_fspath6fspathNtB5_8PyFsPath5mkdir
FNDA:3,_RNvMsf_NtCsatH6JTyZaMN_11ryo3_fspath6fspathNtB5_8PyFsPath5parts
FNDA:0,_RNvMsf_NtCsatH6JTyZaMN_11ryo3_fspath6fspathNtB5_8PyFsPath5rmdir
FNDA:1,_RNvMsf_NtCsatH6JTyZaMN_11ryo3_fspath6fspathNtB5_8PyFsPath5to_py
FNDA:0,_RNvMsf_NtCsatH6JTyZaMN_11ryo3_fspath6fspathNtB5_8PyFsPath5which
FNDA:3,_RNvMsf_NtCsatH6JTyZaMN_11ryo3_fspath6fspathNtB5_8PyFsPath5write
FNDA:0,_RNvMsf_NtCsatH6JTyZaMN_11ryo3_fspath6fspathNtB5_8PyFsPath6anchor
FNDA:0,_RNvMsf_NtCsatH6JTyZaMN_11ryo3_fspath6fspathNtB5_8PyFsPath6as_uri
FNDA:1,_RNvMsf_NtCsatH6JTyZaMN_11ryo3_fspath6fspathNtB5_8PyFsPath6exists
FNDA:5,_RNvMsf_NtCsatH6JTyZaMN_11ryo3_fspath6fspathNtB5_8PyFsPath6is_dir
FNDA:2,_RNvMsf_NtCsatH6JTyZaMN_11ryo3_fspath6fspathNtB5_8PyFsPath6parent
FNDA:63,_RNvMsf_NtCsatH6JTyZaMN_11ryo3_fspath6fspathNtB5_8PyFsPath6py_new
FNDA:0,_RNvMsf_NtCsatH6JTyZaMN_11ryo3_fspath6fspathNtB5_8PyFsPath6rename
FNDA:7,_RNvMsf_NtCsatH6JTyZaMN_11ryo3_fspath6fspathNtB5_8PyFsPath6string
FNDA:1,_RNvMsf_NtCsatH6JTyZaMN_11ryo3_fspath6fspathNtB5_8PyFsPath6suffix
FNDA:0,_RNvMsf_NtCsatH6JTyZaMN_11ryo3_fspath6fspathNtB5_8PyFsPath6unlink
FNDA:7,_RNvMsf_NtCsatH6JTyZaMN_11ryo3_fspath6fspathNtB5_8PyFsPath7___str__
FNDA:0,_RNvMsf_NtCsatH6JTyZaMN_11ryo3_fspath6fspathNtB5_8PyFsPath7display
FNDA:15,_RNvMsf_NtCsatH6JTyZaMN_11ryo3_fspath6fspathNtB5_8PyFsPath7is_file
FNDA:1,_RNvMsf_NtCsatH6JTyZaMN_11ryo3_fspath6fspathNtB5_8PyFsPath7iterdir
FNDA:0,_RNvMsf_NtCsatH6JTyZaMN_11ryo3_fspath6fspathNtB5_8PyFsPath7parents
FNDA:0,_RNvMsf_NtCsatH6JTyZaMN_11ryo3_fspath6fspathNtB5_8PyFsPath7replace
FNDA:1,_RNvMsf_NtCsatH6JTyZaMN_11ryo3_fspath6fspathNtB5_8PyFsPath7resolve
FNDA:2,_RNvMsf_NtCsatH6JTyZaMN_11ryo3_fspath6fspathNtB5_8PyFsPath8___hash__
FNDA:0,_RNvMsf_NtCsatH6JTyZaMN_11ryo3_fspath6fspathNtB5_8PyFsPath8___repr__
FNDA:1,_RNvMsf_NtCsatH6JTyZaMN_11ryo3_fspath6fspathNtB5_8PyFsPath8absolute
FNDA:1,_RNvMsf_NtCsatH6JTyZaMN_11ryo3_fspath6fspathNtB5_8PyFsPath8as_posix
FNDA:0,_RNvMsf_NtCsatH6JTyZaMN_11ryo3_fspath6fspathNtB5_8PyFsPath8has_root
FNDA:1,_RNvMsf_NtCsatH6JTyZaMN_11ryo3_fspath6fspathNtB5_8PyFsPath8joinpath
FNDA:0,_RNvMsf_NtCsatH6JTyZaMN_11ryo3_fspath6fspathNtB5_8PyFsPath8metadata
FNDA:1,_RNvMsf_NtCsatH6JTyZaMN_11ryo3_fspath6fspathNtB5_8PyFsPath8read_dir
FNDA:0,_RNvMsf_NtCsatH6JTyZaMN_11ryo3_fspath6fspathNtB5_8PyFsPath8samefile
FNDA:0,_RNvMsf_NtCsatH6JTyZaMN_11ryo3_fspath6fspathNtB5_8PyFsPath8suffixes
FNDA:0,_RNvMsf_NtCsatH6JTyZaMN_11ryo3_fspath6fspathNtB5_8PyFsPath8which_re
FNDA:1,_RNvMsf_NtCsatH6JTyZaMN_11ryo3_fspath6fspathNtB5_8PyFsPath9___bytes__
FNDA:0,_RNvMsf_NtCsatH6JTyZaMN_11ryo3_fspath6fspathNtB5_8PyFsPath9ancestors
FNDA:0,_RNvMsf_NtCsatH6JTyZaMN_11ryo3_fspath6fspathNtB5_8PyFsPath9ends_with
FNDA:0,_RNvMsf_NtCsatH6JTyZaMN_11ryo3_fspath6fspathNtB5_8PyFsPath9extension
FNDA:0,_RNvMsf_NtCsatH6JTyZaMN_11ryo3_fspath6fspathNtB5_8PyFsPath9file_name
FNDA:0,_RNvMsf_NtCsatH6JTyZaMN_11ryo3_fspath6fspathNtB5_8PyFsPath9file_stem
FNDA:0,_RNvMsf_NtCsatH6JTyZaMN_11ryo3_fspath6fspathNtB5_8PyFsPath9read_link
FNDA:2,_RNvMsf_NtCsatH6JTyZaMN_11ryo3_fspath6fspathNtB5_8PyFsPath9read_text
FNDA:0,_RNvMsf_NtCsatH6JTyZaMN_11ryo3_fspath6fspathNtB5_8PyFsPath9which_all
FNDA:1,_RNvMsf_NtCsatH6JTyZaMN_11ryo3_fspath6fspathNtB5_8PyFsPath9with_name
FNDA:0,_RNvMsl_NtCsatH6JTyZaMN_11ryo3_fspath6fspathNtB5_8PyFsPath17___pymethod_read__
FNDA:0,_RNvMsl_NtCsatH6JTyZaMN_11ryo3_fspath6fspathNtB5_8PyFsPath18___pymethod_clone__
FNDA:0,_RNvMsl_NtCsatH6JTyZaMN_11ryo3_fspath6fspathNtB5_8PyFsPath18___pymethod_to_py__
FNDA:0,_RNvMsl_NtCsatH6JTyZaMN_11ryo3_fspath6fspathNtB5_8PyFsPath19___pymethod_as_uri__
FNDA:0,_RNvMsl_NtCsatH6JTyZaMN_11ryo3_fspath6fspathNtB5_8PyFsPath19___pymethod_exists__
FNDA:0,_RNvMsl_NtCsatH6JTyZaMN_11ryo3_fspath6fspathNtB5_8PyFsPath19___pymethod_is_dir__
FNDA:0,_RNvMsl_NtCsatH6JTyZaMN_11ryo3_fspath6fspathNtB5_8PyFsPath19___pymethod_string__
FNDA:0,_RNvMsl_NtCsatH6JTyZaMN_11ryo3_fspath6fspathNtB5_8PyFsPath20___pymethod___str____
FNDA:0,_RNvMsl_NtCsatH6JTyZaMN_11ryo3_fspath6fspathNtB5_8PyFsPath20___pymethod_display__
FNDA:0,_RNvMsl_NtCsatH6JTyZaMN_11ryo3_fspath6fspathNtB5_8PyFsPath20___pymethod_is_file__
FNDA:0,_RNvMsl_NtCsatH6JTyZaMN_11ryo3_fspath6fspathNtB5_8PyFsPath20___pymethod_iterdir__
FNDA:0,_RNvMsl_NtCsatH6JTyZaMN_11ryo3_fspath6fspathNtB5_8PyFsPath20___pymethod_resolve__
FNDA:0,_RNvMsl_NtCsatH6JTyZaMN_11ryo3_fspath6fspathNtB5_8PyFsPath21___pymethod___hash____
FNDA:0,_RNvMsl_NtCsatH6JTyZaMN_11ryo3_fspath6fspathNtB5_8PyFsPath21___pymethod___repr____
FNDA:0,_RNvMsl_NtCsatH6JTyZaMN_11ryo3_fspath6fspathNtB5_8PyFsPath21___pymethod_absolute__
FNDA:0,_RNvMsl_NtCsatH6JTyZaMN_11ryo3_fspath6fspathNtB5_8PyFsPath21___pymethod_as_posix__
FNDA:0,_RNvMsl_NtCsatH6JTyZaMN_11ryo3_fspath6fspathNtB5_8PyFsPath21___pymethod_get_name__
FNDA:0,_RNvMsl_NtCsatH6JTyZaMN_11ryo3_fspath6fspathNtB5_8PyFsPath21___pymethod_get_root__
FNDA:0,_RNvMsl_NtCsatH6JTyZaMN_11ryo3_fspath6fspathNtB5_8PyFsPath21___pymethod_get_stem__
FNDA:0,_RNvMsl_NtCsatH6JTyZaMN_11ryo3_fspath6fspathNtB5_8PyFsPath21___pymethod_has_root__
FNDA:0,_RNvMsl_NtCsatH6JTyZaMN_11ryo3_fspath6fspathNtB5_8PyFsPath21___pymethod_metadata__
FNDA:0,_RNvMsl_NtCsatH6JTyZaMN_11ryo3_fspath6fspathNtB5_8PyFsPath21___pymethod_read_dir__
FNDA:0,_RNvMsl_NtCsatH6JTyZaMN_11ryo3_fspath6fspathNtB5_8PyFsPath22___pymethod___bytes____
FNDA:0,_RNvMsl_NtCsatH6JTyZaMN_11ryo3_fspath6fspathNtB5_8PyFsPath22___pymethod_ancestors__
FNDA:0,_RNvMsl_NtCsatH6JTyZaMN_11ryo3_fspath6fspathNtB5_8PyFsPath22___pymethod_extension__
FNDA:0,_RNvMsl_NtCsatH6JTyZaMN_11ryo3_fspath6fspathNtB5_8PyFsPath22___pymethod_file_name__
FNDA:0,_RNvMsl_NtCsatH6JTyZaMN_11ryo3_fspath6fspathNtB5_8PyFsPath22___pymethod_file_stem__
FNDA:0,_RNvMsl_NtCsatH6JTyZaMN_11ryo3_fspath6fspathNtB5_8PyFsPath22___pymethod_get_drive__
FNDA:0,_RNvMsl_NtCsatH6JTyZaMN_11ryo3_fspath6fspathNtB5_8PyFsPath22___pymethod_get_parts__
FNDA:0,_RNvMsl_NtCsatH6JTyZaMN_11ryo3_fspath6fspathNtB5_8PyFsPath22___pymethod_read_link__
FNDA:0,_RNvMsl_NtCsatH6JTyZaMN_11ryo3_fspath6fspathNtB5_8PyFsPath22___pymethod_read_text__
FNDA:0,_RNvMsl_NtCsatH6JTyZaMN_11ryo3_fspath6fspathNtB5_8PyFsPath23___pymethod___fspath____
FNDA:0,_RNvMsl_NtCsatH6JTyZaMN_11ryo3_fspath6fspathNtB5_8PyFsPath23___pymethod_components__
FNDA:0,_RNvMsl_NtCsatH6JTyZaMN_11ryo3_fspath6fspathNtB5_8PyFsPath23___pymethod_get_anchor__
FNDA:0,_RNvMsl_NtCsatH6JTyZaMN_11ryo3_fspath6fspathNtB5_8PyFsPath23___pymethod_get_parent__
FNDA:0,_RNvMsl_NtCsatH6JTyZaMN_11ryo3_fspath6fspathNtB5_8PyFsPath23___pymethod_get_suffix__
FNDA:0,_RNvMsl_NtCsatH6JTyZaMN_11ryo3_fspath6fspathNtB5_8PyFsPath23___pymethod_is_symlink__
FNDA:0,_RNvMsl_NtCsatH6JTyZaMN_11ryo3_fspath6fspathNtB5_8PyFsPath23___pymethod_read_bytes__
FNDA:0,_RNvMsl_NtCsatH6JTyZaMN_11ryo3_fspath6fspathNtB5_8PyFsPath23___pymethod_to_pathlib__
FNDA:0,_RNvMsl_NtCsatH6JTyZaMN_11ryo3_fspath6fspathNtB5_8PyFsPath24___pymethod_file_prefix__
FNDA:0,_RNvMsl_NtCsatH6JTyZaMN_11ryo3_fspath6fspathNtB5_8PyFsPath24___pymethod_get_parents__
FNDA:0,_RNvMsl_NtCsatH6JTyZaMN_11ryo3_fspath6fspathNtB5_8PyFsPath24___pymethod_is_absolute__
FNDA:0,_RNvMsl_NtCsatH6JTyZaMN_11ryo3_fspath6fspathNtB5_8PyFsPath24___pymethod_is_relative__
FNDA:0,_RNvMsl_NtCsatH6JTyZaMN_11ryo3_fspath6fspathNtB5_8PyFsPath25___pymethod_canonicalize__
FNDA:0,_RNvMsl_NtCsatH6JTyZaMN_11ryo3_fspath6fspathNtB5_8PyFsPath25___pymethod_get_suffixes__
FNDA:0,_RNvMsl_NtCsatH6JTyZaMN_11ryo3_fspath6fspathNtB5_8PyFsPath27___pymethod___getnewargs____
FNDA:0,_RNvMsl_NtCsatH6JTyZaMN_11ryo3_fspath6fspathNtB5_8PyFsPath29___pymethod_symlink_metadata__
FNDA:0,_RNvMsv_NtCsatH6JTyZaMN_11ryo3_fspath6fspathNtB5_15PyFsPathReadDir4take
FNDA:0,_RNvMsv_NtCsatH6JTyZaMN_11ryo3_fspath6fspathNtB5_15PyFsPathReadDir7collect
FNDA:1,_RNvMsv_NtCsatH6JTyZaMN_11ryo3_fspath6fspathNtB5_15PyFsPathReadDir8___iter__
FNDA:3,_RNvMsv_NtCsatH6JTyZaMN_11ryo3_fspath6fspathNtB5_15PyFsPathReadDir8___next__
FNDA:0,_RNvMsx_NtCsatH6JTyZaMN_11ryo3_fspath6fspathNtB5_15PyFsPathReadDir20___pymethod_collect__
FNDA:0,_RNvMsx_NtCsatH6JTyZaMN_11ryo3_fspath6fspathNtB5_15PyFsPathReadDir21___pymethod___iter____
FNDA:1,_RNvXs0_NtCsatH6JTyZaMN_11ryo3_fspath6fspathNtB5_15PyFsPathReadDirINtNtCs66KPHxksi63_4core7convert4FromNtNtCsiKSG5X70Gj7_3std2fs7ReadDirE4from
FNDA:0,_RINvMNtCsatH6JTyZaMN_11ryo3_fspath6fspathNtB3_8PyFsPath3newpEB5_
FNF:118
FNH:46
DA:28,4
DA:29,4
DA:30,4
DA:31,4
DA:32,4
DA:35,114
DA:36,114
DA:37,114
DA:52,8
DA:53,8
DA:54,8
DA:58,0
DA:62,63
DA:63,63
DA:64,59
DA:65,4
DA:67,63
DA:69,1
DA:70,1
DA:71,1
DA:72,1
DA:74,7
DA:75,7
DA:76,7
DA:78,7
DA:79,7
DA:80,7
DA:82,0
DA:83,0
DA:84,0
DA:85,0
DA:87,0
DA:88,0
DA:89,0
DA:90,0
DA:92,1
DA:93,1
DA:94,1
DA:96,1
DA:97,1
DA:98,1
DA:100,2
DA:101,2
DA:102,2
DA:103,2
DA:104,2
DA:106,25
DA:107,25
DA:108,25
DA:109,25
DA:112,22
DA:113,22
DA:114,0
DA:116,0
DA:120,2
DA:121,2
DA:122,0
DA:124,0
DA:126,1
DA:127,0
DA:128,0
DA:129,0
DA:131,25
DA:133,1
DA:134,1
DA:135,1
DA:136,1
DA:138,1
DA:139,1
DA:140,1
DA:141,1
DA:143,22
DA:144,22
DA:145,22
DA:147,0
DA:148,0
DA:149,0
DA:150,0
DA:151,0
DA:153,4
DA:154,4
DA:155,4
DA:157,1
DA:158,1
DA:159,1
DA:160,1
DA:162,1
DA:163,1
DA:164,1
DA:165,1
DA:166,1
DA:169,1
DA:170,1
DA:171,1
DA:172,1
DA:173,1
DA:174,1
DA:191,0
DA:192,0
DA:193,0
DA:196,0
DA:197,0
DA:198,0
DA:199,0
DA:200,0
DA:202,0
DA:204,0
DA:206,0
DA:208,2
DA:209,2
DA:210,2
DA:211,2
DA:212,2
DA:213,2
DA:214,1
DA:216,1
DA:219,0
DA:221,0
DA:223,2
DA:227,0
DA:228,0
DA:229,0
DA:230,0
DA:233,3
DA:234,3
DA:235,3
DA:236,3
DA:237,9
DA:238,3
DA:239,3
DA:240,3
DA:243,0
DA:244,0
DA:245,0
DA:246,0
DA:248,0
DA:250,1
DA:251,1
DA:252,1
DA:253,1
DA:256,1
DA:257,1
DA:258,1
DA:259,1
DA:260,1
DA:261,1
DA:262,0
DA:264,1
DA:267,0
DA:269,1
DA:271,1
DA:273,1
DA:274,1
DA:276,0
DA:278,1
DA:279,1
DA:280,1
DA:283,0
DA:284,0
DA:285,0
DA:286,0
DA:287,0
DA:288,0
DA:289,0
DA:291,0
DA:293,0
DA:294,0
DA:295,0
DA:298,1
DA:299,1
DA:300,1
DA:301,1
DA:302,1
DA:303,0
DA:304,0
DA:305,1
DA:308,0
DA:309,0
DA:310,0
DA:313,2
DA:314,2
DA:315,2
DA:316,2
DA:317,2
DA:319,1
DA:327,1
DA:329,1
DA:331,1
DA:332,1
DA:333,1
DA:334,1
DA:336,3
DA:337,3
DA:338,3
DA:339,3
DA:341,3
DA:342,3
DA:343,3
DA:344,3
DA:345,0
DA:347,0
DA:348,0
DA:349,0
DA:352,3
DA:354,2
DA:355,2
DA:356,0
DA:357,0
DA:358,0
DA:359,2
DA:360,2
DA:361,2
DA:362,0
DA:363,0
DA:364,0
DA:367,2
DA:369,3
DA:370,3
DA:371,3
DA:372,3
DA:373,3
DA:374,0
DA:375,0
DA:376,0
DA:377,0
DA:378,0
DA:381,3
DA:383,1
DA:384,1
DA:385,1
DA:387,2
DA:388,2
DA:389,2
DA:390,2
DA:391,0
DA:392,0
DA:393,0
DA:394,0
DA:395,0
DA:398,2
DA:402,0
DA:403,0
DA:405,0
DA:406,0
DA:407,0
DA:408,0
DA:409,0
DA:410,0
DA:411,0
DA:412,0
DA:413,0
DA:414,0
DA:415,0
DA:416,0
DA:418,0
DA:419,0
DA:420,0
DA:421,0
DA:427,0
DA:428,0
DA:429,0
DA:430,0
DA:431,0
DA:432,0
DA:433,0
DA:434,0
DA:435,0
DA:436,0
DA:438,0
DA:439,0
DA:442,0
DA:443,0
DA:444,0
DA:445,0
DA:446,0
DA:447,0
DA:448,0
DA:449,0
DA:450,0
DA:451,0
DA:452,0
DA:453,0
DA:454,0
DA:455,0
DA:456,0
DA:457,0
DA:458,0
DA:459,0
DA:461,0
DA:462,0
DA:463,0
DA:464,0
DA:466,0
DA:467,0
DA:470,0
DA:471,0
DA:472,0
DA:473,0
DA:474,0
DA:475,0
DA:476,0
DA:477,0
DA:478,0
DA:479,0
DA:480,0
DA:481,0
DA:483,0
DA:484,0
DA:485,0
DA:486,0
DA:488,0
DA:489,0
DA:491,0
DA:492,0
DA:493,0
DA:494,0
DA:495,0
DA:496,0
DA:497,0
DA:498,0
DA:499,0
DA:500,0
DA:501,0
DA:502,0
DA:503,0
DA:504,0
DA:505,0
DA:506,0
DA:507,0
DA:509,0
DA:510,0
DA:511,0
DA:512,0
DA:513,0
DA:514,0
DA:516,0
DA:517,0
DA:519,0
DA:521,0
DA:522,0
DA:523,0
DA:524,0
DA:525,0
DA:526,0
DA:527,0
DA:529,0
DA:530,0
DA:531,0
DA:532,0
DA:533,0
DA:535,1
DA:536,1
DA:537,1
DA:543,0
DA:544,0
DA:545,0
DA:546,0
DA:547,0
DA:548,0
DA:550,0
DA:551,0
DA:552,0
DA:554,1
DA:555,1
DA:556,1
DA:557,1
DA:558,1
DA:598,0
DA:599,0
DA:600,0
DA:601,0
DA:603,0
DA:604,0
DA:605,0
DA:606,0
DA:608,0
DA:609,0
DA:610,0
DA:611,0
DA:612,0
DA:613,0
DA:614,0
DA:615,0
DA:617,0
DA:618,0
DA:619,0
DA:621,0
DA:622,0
DA:623,0
DA:625,1
DA:626,1
DA:627,1
DA:628,1
DA:629,1
DA:631,0
DA:632,0
DA:633,0
DA:634,0
DA:635,0
DA:637,0
DA:638,0
DA:639,0
DA:640,0
DA:641,0
DA:643,0
DA:644,0
DA:645,0
DA:646,0
DA:647,0
DA:649,0
DA:650,0
DA:651,0
DA:652,0
DA:653,0
DA:655,0
DA:656,0
DA:657,0
DA:659,0
DA:660,0
DA:661,0
DA:663,5
DA:664,5
DA:665,5
DA:667,15
DA:668,15
DA:669,15
DA:671,0
DA:672,0
DA:673,0
DA:675,0
DA:676,0
DA:677,0
DA:679,0
DA:680,0
DA:681,0
DA:683,0
DA:684,0
DA:685,0
DA:686,0
DA:687,0
DA:688,0
DA:690,1
DA:691,1
DA:692,1
DA:693,1
DA:694,1
DA:695,1
DA:697,0
DA:698,0
DA:699,0
DA:700,0
DA:701,0
DA:702,0
DA:704,0
DA:705,0
DA:706,0
DA:708,0
DA:709,0
DA:710,0
DA:711,0
DA:712,0
DA:713,0
DA:715,0
DA:716,0
DA:717,0
DA:718,0
DA:719,0
DA:720,0
DA:722,0
DA:723,0
DA:724,0
DA:726,0
DA:727,0
DA:728,0
DA:739,0
DA:740,0
DA:741,0
DA:756,0
DA:757,0
DA:758,0
DA:772,0
DA:773,0
DA:774,0
DA:775,0
DA:789,0
DA:790,0
DA:791,0
DA:792,0
DA:808,87
DA:809,87
DA:810,87
DA:811,87
DA:812,87
DA:820,0
DA:822,1
DA:823,1
DA:824,1
DA:826,3
DA:827,3
DA:828,2
DA:829,2
DA:830,1
DA:832,3
DA:834,0
DA:835,0
DA:836,0
DA:837,0
DA:838,0
DA:839,0
DA:842,0
DA:843,0
DA:846,0
DA:847,0
DA:848,0
DA:849,0
DA:850,0
DA:851,0
DA:852,0
DA:853,0
DA:854,0
DA:855,0
DA:856,0
DA:860,1
DA:861,1
DA:862,1
BRF:0
BRH:0
LF:565
LH:203
end_of_record
SF:/home/jesse/ry/crates/ryo3-fspath/src/lib.rs
FN:7,_RNvCsatH6JTyZaMN_11ryo3_fspath9pymod_add
FNDA:8,_RNvCsatH6JTyZaMN_11ryo3_fspath9pymod_add
FNF:1
FNH:1
DA:7,8
DA:8,8
DA:9,8
DA:10,8
BRF:0
BRH:0
LF:4
LH:4
end_of_record
SF:/home/jesse/ry/crates/ryo3-fspath/src/pathlib.rs
FN:11,_RINvNtCsatH6JTyZaMN_11ryo3_fspath7pathlib12path2pathlibRNtNtCsiKSG5X70Gj7_3std4path4PathEB4_
FNDA:0,_RINvNtCsatH6JTyZaMN_11ryo3_fspath7pathlib12path2pathlibRNtNtCsiKSG5X70Gj7_3std4path4PathEB4_
FNF:1
FNH:0
DA:11,0
DA:13,0
DA:14,0
DA:15,0
DA:16,0
BRF:0
BRH:0
LF:5
LH:0
end_of_record
SF:/home/jesse/ry/crates/ryo3-glob/src/lib.rs
FN:230,_RNvCslnI0k9zLBUt_9ryo3_glob13extract_dtype
FN:225,_RNvCslnI0k9zLBUt_9ryo3_glob14ry_fspath_type
FN:215,_RNvCslnI0k9zLBUt_9ryo3_glob17pathlib_path_type
FN:190,_RNvCslnI0k9zLBUt_9ryo3_glob7py_glob
FN:220,_RNvCslnI0k9zLBUt_9ryo3_glob8str_type
FN:251,_RNvCslnI0k9zLBUt_9ryo3_glob9pymod_add
FN:20,_RNvMCslnI0k9zLBUt_9ryo3_globNtB2_9GlobDType23dtype_into_bound_py_any
FN:116,_RNvMs9_CslnI0k9zLBUt_9ryo3_globNtB5_11PyGlobPaths4take
FN:84,_RNvMs9_CslnI0k9zLBUt_9ryo3_globNtB5_11PyGlobPaths7collect
FN:61,_RNvMs9_CslnI0k9zLBUt_9ryo3_globNtB5_11PyGlobPaths8___iter__
FN:64,_RNvMs9_CslnI0k9zLBUt_9ryo3_globNtB5_11PyGlobPaths8___next__
FN:54,_RNvMs_CslnI0k9zLBUt_9ryo3_globNtB4_11PyGlobPaths9next_pathB4_
FN:59,_RNvMsb_CslnI0k9zLBUt_9ryo3_globNtB5_11PyGlobPaths20___pymethod_collect__
FN:59,_RNvMsb_CslnI0k9zLBUt_9ryo3_globNtB5_11PyGlobPaths21___pymethod___iter____
FN:208,_RNCNvCslnI0k9zLBUt_9ryo3_glob7py_glob0B3_
FN:212,_RNCNvCslnI0k9zLBUt_9ryo3_glob7py_globs_0B3_
FN:122,_RNCNvMs9_CslnI0k9zLBUt_9ryo3_globNtB7_11PyGlobPaths4take0B7_
FN:134,_RNCNvMs9_CslnI0k9zLBUt_9ryo3_globNtB7_11PyGlobPaths4takes_0B7_
FN:106,_RNCNvMs9_CslnI0k9zLBUt_9ryo3_globNtB7_11PyGlobPaths7collect0B7_
FNDA:12,_RNvCslnI0k9zLBUt_9ryo3_glob13extract_dtype
FNDA:3,_RNvCslnI0k9zLBUt_9ryo3_glob14ry_fspath_type
FNDA:9,_RNvCslnI0k9zLBUt_9ryo3_glob17pathlib_path_type
FNDA:12,_RNvCslnI0k9zLBUt_9ryo3_glob7py_glob
FNDA:12,_RNvCslnI0k9zLBUt_9ryo3_glob8str_type
FNDA:8,_RNvCslnI0k9zLBUt_9ryo3_glob9pymod_add
FNDA:28,_RNvMCslnI0k9zLBUt_9ryo3_globNtB2_9GlobDType23dtype_into_bound_py_any
FNDA:4,_RNvMs9_CslnI0k9zLBUt_9ryo3_globNtB5_11PyGlobPaths4take
FNDA:4,_RNvMs9_CslnI0k9zLBUt_9ryo3_globNtB5_11PyGlobPaths7collect
FNDA:8,_RNvMs9_CslnI0k9zLBUt_9ryo3_globNtB5_11PyGlobPaths8___iter__
FNDA:16,_RNvMs9_CslnI0k9zLBUt_9ryo3_globNtB5_11PyGlobPaths8___next__
FNDA:16,_RNvMs_CslnI0k9zLBUt_9ryo3_globNtB4_11PyGlobPaths9next_pathB4_
FNDA:0,_RNvMsb_CslnI0k9zLBUt_9ryo3_globNtB5_11PyGlobPaths20___pymethod_collect__
FNDA:0,_RNvMsb_CslnI0k9zLBUt_9ryo3_globNtB5_11PyGlobPaths21___pymethod___iter____
FNDA:12,_RNCNvCslnI0k9zLBUt_9ryo3_glob7py_glob0B3_
FNDA:0,_RNCNvCslnI0k9zLBUt_9ryo3_glob7py_globs_0B3_
FNDA:0,_RNCNvMs9_CslnI0k9zLBUt_9ryo3_globNtB7_11PyGlobPaths4take0B7_
FNDA:0,_RNCNvMs9_CslnI0k9zLBUt_9ryo3_globNtB7_11PyGlobPaths4takes_0B7_
FNDA:0,_RNCNvMs9_CslnI0k9zLBUt_9ryo3_globNtB7_11PyGlobPaths7collect0B7_
FNF:18
FNH:13
DA:20,28
DA:21,28
DA:22,28
DA:23,28
DA:24,28
DA:25,28
DA:27,7
DA:28,7
DA:29,7
DA:32,14
DA:33,14
DA:36,7
DA:37,7
DA:38,7
DA:41,28
DA:54,16
DA:55,16
DA:56,16
DA:59,0
DA:61,8
DA:62,8
DA:63,8
DA:64,16
DA:66,16
DA:67,12
DA:68,12
DA:69,12
DA:71,0
DA:72,0
DA:73,0
DA:74,0
DA:75,0
DA:76,0
DA:79,4
DA:82,16
DA:84,4
DA:85,4
DA:86,4
DA:87,12
DA:88,12
DA:89,12
DA:90,12
DA:91,12
DA:93,0
DA:94,0
DA:95,0
DA:96,0
DA:100,4
DA:102,0
DA:103,0
DA:104,0
DA:105,0
DA:106,0
DA:107,0
DA:108,0
DA:109,0
DA:110,0
DA:112,4
DA:116,4
DA:117,4
DA:118,4
DA:120,4
DA:121,4
DA:122,4
DA:123,4
DA:124,4
DA:127,4
DA:129,0
DA:130,0
DA:131,0
DA:132,0
DA:133,0
DA:134,0
DA:135,0
DA:136,0
DA:137,0
DA:138,0
DA:140,4
DA:190,12
DA:191,12
DA:192,12
DA:193,12
DA:194,12
DA:195,12
DA:196,12
DA:197,12
DA:198,12
DA:199,12
DA:200,12
DA:201,12
DA:202,12
DA:203,12
DA:204,12
DA:205,12
DA:207,12
DA:208,12
DA:209,12
DA:210,12
DA:211,12
DA:212,12
DA:213,12
DA:215,9
DA:217,9
DA:218,9
DA:220,12
DA:222,12
DA:223,12
DA:225,3
DA:227,3
DA:228,3
DA:230,12
DA:231,12
DA:232,12
DA:233,12
DA:234,3
DA:235,9
DA:236,6
DA:237,3
DA:238,3
DA:241,0
DA:242,0
DA:243,0
DA:244,0
DA:248,0
DA:250,12
DA:251,8
DA:252,8
DA:253,8
DA:254,8
DA:255,8
BRF:0
BRH:0
LF:134
LH:95
end_of_record
SF:/home/jesse/ry/crates/ryo3-glob/src/pattern.rs
FN:95,_RNvMsa_NtCslnI0k9zLBUt_9ryo3_glob7patternNtB5_9PyPattern12matches_path
FN:102,_RNvMsa_NtCslnI0k9zLBUt_9ryo3_glob7patternNtB5_9PyPattern12matches_with
FN:123,_RNvMsa_NtCslnI0k9zLBUt_9ryo3_glob7patternNtB5_9PyPattern17matches_path_with
FN:86,_RNvMsa_NtCslnI0k9zLBUt_9ryo3_glob7patternNtB5_9PyPattern6escape
FN:19,_RNvMsa_NtCslnI0k9zLBUt_9ryo3_glob7patternNtB5_9PyPattern6py_new
FN:77,_RNvMsa_NtCslnI0k9zLBUt_9ryo3_glob7patternNtB5_9PyPattern7___str__
FN:90,_RNvMsa_NtCslnI0k9zLBUt_9ryo3_glob7patternNtB5_9PyPattern7matches
FN:73,_RNvMsa_NtCslnI0k9zLBUt_9ryo3_glob7patternNtB5_9PyPattern7pattern
FN:28,_RNvMsa_NtCslnI0k9zLBUt_9ryo3_glob7patternNtB5_9PyPattern8___call__
FN:81,_RNvMsa_NtCslnI0k9zLBUt_9ryo3_glob7patternNtB5_9PyPattern8___repr__
FN:16,_RNvMsc_NtCslnI0k9zLBUt_9ryo3_glob7patternNtB5_9PyPattern20___pymethod___str____
FN:16,_RNvMsc_NtCslnI0k9zLBUt_9ryo3_glob7patternNtB5_9PyPattern21___pymethod___repr____
FN:16,_RNvMsc_NtCslnI0k9zLBUt_9ryo3_glob7patternNtB5_9PyPattern24___pymethod_get_pattern__
FN:11,_RNvXNtCslnI0k9zLBUt_9ryo3_glob7patternNtB2_9PyPatternINtNtCs66KPHxksi63_4core7convert4FromNtCsflKXyXZy3zK_4glob7PatternE4from
FN:22,_RNCNvMsa_NtCslnI0k9zLBUt_9ryo3_glob7patternNtB7_9PyPattern6py_new0B9_
FNDA:0,_RNvMsa_NtCslnI0k9zLBUt_9ryo3_glob7patternNtB5_9PyPattern12matches_path
FNDA:0,_RNvMsa_NtCslnI0k9zLBUt_9ryo3_glob7patternNtB5_9PyPattern12matches_with
FNDA:0,_RNvMsa_NtCslnI0k9zLBUt_9ryo3_glob7patternNtB5_9PyPattern17matches_path_with
FNDA:0,_RNvMsa_NtCslnI0k9zLBUt_9ryo3_glob7patternNtB5_9PyPattern6escape
FNDA:0,_RNvMsa_NtCslnI0k9zLBUt_9ryo3_glob7patternNtB5_9PyPattern6py_new
FNDA:0,_RNvMsa_NtCslnI0k9zLBUt_9ryo3_glob7patternNtB5_9PyPattern7___str__
FNDA:0,_RNvMsa_NtCslnI0k9zLBUt_9ryo3_glob7patternNtB5_9PyPattern7matches
FNDA:0,_RNvMsa_NtCslnI0k9zLBUt_9ryo3_glob7patternNtB5_9PyPattern7pattern
FNDA:0,_RNvMsa_NtCslnI0k9zLBUt_9ryo3_glob7patternNtB5_9PyPattern8___call__
FNDA:0,_RNvMsa_NtCslnI0k9zLBUt_9ryo3_glob7patternNtB5_9PyPattern8___repr__
FNDA:0,_RNvMsc_NtCslnI0k9zLBUt_9ryo3_glob7patternNtB5_9PyPattern20___pymethod___str____
FNDA:0,_RNvMsc_NtCslnI0k9zLBUt_9ryo3_glob7patternNtB5_9PyPattern21___pymethod___repr____
FNDA:0,_RNvMsc_NtCslnI0k9zLBUt_9ryo3_glob7patternNtB5_9PyPattern24___pymethod_get_pattern__
FNDA:0,_RNvXNtCslnI0k9zLBUt_9ryo3_glob7patternNtB2_9PyPatternINtNtCs66KPHxksi63_4core7convert4FromNtCsflKXyXZy3zK_4glob7PatternE4from
FNDA:0,_RNCNvMsa_NtCslnI0k9zLBUt_9ryo3_glob7patternNtB7_9PyPattern6py_new0B9_
FNF:13
FNH:0
DA:11,0
DA:12,0
DA:13,0
DA:16,0
DA:19,0
DA:20,0
DA:21,0
DA:22,0
DA:23,0
DA:28,0
DA:29,0
DA:30,0
DA:31,0
DA:32,0
DA:33,0
DA:34,0
DA:35,0
DA:36,0
DA:39,0
DA:40,0
DA:41,0
DA:42,0
DA:43,0
DA:44,0
DA:45,0
DA:46,0
DA:47,0
DA:48,0
DA:50,0
DA:52,0
DA:53,0
DA:54,0
DA:55,0
DA:56,0
DA:57,0
DA:58,0
DA:59,0
DA:60,0
DA:61,0
DA:63,0
DA:66,0
DA:67,0
DA:68,0
DA:70,0
DA:73,0
DA:74,0
DA:75,0
DA:77,0
DA:78,0
DA:79,0
DA:81,0
DA:82,0
DA:83,0
DA:86,0
DA:87,0
DA:88,0
DA:90,0
DA:91,0
DA:92,0
DA:95,0
DA:96,0
DA:97,0
DA:102,0
DA:103,0
DA:104,0
DA:105,0
DA:106,0
DA:107,0
DA:108,0
DA:109,0
DA:110,0
DA:111,0
DA:112,0
DA:113,0
DA:114,0
DA:115,0
DA:117,0
DA:123,0
DA:124,0
DA:125,0
DA:126,0
DA:127,0
DA:128,0
DA:129,0
DA:130,0
DA:131,0
DA:132,0
DA:133,0
DA:134,0
DA:135,0
DA:136,0
DA:138,0
BRF:0
BRH:0
LF:93
LH:0
end_of_record
SF:/home/jesse/ry/crates/ryo3-globset/src/globster.rs
FN:40,_RINvMs0_NtCs2iOcf8imwrr_12ryo3_globset8globsterNtB6_10PyGlobster8is_matchRNtNtCsiKSG5X70Gj7_3std4path4PathECs57fU9eQIPec_12ryo3_walkdir
FN:152,_RNvMse_NtCs2iOcf8imwrr_12ryo3_globset8globsterNtB5_10PyGlobster11py_is_match
FN:140,_RNvMse_NtCs2iOcf8imwrr_12ryo3_globset8globsterNtB5_10PyGlobster12is_match_str
FN:57,_RNvMse_NtCs2iOcf8imwrr_12ryo3_globset8globsterNtB5_10PyGlobster6py_new
FN:131,_RNvMse_NtCs2iOcf8imwrr_12ryo3_globset8globsterNtB5_10PyGlobster7___len__
FN:122,_RNvMse_NtCs2iOcf8imwrr_12ryo3_globset8globsterNtB5_10PyGlobster7___str__
FN:161,_RNvMse_NtCs2iOcf8imwrr_12ryo3_globset8globsterNtB5_10PyGlobster8___call__
FN:127,_RNvMse_NtCs2iOcf8imwrr_12ryo3_globset8globsterNtB5_10PyGlobster8___repr__
FN:135,_RNvMse_NtCs2iOcf8imwrr_12ryo3_globset8globsterNtB5_10PyGlobster8is_empty
FN:166,_RNvMse_NtCs2iOcf8imwrr_12ryo3_globset8globsterNtB5_10PyGlobster8patterns
FN:51,_RNvMsg_NtCs2iOcf8imwrr_12ryo3_globset8globsterNtB5_10PyGlobster20___pymethod___len____
FN:51,_RNvMsg_NtCs2iOcf8imwrr_12ryo3_globset8globsterNtB5_10PyGlobster20___pymethod___str____
FN:51,_RNvMsg_NtCs2iOcf8imwrr_12ryo3_globset8globsterNtB5_10PyGlobster21___pymethod___repr____
FN:51,_RNvMsg_NtCs2iOcf8imwrr_12ryo3_globset8globsterNtB5_10PyGlobster21___pymethod_is_empty__
FN:51,_RNvMsg_NtCs2iOcf8imwrr_12ryo3_globset8globsterNtB5_10PyGlobster25___pymethod_get_patterns__
FN:25,_RNvXNtCs2iOcf8imwrr_12ryo3_globset8globsterNtB2_10PyGlobsterNtNtNtCs66KPHxksi63_4core3str6traits7FromStr8from_str
FN:34,_RNvXs_NtCs2iOcf8imwrr_12ryo3_globset8globsterNtB4_10PyGlobsterINtNtCs66KPHxksi63_4core7convert7TryFromINtNtCs8Ty2CzGA6U3_5alloc3vec3VecNtNtB1H_6string6StringEE8try_from
FN:40,_RINvMs0_NtCs2iOcf8imwrr_12ryo3_globset8globsterNtB6_10PyGlobster8is_matchNtNtNtCs2rqQyGAU8eF_9ryo3_core5types8pathlike8PathLikeEB8_
FN:92,_RNCNvMse_NtCs2iOcf8imwrr_12ryo3_globset8globsterNtB7_10PyGlobster6py_new0B9_
FN:109,_RNCNvMse_NtCs2iOcf8imwrr_12ryo3_globset8globsterNtB7_10PyGlobster6py_news0_0B9_
FN:112,_RNCNvMse_NtCs2iOcf8imwrr_12ryo3_globset8globsterNtB7_10PyGlobster6py_news1_0B9_
FN:103,_RNCNvMse_NtCs2iOcf8imwrr_12ryo3_globset8globsterNtB7_10PyGlobster6py_news_0B9_
FNDA:552,_RINvMs0_NtCs2iOcf8imwrr_12ryo3_globset8globsterNtB6_10PyGlobster8is_matchRNtNtCsiKSG5X70Gj7_3std4path4PathECs57fU9eQIPec_12ryo3_walkdir
FNDA:6,_RNvMse_NtCs2iOcf8imwrr_12ryo3_globset8globsterNtB5_10PyGlobster11py_is_match
FNDA:0,_RNvMse_NtCs2iOcf8imwrr_12ryo3_globset8globsterNtB5_10PyGlobster12is_match_str
FNDA:12,_RNvMse_NtCs2iOcf8imwrr_12ryo3_globset8globsterNtB5_10PyGlobster6py_new
FNDA:0,_RNvMse_NtCs2iOcf8imwrr_12ryo3_globset8globsterNtB5_10PyGlobster7___len__
FNDA:3,_RNvMse_NtCs2iOcf8imwrr_12ryo3_globset8globsterNtB5_10PyGlobster7___str__
FNDA:30,_RNvMse_NtCs2iOcf8imwrr_12ryo3_globset8globsterNtB5_10PyGlobster8___call__
FNDA:1,_RNvMse_NtCs2iOcf8imwrr_12ryo3_globset8globsterNtB5_10PyGlobster8___repr__
FNDA:0,_RNvMse_NtCs2iOcf8imwrr_12ryo3_globset8globsterNtB5_10PyGlobster8is_empty
FNDA:0,_RNvMse_NtCs2iOcf8imwrr_12ryo3_globset8globsterNtB5_10PyGlobster8patterns
FNDA:0,_RNvMsg_NtCs2iOcf8imwrr_12ryo3_globset8globsterNtB5_10PyGlobster20___pymethod___len____
FNDA:0,_RNvMsg_NtCs2iOcf8imwrr_12ryo3_globset8globsterNtB5_10PyGlobster20___pymethod___str____
FNDA:0,_RNvMsg_NtCs2iOcf8imwrr_12ryo3_globset8globsterNtB5_10PyGlobster21___pymethod___repr____
FNDA:0,_RNvMsg_NtCs2iOcf8imwrr_12ryo3_globset8globsterNtB5_10PyGlobster21___pymethod_is_empty__
FNDA:0,_RNvMsg_NtCs2iOcf8imwrr_12ryo3_globset8globsterNtB5_10PyGlobster25___pymethod_get_patterns__
FNDA:1,_RNvXNtCs2iOcf8imwrr_12ryo3_globset8globsterNtB2_10PyGlobsterNtNtNtCs66KPHxksi63_4core3str6traits7FromStr8from_str
FNDA:2,_RNvXs_NtCs2iOcf8imwrr_12ryo3_globset8globsterNtB4_10PyGlobsterINtNtCs66KPHxksi63_4core7convert7TryFromINtNtCs8Ty2CzGA6U3_5alloc3vec3VecNtNtB1H_6string6StringEE8try_from
FNDA:30,_RINvMs0_NtCs2iOcf8imwrr_12ryo3_globset8globsterNtB6_10PyGlobster8is_matchNtNtNtCs2rqQyGAU8eF_9ryo3_core5types8pathlike8PathLikeEB8_
FNDA:0,_RNCNvMse_NtCs2iOcf8imwrr_12ryo3_globset8globsterNtB7_10PyGlobster6py_new0B9_
FNDA:0,_RNCNvMse_NtCs2iOcf8imwrr_12ryo3_globset8globsterNtB7_10PyGlobster6py_news0_0B9_
FNDA:0,_RNCNvMse_NtCs2iOcf8imwrr_12ryo3_globset8globsterNtB7_10PyGlobster6py_news1_0B9_
FNDA:0,_RNCNvMse_NtCs2iOcf8imwrr_12ryo3_globset8globsterNtB7_10PyGlobster6py_news_0B9_
FNF:17
FNH:8
DA:25,1
DA:26,1
DA:27,1
DA:28,1
DA:34,2
DA:35,2
DA:36,2
DA:40,582
DA:41,582
DA:42,582
DA:43,315
DA:44,267
DA:45,0
DA:46,0
DA:48,582
DA:51,0
DA:57,12
DA:58,12
DA:59,12
DA:60,12
DA:61,12
DA:62,12
DA:63,12
DA:64,12
DA:65,12
DA:66,12
DA:67,12
DA:68,12
DA:69,12
DA:71,32
DA:72,20
DA:73,0
DA:74,20
DA:75,20
DA:76,0
DA:77,20
DA:78,20
DA:79,2
DA:80,18
DA:81,18
DA:82,18
DA:86,30
DA:87,18
DA:88,18
DA:89,18
DA:90,18
DA:91,18
DA:92,18
DA:93,18
DA:97,14
DA:98,2
DA:99,2
DA:100,2
DA:101,2
DA:102,2
DA:103,2
DA:104,2
DA:107,12
DA:108,12
DA:109,12
DA:110,12
DA:111,12
DA:112,12
DA:113,12
DA:114,12
DA:115,12
DA:116,12
DA:117,12
DA:118,12
DA:119,12
DA:120,12
DA:122,3
DA:123,3
DA:124,3
DA:125,3
DA:127,1
DA:128,1
DA:129,1
DA:131,0
DA:132,0
DA:133,0
DA:135,0
DA:136,0
DA:137,0
DA:140,0
DA:141,0
DA:142,0
DA:143,0
DA:144,0
DA:145,0
DA:147,0
DA:152,6
DA:153,6
DA:154,6
DA:155,0
DA:156,0
DA:157,0
DA:159,6
DA:161,30
DA:162,30
DA:163,30
DA:166,0
DA:167,0
DA:168,0
DA:169,0
BRF:0
BRH:0
LF:109
LH:80
end_of_record
SF:/home/jesse/ry/crates/ryo3-globset/src/lib.rs
FN:263,_RNvXs2_Cs2iOcf8imwrr_12ryo3_globsetNtNtB5_8globster10PyGlobsterINtNtCs66KPHxksi63_4core7convert7TryFromRNtB5_12GlobsterLikeE8try_from
FN:243,_RNvXs_Cs2iOcf8imwrr_12ryo3_globsetNtNtB4_8globster10PyGlobsterNtB4_14PyGlobPatterns12patterns_ref
FN:30,_RNvYNtNtCs2iOcf8imwrr_12ryo3_globset8globster10PyGlobsterNtB6_20PyGlobPatternsString15patterns_stringB6_
FN:301,_RNvCs2iOcf8imwrr_12ryo3_globset11py_globster
FN:316,_RNvCs2iOcf8imwrr_12ryo3_globset9pymod_add
FN:74,_RNvMse_Cs2iOcf8imwrr_12ryo3_globsetNtB5_6PyGlob10___invert__
FN:84,_RNvMse_Cs2iOcf8imwrr_12ryo3_globsetNtB5_6PyGlob12is_match_str
FN:106,_RNvMse_Cs2iOcf8imwrr_12ryo3_globsetNtB5_6PyGlob5regex
FN:47,_RNvMse_Cs2iOcf8imwrr_12ryo3_globsetNtB5_6PyGlob6py_new
FN:97,_RNvMse_Cs2iOcf8imwrr_12ryo3_globsetNtB5_6PyGlob7___str__
FN:110,_RNvMse_Cs2iOcf8imwrr_12ryo3_globsetNtB5_6PyGlob7globset
FN:93,_RNvMse_Cs2iOcf8imwrr_12ryo3_globsetNtB5_6PyGlob8___call__
FN:101,_RNvMse_Cs2iOcf8imwrr_12ryo3_globsetNtB5_6PyGlob8___repr__
FN:121,_RNvMse_Cs2iOcf8imwrr_12ryo3_globsetNtB5_6PyGlob8globster
FN:89,_RNvMse_Cs2iOcf8imwrr_12ryo3_globsetNtB5_6PyGlob8is_match
FN:41,_RNvMsg_Cs2iOcf8imwrr_12ryo3_globsetNtB5_6PyGlob20___pymethod___str____
FN:41,_RNvMsg_Cs2iOcf8imwrr_12ryo3_globsetNtB5_6PyGlob20___pymethod_globset__
FN:41,_RNvMsg_Cs2iOcf8imwrr_12ryo3_globsetNtB5_6PyGlob21___pymethod___repr____
FN:41,_RNvMsg_Cs2iOcf8imwrr_12ryo3_globsetNtB5_6PyGlob21___pymethod_globster__
FN:41,_RNvMsg_Cs2iOcf8imwrr_12ryo3_globsetNtB5_6PyGlob22___pymethod_get_regex__
FN:41,_RNvMsg_Cs2iOcf8imwrr_12ryo3_globsetNtB5_6PyGlob23___pymethod___invert____
FN:204,_RNvMss_Cs2iOcf8imwrr_12ryo3_globsetNtB5_9PyGlobSet12is_match_str
FN:148,_RNvMss_Cs2iOcf8imwrr_12ryo3_globsetNtB5_9PyGlobSet6py_new
FN:195,_RNvMss_Cs2iOcf8imwrr_12ryo3_globsetNtB5_9PyGlobSet7___len__
FN:186,_RNvMss_Cs2iOcf8imwrr_12ryo3_globsetNtB5_9PyGlobSet7___str__
FN:217,_RNvMss_Cs2iOcf8imwrr_12ryo3_globsetNtB5_9PyGlobSet7matches
FN:213,_RNvMss_Cs2iOcf8imwrr_12ryo3_globsetNtB5_9PyGlobSet8___call__
FN:191,_RNvMss_Cs2iOcf8imwrr_12ryo3_globsetNtB5_9PyGlobSet8___repr__
FN:226,_RNvMss_Cs2iOcf8imwrr_12ryo3_globsetNtB5_9PyGlobSet8globster
FN:199,_RNvMss_Cs2iOcf8imwrr_12ryo3_globsetNtB5_9PyGlobSet8is_empty
FN:209,_RNvMss_Cs2iOcf8imwrr_12ryo3_globsetNtB5_9PyGlobSet8is_match
FN:222,_RNvMss_Cs2iOcf8imwrr_12ryo3_globsetNtB5_9PyGlobSet8patterns
FN:142,_RNvMsu_Cs2iOcf8imwrr_12ryo3_globsetNtB5_9PyGlobSet20___pymethod___len____
FN:142,_RNvMsu_Cs2iOcf8imwrr_12ryo3_globsetNtB5_9PyGlobSet20___pymethod___str____
FN:142,_RNvMsu_Cs2iOcf8imwrr_12ryo3_globsetNtB5_9PyGlobSet21___pymethod___repr____
FN:142,_RNvMsu_Cs2iOcf8imwrr_12ryo3_globsetNtB5_9PyGlobSet21___pymethod_globster__
FN:142,_RNvMsu_Cs2iOcf8imwrr_12ryo3_globsetNtB5_9PyGlobSet21___pymethod_is_empty__
FN:142,_RNvMsu_Cs2iOcf8imwrr_12ryo3_globsetNtB5_9PyGlobSet25___pymethod_get_patterns__
FN:237,_RNvXCs2iOcf8imwrr_12ryo3_globsetNtB2_9PyGlobSetNtB2_14PyGlobPatterns12patterns_ref
FN:114,_RNCNvMse_Cs2iOcf8imwrr_12ryo3_globsetNtB7_6PyGlob7globset0B7_
FN:125,_RNCNvMse_Cs2iOcf8imwrr_12ryo3_globsetNtB7_6PyGlob8globster0B7_
FN:173,_RNCNvMss_Cs2iOcf8imwrr_12ryo3_globsetNtB7_9PyGlobSet6py_new0B7_
FN:179,_RNCNvMss_Cs2iOcf8imwrr_12ryo3_globsetNtB7_9PyGlobSet6py_news_0B7_
FN:34,_RNCNvYNtCs2iOcf8imwrr_12ryo3_globset9PyGlobSetNtB6_20PyGlobPatternsString15patterns_string0B6_
FN:34,_RNCNvYNtNtCs2iOcf8imwrr_12ryo3_globset8globster10PyGlobsterNtB8_20PyGlobPatternsString15patterns_string0B8_
FN:30,_RNvYNtCs2iOcf8imwrr_12ryo3_globset9PyGlobSetNtB4_20PyGlobPatternsString15patterns_stringB4_
FNDA:7,_RNvXs2_Cs2iOcf8imwrr_12ryo3_globsetNtNtB5_8globster10PyGlobsterINtNtCs66KPHxksi63_4core7convert7TryFromRNtB5_12GlobsterLikeE8try_from
FNDA:3,_RNvXs_Cs2iOcf8imwrr_12ryo3_globsetNtNtB4_8globster10PyGlobsterNtB4_14PyGlobPatterns12patterns_ref
FNDA:3,_RNvYNtNtCs2iOcf8imwrr_12ryo3_globset8globster10PyGlobsterNtB6_20PyGlobPatternsString15patterns_stringB6_
FNDA:9,_RNvCs2iOcf8imwrr_12ryo3_globset11py_globster
FNDA:8,_RNvCs2iOcf8imwrr_12ryo3_globset9pymod_add
FNDA:0,_RNvMse_Cs2iOcf8imwrr_12ryo3_globsetNtB5_6PyGlob10___invert__
FNDA:0,_RNvMse_Cs2iOcf8imwrr_12ryo3_globsetNtB5_6PyGlob12is_match_str
FNDA:0,_RNvMse_Cs2iOcf8imwrr_12ryo3_globsetNtB5_6PyGlob5regex
FNDA:6,_RNvMse_Cs2iOcf8imwrr_12ryo3_globsetNtB5_6PyGlob6py_new
FNDA:3,_RNvMse_Cs2iOcf8imwrr_12ryo3_globsetNtB5_6PyGlob7___str__
FNDA:1,_RNvMse_Cs2iOcf8imwrr_12ryo3_globsetNtB5_6PyGlob7globset
FNDA:2,_RNvMse_Cs2iOcf8imwrr_12ryo3_globsetNtB5_6PyGlob8___call__
FNDA:1,_RNvMse_Cs2iOcf8imwrr_12ryo3_globsetNtB5_6PyGlob8___repr__
FNDA:2,_RNvMse_Cs2iOcf8imwrr_12ryo3_globsetNtB5_6PyGlob8globster
FNDA:4,_RNvMse_Cs2iOcf8imwrr_12ryo3_globsetNtB5_6PyGlob8is_match
FNDA:0,_RNvMsg_Cs2iOcf8imwrr_12ryo3_globsetNtB5_6PyGlob20___pymethod___str____
FNDA:0,_RNvMsg_Cs2iOcf8imwrr_12ryo3_globsetNtB5_6PyGlob20___pymethod_globset__
FNDA:0,_RNvMsg_Cs2iOcf8imwrr_12ryo3_globsetNtB5_6PyGlob21___pymethod___repr____
FNDA:0,_RNvMsg_Cs2iOcf8imwrr_12ryo3_globsetNtB5_6PyGlob21___pymethod_globster__
FNDA:0,_RNvMsg_Cs2iOcf8imwrr_12ryo3_globsetNtB5_6PyGlob22___pymethod_get_regex__
FNDA:0,_RNvMsg_Cs2iOcf8imwrr_12ryo3_globsetNtB5_6PyGlob23___pymethod___invert____
FNDA:0,_RNvMss_Cs2iOcf8imwrr_12ryo3_globsetNtB5_9PyGlobSet12is_match_str
FNDA:1,_RNvMss_Cs2iOcf8imwrr_12ryo3_globsetNtB5_9PyGlobSet6py_new
FNDA:0,_RNvMss_Cs2iOcf8imwrr_12ryo3_globsetNtB5_9PyGlobSet7___len__
FNDA:3,_RNvMss_Cs2iOcf8imwrr_12ryo3_globsetNtB5_9PyGlobSet7___str__
FNDA:0,_RNvMss_Cs2iOcf8imwrr_12ryo3_globsetNtB5_9PyGlobSet7matches
FNDA:0,_RNvMss_Cs2iOcf8imwrr_12ryo3_globsetNtB5_9PyGlobSet8___call__
FNDA:1,_RNvMss_Cs2iOcf8imwrr_12ryo3_globsetNtB5_9PyGlobSet8___repr__
FNDA:1,_RNvMss_Cs2iOcf8imwrr_12ryo3_globsetNtB5_9PyGlobSet8globster
FNDA:0,_RNvMss_Cs2iOcf8imwrr_12ryo3_globsetNtB5_9PyGlobSet8is_empty
FNDA:0,_RNvMss_Cs2iOcf8imwrr_12ryo3_globsetNtB5_9PyGlobSet8is_match
FNDA:0,_RNvMss_Cs2iOcf8imwrr_12ryo3_globsetNtB5_9PyGlobSet8patterns
FNDA:0,_RNvMsu_Cs2iOcf8imwrr_12ryo3_globsetNtB5_9PyGlobSet20___pymethod___len____
FNDA:0,_RNvMsu_Cs2iOcf8imwrr_12ryo3_globsetNtB5_9PyGlobSet20___pymethod___str____
FNDA:0,_RNvMsu_Cs2iOcf8imwrr_12ryo3_globsetNtB5_9PyGlobSet21___pymethod___repr____
FNDA:0,_RNvMsu_Cs2iOcf8imwrr_12ryo3_globsetNtB5_9PyGlobSet21___pymethod_globster__
FNDA:0,_RNvMsu_Cs2iOcf8imwrr_12ryo3_globsetNtB5_9PyGlobSet21___pymethod_is_empty__
FNDA:0,_RNvMsu_Cs2iOcf8imwrr_12ryo3_globsetNtB5_9PyGlobSet25___pymethod_get_patterns__
FNDA:3,_RNvXCs2iOcf8imwrr_12ryo3_globsetNtB2_9PyGlobSetNtB2_14PyGlobPatterns12patterns_ref
FNDA:0,_RNCNvMse_Cs2iOcf8imwrr_12ryo3_globsetNtB7_6PyGlob7globset0B7_
FNDA:0,_RNCNvMse_Cs2iOcf8imwrr_12ryo3_globsetNtB7_6PyGlob8globster0B7_
FNDA:0,_RNCNvMss_Cs2iOcf8imwrr_12ryo3_globsetNtB7_9PyGlobSet6py_new0B7_
FNDA:0,_RNCNvMss_Cs2iOcf8imwrr_12ryo3_globsetNtB7_9PyGlobSet6py_news_0B7_
FNDA:6,_RNCNvYNtCs2iOcf8imwrr_12ryo3_globset9PyGlobSetNtB6_20PyGlobPatternsString15patterns_string0B6_
FNDA:6,_RNCNvYNtNtCs2iOcf8imwrr_12ryo3_globset8globster10PyGlobsterNtB8_20PyGlobPatternsString15patterns_string0B8_
FNDA:3,_RNvYNtCs2iOcf8imwrr_12ryo3_globset9PyGlobSetNtB4_20PyGlobPatternsString15patterns_stringB4_
FNF:34
FNH:18
DA:30,6
DA:31,6
DA:32,6
DA:33,6
DA:34,12
DA:35,6
DA:36,6
DA:37,6
DA:38,6
DA:41,0
DA:47,6
DA:48,6
DA:49,6
DA:50,6
DA:51,6
DA:52,6
DA:53,6
DA:54,6
DA:55,6
DA:56,6
DA:57,6
DA:58,6
DA:59,6
DA:60,6
DA:61,6
DA:62,6
DA:63,6
DA:64,6
DA:65,6
DA:66,6
DA:67,6
DA:68,6
DA:70,0
DA:72,6
DA:74,0
DA:75,0
DA:76,0
DA:77,0
DA:78,0
DA:79,0
DA:80,0
DA:81,0
DA:84,0
DA:85,0
DA:86,0
DA:89,4
DA:90,4
DA:91,4
DA:93,2
DA:94,2
DA:95,2
DA:97,3
DA:98,3
DA:99,3
DA:101,1
DA:102,1
DA:103,1
DA:106,0
DA:107,0
DA:108,0
DA:110,1
DA:111,1
DA:112,1
DA:113,1
DA:114,1
DA:115,1
DA:116,1
DA:117,1
DA:118,1
DA:119,1
DA:121,2
DA:122,2
DA:123,2
DA:124,2
DA:125,2
DA:126,2
DA:127,2
DA:128,2
DA:129,2
DA:130,2
DA:131,2
DA:132,2
DA:142,0
DA:148,1
DA:149,1
DA:150,1
DA:151,1
DA:152,1
DA:153,1
DA:154,1
DA:155,1
DA:156,1
DA:157,1
DA:158,1
DA:161,3
DA:162,2
DA:163,0
DA:164,2
DA:165,2
DA:166,0
DA:167,2
DA:168,2
DA:169,2
DA:170,2
DA:171,2
DA:172,2
DA:173,2
DA:174,2
DA:177,1
DA:178,1
DA:179,1
DA:180,1
DA:181,1
DA:182,1
DA:183,1
DA:184,1
DA:186,3
DA:187,3
DA:188,3
DA:189,3
DA:191,1
DA:192,1
DA:193,1
DA:195,0
DA:196,0
DA:197,0
DA:199,0
DA:200,0
DA:201,0
DA:204,0
DA:205,0
DA:206,0
DA:209,0
DA:210,0
DA:211,0
DA:213,0
DA:214,0
DA:215,0
DA:217,0
DA:218,0
DA:219,0
DA:222,0
DA:223,0
DA:224,0
DA:226,1
DA:227,1
DA:228,1
DA:229,1
DA:230,1
DA:231,1
DA:232,1
DA:233,1
DA:237,3
DA:238,3
DA:239,3
DA:243,3
DA:244,3
DA:245,3
DA:263,7
DA:264,7
DA:265,1
DA:266,1
DA:267,2
DA:268,2
DA:269,1
DA:271,7
DA:301,9
DA:302,9
DA:303,9
DA:304,9
DA:305,9
DA:306,9
DA:307,9
DA:308,9
DA:309,9
DA:310,9
DA:311,9
DA:312,9
DA:314,9
DA:316,8
DA:317,8
DA:318,8
DA:319,8
DA:320,8
DA:321,8
DA:322,8
BRF:0
BRH:0
LF:191
LH:147
end_of_record
SF:/home/jesse/ry/crates/ryo3-heck/src/lib.rs
FN:12,_RNvCs1tZxCT3ub5X_9ryo3_heck10camel_case
FN:12,_RNvCs1tZxCT3ub5X_9ryo3_heck10kebab_case
FN:12,_RNvCs1tZxCT3ub5X_9ryo3_heck10snake_case
FN:12,_RNvCs1tZxCT3ub5X_9ryo3_heck10title_case
FN:12,_RNvCs1tZxCT3ub5X_9ryo3_heck10train_case
FN:12,_RNvCs1tZxCT3ub5X_9ryo3_heck11pascal_case
FN:12,_RNvCs1tZxCT3ub5X_9ryo3_heck17shouty_kebab_case
FN:12,_RNvCs1tZxCT3ub5X_9ryo3_heck17shouty_snake_case
FN:28,_RNvCs1tZxCT3ub5X_9ryo3_heck9pymod_add
FN:12,_RNvCs1tZxCT3ub5X_9ryo3_heck9snek_case
FNDA:0,_RNvCs1tZxCT3ub5X_9ryo3_heck10camel_case
FNDA:0,_RNvCs1tZxCT3ub5X_9ryo3_heck10kebab_case
FNDA:0,_RNvCs1tZxCT3ub5X_9ryo3_heck10snake_case
FNDA:0,_RNvCs1tZxCT3ub5X_9ryo3_heck10title_case
FNDA:0,_RNvCs1tZxCT3ub5X_9ryo3_heck10train_case
FNDA:0,_RNvCs1tZxCT3ub5X_9ryo3_heck11pascal_case
FNDA:0,_RNvCs1tZxCT3ub5X_9ryo3_heck17shouty_kebab_case
FNDA:0,_RNvCs1tZxCT3ub5X_9ryo3_heck17shouty_snake_case
FNDA:8,_RNvCs1tZxCT3ub5X_9ryo3_heck9pymod_add
FNDA:0,_RNvCs1tZxCT3ub5X_9ryo3_heck9snek_case
FNF:2
FNH:1
DA:12,0
DA:13,0
DA:14,0
DA:28,8
DA:29,8
DA:30,8
DA:31,8
DA:32,8
DA:33,8
DA:34,8
DA:35,8
DA:36,8
DA:37,8
DA:39,8
DA:40,8
BRF:0
BRH:0
LF:15
LH:12
end_of_record
SF:/home/jesse/ry/crates/ryo3-http/src/headers.rs
FN:23,_RNCNvMNtCs55M5aevlvIR_9ryo3_http7headersNtB4_9PyHeaders14extract_kwargs0B6_
FN:26,_RNCNvMNtCs55M5aevlvIR_9ryo3_http7headersNtB4_9PyHeaders14extract_kwargss_0B6_
FN:276,_RNCNvMsd_NtCs55M5aevlvIR_9ryo3_http7headersNtB7_9PyHeaders4keys0B9_
FN:212,_RNCNvMsd_NtCs55M5aevlvIR_9ryo3_http7headersNtB7_9PyHeaders6append0B9_
FN:257,_RNCNvMsd_NtCs55M5aevlvIR_9ryo3_http7headersNtB7_9PyHeaders6insert0B9_
FN:258,_RNCNvMsd_NtCs55M5aevlvIR_9ryo3_http7headersNtB7_9PyHeaders6inserts_0B9_
FN:302,_RNCNvMsd_NtCs55M5aevlvIR_9ryo3_http7headersNtB7_9PyHeaders6values0B9_
FN:417,_RNCNvMsd_NtCs55M5aevlvIR_9ryo3_http7headersNtB7_9PyHeaders9from_json0B9_
FN:418,_RNCNvMsd_NtCs55M5aevlvIR_9ryo3_http7headersNtB7_9PyHeaders9from_jsons_0B9_
FN:388,_RNCNvMsd_NtCs55M5aevlvIR_9ryo3_http7headersNtB7_9PyHeaders9stringify0B9_
FN:392,_RNCNvMsd_NtCs55M5aevlvIR_9ryo3_http7headersNtB7_9PyHeaders9stringifys_0B9_
FN:18,_RNvMNtCs55M5aevlvIR_9ryo3_http7headersNtB2_9PyHeaders14extract_kwargs
FN:32,_RNvMNtCs55M5aevlvIR_9ryo3_http7headersNtB2_9PyHeaders5inner
FN:36,_RNvMNtCs55M5aevlvIR_9ryo3_http7headersNtB2_9PyHeaders7py_dict
FN:169,_RNvMsd_NtCs55M5aevlvIR_9ryo3_http7headersNtB5_9PyHeaders11___delitem__
FN:160,_RNvMsd_NtCs55M5aevlvIR_9ryo3_http7headersNtB5_9PyHeaders11___getitem__
FN:164,_RNvMsd_NtCs55M5aevlvIR_9ryo3_http7headersNtB5_9PyHeaders11___setitem__
FN:156,_RNvMsd_NtCs55M5aevlvIR_9ryo3_http7headersNtB5_9PyHeaders12___contains__
FN:226,_RNvMsd_NtCs55M5aevlvIR_9ryo3_http7headersNtB5_9PyHeaders12contains_key
FN:124,_RNvMsd_NtCs55M5aevlvIR_9ryo3_http7headersNtB5_9PyHeaders14___getnewargs__
FN:230,_RNvMsd_NtCs55M5aevlvIR_9ryo3_http7headersNtB5_9PyHeaders3get
FN:286,_RNvMsd_NtCs55M5aevlvIR_9ryo3_http7headersNtB5_9PyHeaders3len
FN:294,_RNvMsd_NtCs55M5aevlvIR_9ryo3_http7headersNtB5_9PyHeaders3pop
FN:272,_RNvMsd_NtCs55M5aevlvIR_9ryo3_http7headersNtB5_9PyHeaders4keys
FN:221,_RNvMsd_NtCs55M5aevlvIR_9ryo3_http7headersNtB5_9PyHeaders5clear
FN:369,_RNvMsd_NtCs55M5aevlvIR_9ryo3_http7headersNtB5_9PyHeaders5to_py
FN:146,_RNvMsd_NtCs55M5aevlvIR_9ryo3_http7headersNtB5_9PyHeaders6___eq__
FN:151,_RNvMsd_NtCs55M5aevlvIR_9ryo3_http7headersNtB5_9PyHeaders6___ne__
FN:348,_RNvMsd_NtCs55M5aevlvIR_9ryo3_http7headersNtB5_9PyHeaders6___or__
FN:208,_RNvMsd_NtCs55M5aevlvIR_9ryo3_http7headersNtB5_9PyHeaders6append
FN:377,_RNvMsd_NtCs55M5aevlvIR_9ryo3_http7headersNtB5_9PyHeaders6asdict
FN:249,_RNvMsd_NtCs55M5aevlvIR_9ryo3_http7headersNtB5_9PyHeaders6insert
FN:104,_RNvMsd_NtCs55M5aevlvIR_9ryo3_http7headersNtB5_9PyHeaders6py_new
FN:290,_RNvMsd_NtCs55M5aevlvIR_9ryo3_http7headersNtB5_9PyHeaders6remove
FN:309,_RNvMsd_NtCs55M5aevlvIR_9ryo3_http7headersNtB5_9PyHeaders6update
FN:298,_RNvMsd_NtCs55M5aevlvIR_9ryo3_http7headersNtB5_9PyHeaders6values
FN:131,_RNvMsd_NtCs55M5aevlvIR_9ryo3_http7headersNtB5_9PyHeaders7___dbg__
FN:141,_RNvMsd_NtCs55M5aevlvIR_9ryo3_http7headersNtB5_9PyHeaders7___len__
FN:234,_RNvMsd_NtCs55M5aevlvIR_9ryo3_http7headersNtB5_9PyHeaders7get_all
FN:216,_RNvMsd_NtCs55M5aevlvIR_9ryo3_http7headersNtB5_9PyHeaders7is_flat
FN:373,_RNvMsd_NtCs55M5aevlvIR_9ryo3_http7headersNtB5_9PyHeaders7to_dict
FN:267,_RNvMsd_NtCs55M5aevlvIR_9ryo3_http7headersNtB5_9PyHeaders8___bool__
FN:174,_RNvMsd_NtCs55M5aevlvIR_9ryo3_http7headersNtB5_9PyHeaders8___iter__
FN:136,_RNvMsd_NtCs55M5aevlvIR_9ryo3_http7headersNtB5_9PyHeaders8___repr__
FN:262,_RNvMsd_NtCs55M5aevlvIR_9ryo3_http7headersNtB5_9PyHeaders8is_empty
FN:281,_RNvMsd_NtCs55M5aevlvIR_9ryo3_http7headersNtB5_9PyHeaders8keys_len
FN:414,_RNvMsd_NtCs55M5aevlvIR_9ryo3_http7headersNtB5_9PyHeaders9from_json
FN:383,_RNvMsd_NtCs55M5aevlvIR_9ryo3_http7headersNtB5_9PyHeaders9stringify
FN:100,_RNvMsp_NtCs55M5aevlvIR_9ryo3_http7headersNtB5_9PyHeaders16___pymethod_len__
FN:100,_RNvMsp_NtCs55M5aevlvIR_9ryo3_http7headersNtB5_9PyHeaders17___pymethod_keys__
FN:100,_RNvMsp_NtCs55M5aevlvIR_9ryo3_http7headersNtB5_9PyHeaders18___pymethod_clear__
FN:100,_RNvMsp_NtCs55M5aevlvIR_9ryo3_http7headersNtB5_9PyHeaders18___pymethod_to_py__
FN:100,_RNvMsp_NtCs55M5aevlvIR_9ryo3_http7headersNtB5_9PyHeaders19___pymethod_asdict__
FN:100,_RNvMsp_NtCs55M5aevlvIR_9ryo3_http7headersNtB5_9PyHeaders19___pymethod_values__
FN:100,_RNvMsp_NtCs55M5aevlvIR_9ryo3_http7headersNtB5_9PyHeaders20___pymethod___dbg____
FN:100,_RNvMsp_NtCs55M5aevlvIR_9ryo3_http7headersNtB5_9PyHeaders20___pymethod___len____
FN:100,_RNvMsp_NtCs55M5aevlvIR_9ryo3_http7headersNtB5_9PyHeaders20___pymethod_to_dict__
FN:100,_RNvMsp_NtCs55M5aevlvIR_9ryo3_http7headersNtB5_9PyHeaders21___pymethod___bool____
FN:100,_RNvMsp_NtCs55M5aevlvIR_9ryo3_http7headersNtB5_9PyHeaders21___pymethod___iter____
FN:100,_RNvMsp_NtCs55M5aevlvIR_9ryo3_http7headersNtB5_9PyHeaders21___pymethod___repr____
FN:100,_RNvMsp_NtCs55M5aevlvIR_9ryo3_http7headersNtB5_9PyHeaders21___pymethod_is_empty__
FN:100,_RNvMsp_NtCs55M5aevlvIR_9ryo3_http7headersNtB5_9PyHeaders21___pymethod_keys_len__
FN:100,_RNvMsp_NtCs55M5aevlvIR_9ryo3_http7headersNtB5_9PyHeaders24___pymethod_get_is_flat__
FN:100,_RNvMsp_NtCs55M5aevlvIR_9ryo3_http7headersNtB5_9PyHeaders27___pymethod___getnewargs____
FN:89,_RNvXs0_NtCs55M5aevlvIR_9ryo3_http7headersNtB5_9PyHeadersNtNtCs66KPHxksi63_4core3cmp9PartialEq2eq
FN:95,_RNvXs1_NtCs55M5aevlvIR_9ryo3_http7headersNtB5_9PyHeadersINtNtCs66KPHxksi63_4core7convert4FromNtNtNtCs3mFT1WUIgr4_4http6header3map9HeaderMapE4from
FN:82,_RNvXs_NtCs55M5aevlvIR_9ryo3_http7headersNtB4_9PyHeadersNtNtCs66KPHxksi63_4core3fmt7Display3fmt
FNDA:0,_RNCNvMNtCs55M5aevlvIR_9ryo3_http7headersNtB4_9PyHeaders14extract_kwargs0B6_
FNDA:0,_RNCNvMNtCs55M5aevlvIR_9ryo3_http7headersNtB4_9PyHeaders14extract_kwargss_0B6_
FNDA:12,_RNCNvMsd_NtCs55M5aevlvIR_9ryo3_http7headersNtB7_9PyHeaders4keys0B9_
FNDA:0,_RNCNvMsd_NtCs55M5aevlvIR_9ryo3_http7headersNtB7_9PyHeaders6append0B9_
FNDA:0,_RNCNvMsd_NtCs55M5aevlvIR_9ryo3_http7headersNtB7_9PyHeaders6insert0B9_
FNDA:0,_RNCNvMsd_NtCs55M5aevlvIR_9ryo3_http7headersNtB7_9PyHeaders6inserts_0B9_
FNDA:0,_RNCNvMsd_NtCs55M5aevlvIR_9ryo3_http7headersNtB7_9PyHeaders6values0B9_
FNDA:0,_RNCNvMsd_NtCs55M5aevlvIR_9ryo3_http7headersNtB7_9PyHeaders9from_json0B9_
FNDA:0,_RNCNvMsd_NtCs55M5aevlvIR_9ryo3_http7headersNtB7_9PyHeaders9from_jsons_0B9_
FNDA:0,_RNCNvMsd_NtCs55M5aevlvIR_9ryo3_http7headersNtB7_9PyHeaders9stringify0B9_
FNDA:0,_RNCNvMsd_NtCs55M5aevlvIR_9ryo3_http7headersNtB7_9PyHeaders9stringifys_0B9_
FNDA:2,_RNvMNtCs55M5aevlvIR_9ryo3_http7headersNtB2_9PyHeaders14extract_kwargs
FNDA:5,_RNvMNtCs55M5aevlvIR_9ryo3_http7headersNtB2_9PyHeaders5inner
FNDA:5,_RNvMNtCs55M5aevlvIR_9ryo3_http7headersNtB2_9PyHeaders7py_dict
FNDA:0,_RNvMsd_NtCs55M5aevlvIR_9ryo3_http7headersNtB5_9PyHeaders11___delitem__
FNDA:20,_RNvMsd_NtCs55M5aevlvIR_9ryo3_http7headersNtB5_9PyHeaders11___getitem__
FNDA:0,_RNvMsd_NtCs55M5aevlvIR_9ryo3_http7headersNtB5_9PyHeaders11___setitem__
FNDA:1,_RNvMsd_NtCs55M5aevlvIR_9ryo3_http7headersNtB5_9PyHeaders12___contains__
FNDA:1,_RNvMsd_NtCs55M5aevlvIR_9ryo3_http7headersNtB5_9PyHeaders12contains_key
FNDA:1,_RNvMsd_NtCs55M5aevlvIR_9ryo3_http7headersNtB5_9PyHeaders14___getnewargs__
FNDA:2,_RNvMsd_NtCs55M5aevlvIR_9ryo3_http7headersNtB5_9PyHeaders3get
FNDA:0,_RNvMsd_NtCs55M5aevlvIR_9ryo3_http7headersNtB5_9PyHeaders3len
FNDA:1,_RNvMsd_NtCs55M5aevlvIR_9ryo3_http7headersNtB5_9PyHeaders3pop
FNDA:4,_RNvMsd_NtCs55M5aevlvIR_9ryo3_http7headersNtB5_9PyHeaders4keys
FNDA:1,_RNvMsd_NtCs55M5aevlvIR_9ryo3_http7headersNtB5_9PyHeaders5clear
FNDA:4,_RNvMsd_NtCs55M5aevlvIR_9ryo3_http7headersNtB5_9PyHeaders5to_py
FNDA:5,_RNvMsd_NtCs55M5aevlvIR_9ryo3_http7headersNtB5_9PyHeaders6___eq__
FNDA:0,_RNvMsd_NtCs55M5aevlvIR_9ryo3_http7headersNtB5_9PyHeaders6___ne__
FNDA:0,_RNvMsd_NtCs55M5aevlvIR_9ryo3_http7headersNtB5_9PyHeaders6___or__
FNDA:5,_RNvMsd_NtCs55M5aevlvIR_9ryo3_http7headersNtB5_9PyHeaders6append
FNDA:4,_RNvMsd_NtCs55M5aevlvIR_9ryo3_http7headersNtB5_9PyHeaders6asdict
FNDA:0,_RNvMsd_NtCs55M5aevlvIR_9ryo3_http7headersNtB5_9PyHeaders6insert
FNDA:21,_RNvMsd_NtCs55M5aevlvIR_9ryo3_http7headersNtB5_9PyHeaders6py_new
FNDA:1,_RNvMsd_NtCs55M5aevlvIR_9ryo3_http7headersNtB5_9PyHeaders6remove
FNDA:1,_RNvMsd_NtCs55M5aevlvIR_9ryo3_http7headersNtB5_9PyHeaders6update
FNDA:0,_RNvMsd_NtCs55M5aevlvIR_9ryo3_http7headersNtB5_9PyHeaders6values
FNDA:0,_RNvMsd_NtCs55M5aevlvIR_9ryo3_http7headersNtB5_9PyHeaders7___dbg__
FNDA:11,_RNvMsd_NtCs55M5aevlvIR_9ryo3_http7headersNtB5_9PyHeaders7___len__
FNDA:1,_RNvMsd_NtCs55M5aevlvIR_9ryo3_http7headersNtB5_9PyHeaders7get_all
FNDA:0,_RNvMsd_NtCs55M5aevlvIR_9ryo3_http7headersNtB5_9PyHeaders7is_flat
FNDA:0,_RNvMsd_NtCs55M5aevlvIR_9ryo3_http7headersNtB5_9PyHeaders7to_dict
FNDA:0,_RNvMsd_NtCs55M5aevlvIR_9ryo3_http7headersNtB5_9PyHeaders8___bool__
FNDA:0,_RNvMsd_NtCs55M5aevlvIR_9ryo3_http7headersNtB5_9PyHeaders8___iter__
FNDA:1,_RNvMsd_NtCs55M5aevlvIR_9ryo3_http7headersNtB5_9PyHeaders8___repr__
FNDA:0,_RNvMsd_NtCs55M5aevlvIR_9ryo3_http7headersNtB5_9PyHeaders8is_empty
FNDA:6,_RNvMsd_NtCs55M5aevlvIR_9ryo3_http7headersNtB5_9PyHeaders8keys_len
FNDA:0,_RNvMsd_NtCs55M5aevlvIR_9ryo3_http7headersNtB5_9PyHeaders9from_json
FNDA:5,_RNvMsd_NtCs55M5aevlvIR_9ryo3_http7headersNtB5_9PyHeaders9stringify
FNDA:0,_RNvMsp_NtCs55M5aevlvIR_9ryo3_http7headersNtB5_9PyHeaders16___pymethod_len__
FNDA:0,_RNvMsp_NtCs55M5aevlvIR_9ryo3_http7headersNtB5_9PyHeaders17___pymethod_keys__
FNDA:0,_RNvMsp_NtCs55M5aevlvIR_9ryo3_http7headersNtB5_9PyHeaders18___pymethod_clear__
FNDA:0,_RNvMsp_NtCs55M5aevlvIR_9ryo3_http7headersNtB5_9PyHeaders18___pymethod_to_py__
FNDA:0,_RNvMsp_NtCs55M5aevlvIR_9ryo3_http7headersNtB5_9PyHeaders19___pymethod_asdict__
FNDA:0,_RNvMsp_NtCs55M5aevlvIR_9ryo3_http7headersNtB5_9PyHeaders19___pymethod_values__
FNDA:0,_RNvMsp_NtCs55M5aevlvIR_9ryo3_http7headersNtB5_9PyHeaders20___pymethod___dbg____
FNDA:0,_RNvMsp_NtCs55M5aevlvIR_9ryo3_http7headersNtB5_9PyHeaders20___pymethod___len____
FNDA:0,_RNvMsp_NtCs55M5aevlvIR_9ryo3_http7headersNtB5_9PyHeaders20___pymethod_to_dict__
FNDA:0,_RNvMsp_NtCs55M5aevlvIR_9ryo3_http7headersNtB5_9PyHeaders21___pymethod___bool____
FNDA:0,_RNvMsp_NtCs55M5aevlvIR_9ryo3_http7headersNtB5_9PyHeaders21___pymethod___iter____
FNDA:0,_RNvMsp_NtCs55M5aevlvIR_9ryo3_http7headersNtB5_9PyHeaders21___pymethod___repr____
FNDA:0,_RNvMsp_NtCs55M5aevlvIR_9ryo3_http7headersNtB5_9PyHeaders21___pymethod_is_empty__
FNDA:0,_RNvMsp_NtCs55M5aevlvIR_9ryo3_http7headersNtB5_9PyHeaders21___pymethod_keys_len__
FNDA:0,_RNvMsp_NtCs55M5aevlvIR_9ryo3_http7headersNtB5_9PyHeaders24___pymethod_get_is_flat__
FNDA:0,_RNvMsp_NtCs55M5aevlvIR_9ryo3_http7headersNtB5_9PyHeaders27___pymethod___getnewargs____
FNDA:0,_RNvXs0_NtCs55M5aevlvIR_9ryo3_http7headersNtB5_9PyHeadersNtNtCs66KPHxksi63_4core3cmp9PartialEq2eq
FNDA:26,_RNvXs1_NtCs55M5aevlvIR_9ryo3_http7headersNtB5_9PyHeadersINtNtCs66KPHxksi63_4core7convert4FromNtNtNtCs3mFT1WUIgr4_4http6header3map9HeaderMapE4from
FNDA:1,_RNvXs_NtCs55M5aevlvIR_9ryo3_http7headersNtB4_9PyHeadersNtNtCs66KPHxksi63_4core3fmt7Display3fmt
FNF:52
FNH:26
DA:18,2
DA:19,2
DA:20,4
DA:21,4
DA:22,4
DA:23,4
DA:24,4
DA:25,4
DA:26,4
DA:27,4
DA:29,2
DA:30,2
DA:32,5
DA:33,5
DA:34,5
DA:36,5
DA:37,5
DA:38,5
DA:39,0
DA:40,5
DA:42,4
DA:43,14
DA:44,14
DA:45,14
DA:46,14
DA:48,4
DA:51,1
DA:52,1
DA:53,1
DA:54,1
DA:55,1
DA:56,0
DA:57,0
DA:58,0
DA:60,0
DA:61,0
DA:64,1
DA:65,3
DA:66,2
DA:67,2
DA:69,0
DA:70,0
DA:73,1
DA:76,1
DA:78,5
DA:82,1
DA:83,1
DA:84,1
DA:85,1
DA:89,0
DA:90,0
DA:91,0
DA:95,26
DA:96,26
DA:97,26
DA:100,0
DA:104,21
DA:105,21
DA:106,1
DA:107,1
DA:108,1
DA:109,1
DA:110,1
DA:112,19
DA:113,19
DA:114,19
DA:116,1
DA:117,1
DA:118,1
DA:120,0
DA:122,21
DA:124,1
DA:125,1
DA:126,1
DA:127,1
DA:131,0
DA:132,0
DA:133,0
DA:136,1
DA:137,1
DA:138,1
DA:141,11
DA:142,11
DA:143,11
DA:146,5
DA:147,5
DA:148,5
DA:151,0
DA:152,0
DA:153,0
DA:156,1
DA:157,1
DA:158,1
DA:160,20
DA:161,20
DA:162,20
DA:164,0
DA:165,0
DA:166,0
DA:167,0
DA:169,0
DA:170,0
DA:171,0
DA:174,0
DA:175,0
DA:176,0
DA:208,5
DA:209,5
DA:210,5
DA:211,5
DA:212,5
DA:213,5
DA:216,0
DA:217,0
DA:218,0
DA:219,0
DA:221,1
DA:222,1
DA:223,1
DA:226,1
DA:227,1
DA:228,1
DA:230,2
DA:231,2
DA:232,2
DA:234,1
DA:236,1
DA:237,2
DA:238,2
DA:239,2
DA:240,0
DA:241,0
DA:242,0
DA:246,1
DA:247,1
DA:249,0
DA:250,0
DA:251,0
DA:252,0
DA:253,0
DA:254,0
DA:255,0
DA:256,0
DA:257,0
DA:258,0
DA:259,0
DA:262,0
DA:263,0
DA:264,0
DA:267,0
DA:268,0
DA:269,0
DA:272,4
DA:273,4
DA:274,4
DA:275,4
DA:276,12
DA:277,4
DA:278,4
DA:281,6
DA:282,6
DA:283,6
DA:286,0
DA:287,0
DA:288,0
DA:290,1
DA:291,1
DA:292,1
DA:294,1
DA:295,1
DA:296,1
DA:298,0
DA:299,0
DA:300,0
DA:301,0
DA:302,0
DA:303,0
DA:305,0
DA:306,0
DA:309,1
DA:310,1
DA:311,0
DA:312,0
DA:313,0
DA:314,0
DA:315,0
DA:316,0
DA:317,0
DA:318,0
DA:319,0
DA:320,0
DA:322,0
DA:323,0
DA:324,0
DA:327,1
DA:328,1
DA:330,1
DA:331,0
DA:332,0
DA:333,0
DA:334,0
DA:337,2
DA:338,1
DA:339,1
DA:340,1
DA:345,1
DA:346,1
DA:348,0
DA:349,0
DA:350,0
DA:351,0
DA:352,0
DA:353,0
DA:354,0
DA:355,0
DA:357,0
DA:358,0
DA:359,0
DA:360,0
DA:361,0
DA:362,0
DA:366,0
DA:367,0
DA:369,4
DA:370,4
DA:371,4
DA:373,0
DA:374,0
DA:375,0
DA:377,4
DA:378,4
DA:379,4
DA:383,5
DA:385,5
DA:386,5
DA:387,1
DA:388,1
DA:389,1
DA:391,4
DA:392,4
DA:393,4
DA:396,5
DA:414,0
DA:416,0
DA:417,0
DA:418,0
DA:419,0
BRF:0
BRH:0
LF:258
LH:143
end_of_record
SF:/home/jesse/ry/crates/ryo3-http/src/headers_like.rs
FN:15,_RNvMNtCs55M5aevlvIR_9ryo3_http12headers_likeNtB2_13PyHeadersLike11map2headers
FN:21,_RNCNvMNtCs55M5aevlvIR_9ryo3_http12headers_likeNtB4_13PyHeadersLike11map2headers0B6_
FN:28,_RNCNvMNtCs55M5aevlvIR_9ryo3_http12headers_likeNtB4_13PyHeadersLike11map2headerss0_0B6_
FN:30,_RNCNvMNtCs55M5aevlvIR_9ryo3_http12headers_likeNtB4_13PyHeadersLike11map2headerss1_0B6_
FN:23,_RNCNvMNtCs55M5aevlvIR_9ryo3_http12headers_likeNtB4_13PyHeadersLike11map2headerss_0B6_
FN:48,_RNCNvXs_NtCs55M5aevlvIR_9ryo3_http12headers_likeNtNtNtCs3mFT1WUIgr4_4http6header3map9HeaderMapINtNtCs66KPHxksi63_4core7convert7TryFromNtB6_13PyHeadersLikeE8try_from0B8_
FN:44,_RNvXs_NtCs55M5aevlvIR_9ryo3_http12headers_likeNtNtNtCs3mFT1WUIgr4_4http6header3map9HeaderMapINtNtCs66KPHxksi63_4core7convert7TryFromNtB4_13PyHeadersLikeE8try_from
FN:55,_RNvXs0_NtCs55M5aevlvIR_9ryo3_http12headers_likeNtNtB7_7headers9PyHeadersINtNtCs66KPHxksi63_4core7convert7TryFromNtB5_13PyHeadersLikeE8try_from
FNDA:23,_RNvMNtCs55M5aevlvIR_9ryo3_http12headers_likeNtB2_13PyHeadersLike11map2headers
FNDA:0,_RNCNvMNtCs55M5aevlvIR_9ryo3_http12headers_likeNtB4_13PyHeadersLike11map2headers0B6_
FNDA:0,_RNCNvMNtCs55M5aevlvIR_9ryo3_http12headers_likeNtB4_13PyHeadersLike11map2headerss0_0B6_
FNDA:0,_RNCNvMNtCs55M5aevlvIR_9ryo3_http12headers_likeNtB4_13PyHeadersLike11map2headerss1_0B6_
FNDA:0,_RNCNvMNtCs55M5aevlvIR_9ryo3_http12headers_likeNtB4_13PyHeadersLike11map2headerss_0B6_
FNDA:0,_RNCNvXs_NtCs55M5aevlvIR_9ryo3_http12headers_likeNtNtNtCs3mFT1WUIgr4_4http6header3map9HeaderMapINtNtCs66KPHxksi63_4core7convert7TryFromNtB6_13PyHeadersLikeE8try_from0B8_
FNDA:22,_RNvXs_NtCs55M5aevlvIR_9ryo3_http12headers_likeNtNtNtCs3mFT1WUIgr4_4http6header3map9HeaderMapINtNtCs66KPHxksi63_4core7convert7TryFromNtB4_13PyHeadersLikeE8try_from
FNDA:1,_RNvXs0_NtCs55M5aevlvIR_9ryo3_http12headers_likeNtNtB7_7headers9PyHeadersINtNtCs66KPHxksi63_4core7convert7TryFromNtB5_13PyHeadersLikeE8try_from
FNF:8
FNH:3
DA:15,23
DA:16,23
DA:17,71
DA:18,48
DA:19,47
DA:20,47
DA:21,47
DA:22,47
DA:23,47
DA:24,47
DA:26,1
DA:27,1
DA:28,1
DA:29,3
DA:30,2
DA:31,0
DA:32,0
DA:33,2
DA:38,23
DA:39,23
DA:44,22
DA:45,22
DA:46,1
DA:47,21
DA:48,21
DA:50,22
DA:55,1
DA:56,1
DA:57,0
DA:58,1
DA:59,1
DA:60,1
DA:63,1
BRF:0
BRH:0
LF:39
LH:30
end_of_record
SF:/home/jesse/ry/crates/ryo3-http/src/http_serde.rs
FN:46,_RINvXs1_NtCs55M5aevlvIR_9ryo3_http10http_serdeNtB6_15HeaderValuesRefNtNtCs3fLGeRDR8xN_5serde3ser9Serialize9serializeNtNtNtCs1nD62ErW5hY_10serde_json5value3ser10SerializerECseRQUDV3LdmP_9ryo3_json
FN:85,_RINvXs3_NtCs55M5aevlvIR_9ryo3_http10http_serdeNtB6_16HttpHeaderMapRefNtNtCs3fLGeRDR8xN_5serde3ser9Serialize9serializeNtNtNtCs1nD62ErW5hY_10serde_json5value3ser10SerializerECseRQUDV3LdmP_9ryo3_json
FN:90,_RNCINvXs3_NtCs55M5aevlvIR_9ryo3_http10http_serdeNtB8_16HttpHeaderMapRefNtNtCs3fLGeRDR8xN_5serde3ser9Serialize9serializeNtNtNtCs1nD62ErW5hY_10serde_json5value3ser10SerializerE0CseRQUDV3LdmP_9ryo3_json
FN:94,_RNCINvXs3_NtCs55M5aevlvIR_9ryo3_http10http_serdeNtB8_16HttpHeaderMapRefNtNtCs3fLGeRDR8xN_5serde3ser9Serialize9serializeNtNtNtCs1nD62ErW5hY_10serde_json5value3ser10SerializerEs_0CseRQUDV3LdmP_9ryo3_json
FN:74,_RINvXs2_NtCs55M5aevlvIR_9ryo3_http10http_serdeNtNtB8_10http_types17HttpHeaderNameRefNtNtCs3fLGeRDR8xN_5serde3ser9Serialize9serializeNtNtNtCs1nD62ErW5hY_10serde_json5value3ser16MapKeySerializerECseRQUDV3LdmP_9ryo3_json
FN:19,_RINvXs_NtCs55M5aevlvIR_9ryo3_http10http_serdeNtNtB7_11status_code12PyHttpStatusNtNtCs3fLGeRDR8xN_5serde3ser9Serialize9serializeNtNtNtCs1nD62ErW5hY_10serde_json5value3ser10SerializerECseRQUDV3LdmP_9ryo3_json
FN:19,_RINvXs_NtCs55M5aevlvIR_9ryo3_http10http_serdeNtNtB7_11status_code12PyHttpStatusNtNtCs3fLGeRDR8xN_5serde3ser9Serialize9serializeQINtNtCs1nD62ErW5hY_10serde_json3ser10SerializerQINtNtCs8Ty2CzGA6U3_5alloc3vec3VechEEECseRQUDV3LdmP_9ryo3_json
FN:19,_RINvXs_NtCs55M5aevlvIR_9ryo3_http10http_serdeNtNtB7_11status_code12PyHttpStatusNtNtCs3fLGeRDR8xN_5serde3ser9Serialize9serializeQINtNtCs1nD62ErW5hY_10serde_json3ser10SerializerQINtNtCs8Ty2CzGA6U3_5alloc3vec3VechENtB25_15PrettyFormatterEECseRQUDV3LdmP_9ryo3_json
FN:32,_RINvXs0_NtCs55M5aevlvIR_9ryo3_http10http_serdeNtNtB8_7headers9PyHeadersNtNtCs3fLGeRDR8xN_5serde3ser9Serialize9serializeNtNtNtCs1nD62ErW5hY_10serde_json5value3ser10SerializerECseRQUDV3LdmP_9ryo3_json
FN:32,_RINvXs0_NtCs55M5aevlvIR_9ryo3_http10http_serdeNtNtB8_7headers9PyHeadersNtNtCs3fLGeRDR8xN_5serde3ser9Serialize9serializeQINtNtCs1nD62ErW5hY_10serde_json3ser10SerializerQINtNtCs8Ty2CzGA6U3_5alloc3vec3VechEEECseRQUDV3LdmP_9ryo3_json
FN:32,_RINvXs0_NtCs55M5aevlvIR_9ryo3_http10http_serdeNtNtB8_7headers9PyHeadersNtNtCs3fLGeRDR8xN_5serde3ser9Serialize9serializeQINtNtCs1nD62ErW5hY_10serde_json3ser10SerializerQINtNtCs8Ty2CzGA6U3_5alloc3vec3VechENtB1X_15PrettyFormatterEECseRQUDV3LdmP_9ryo3_json
FN:19,_RINvXs_NtCs55M5aevlvIR_9ryo3_http10http_serdeNtNtB7_11status_code12PyHttpStatusNtNtCs3fLGeRDR8xN_5serde3ser9Serialize9serializeQINtNtCs1nD62ErW5hY_10serde_json3ser10SerializerQINtNtCs8Ty2CzGA6U3_5alloc3vec3VechEEECs3QWMMxPHX46_12ryo3_reqwest
FN:32,_RINvXs0_NtCs55M5aevlvIR_9ryo3_http10http_serdeNtNtB8_7headers9PyHeadersNtNtCs3fLGeRDR8xN_5serde3ser9Serialize9serializeQINtNtCs1nD62ErW5hY_10serde_json3ser10SerializerQINtNtCs8Ty2CzGA6U3_5alloc3vec3VechEEECs3QWMMxPHX46_12ryo3_reqwest
FN:46,_RINvXs1_NtCs55M5aevlvIR_9ryo3_http10http_serdeNtB6_15HeaderValuesRefNtNtCs3fLGeRDR8xN_5serde3ser9Serialize9serializeQINtNtCs1nD62ErW5hY_10serde_json3ser10SerializerQINtNtCs8Ty2CzGA6U3_5alloc3vec3VechEEEB8_
FN:46,_RINvXs1_NtCs55M5aevlvIR_9ryo3_http10http_serdeNtB6_15HeaderValuesRefNtNtCs3fLGeRDR8xN_5serde3ser9Serialize9serializeQINtNtCs1nD62ErW5hY_10serde_json3ser10SerializerQINtNtCs8Ty2CzGA6U3_5alloc3vec3VechENtB1U_15PrettyFormatterEEB8_
FN:85,_RINvXs3_NtCs55M5aevlvIR_9ryo3_http10http_serdeNtB6_16HttpHeaderMapRefNtNtCs3fLGeRDR8xN_5serde3ser9Serialize9serializeQINtNtCs1nD62ErW5hY_10serde_json3ser10SerializerQINtNtCs8Ty2CzGA6U3_5alloc3vec3VechEEEB8_
FN:85,_RINvXs3_NtCs55M5aevlvIR_9ryo3_http10http_serdeNtB6_16HttpHeaderMapRefNtNtCs3fLGeRDR8xN_5serde3ser9Serialize9serializeQINtNtCs1nD62ErW5hY_10serde_json3ser10SerializerQINtNtCs8Ty2CzGA6U3_5alloc3vec3VechENtB1V_15PrettyFormatterEEB8_
FN:115,_RINvXs4_NtCs55M5aevlvIR_9ryo3_http10http_serdeNtB6_16HeaderMapVisitorNtNtCs3fLGeRDR8xN_5serde2de7Visitor9visit_mapINtNtCs1nD62ErW5hY_10serde_json2de9MapAccessNtNtB1T_4read7StrReadEEB8_
FN:90,_RNCINvXs3_NtCs55M5aevlvIR_9ryo3_http10http_serdeNtB8_16HttpHeaderMapRefNtNtCs3fLGeRDR8xN_5serde3ser9Serialize9serializeQINtNtCs1nD62ErW5hY_10serde_json3ser10SerializerQINtNtCs8Ty2CzGA6U3_5alloc3vec3VechEEE0Ba_
FN:94,_RNCINvXs3_NtCs55M5aevlvIR_9ryo3_http10http_serdeNtB8_16HttpHeaderMapRefNtNtCs3fLGeRDR8xN_5serde3ser9Serialize9serializeQINtNtCs1nD62ErW5hY_10serde_json3ser10SerializerQINtNtCs8Ty2CzGA6U3_5alloc3vec3VechEEEs_0Ba_
FN:90,_RNCINvXs3_NtCs55M5aevlvIR_9ryo3_http10http_serdeNtB8_16HttpHeaderMapRefNtNtCs3fLGeRDR8xN_5serde3ser9Serialize9serializeQINtNtCs1nD62ErW5hY_10serde_json3ser10SerializerQINtNtCs8Ty2CzGA6U3_5alloc3vec3VechENtB1X_15PrettyFormatterEE0Ba_
FN:94,_RNCINvXs3_NtCs55M5aevlvIR_9ryo3_http10http_serdeNtB8_16HttpHeaderMapRefNtNtCs3fLGeRDR8xN_5serde3ser9Serialize9serializeQINtNtCs1nD62ErW5hY_10serde_json3ser10SerializerQINtNtCs8Ty2CzGA6U3_5alloc3vec3VechENtB1X_15PrettyFormatterEEs_0Ba_
FN:123,_RNCINvXs4_NtCs55M5aevlvIR_9ryo3_http10http_serdeNtB8_16HeaderMapVisitorNtNtCs3fLGeRDR8xN_5serde2de7Visitor9visit_mapINtNtCs1nD62ErW5hY_10serde_json2de9MapAccessNtNtB1V_4read7StrReadEE0Ba_
FN:134,_RNCINvXs4_NtCs55M5aevlvIR_9ryo3_http10http_serdeNtB8_16HeaderMapVisitorNtNtCs3fLGeRDR8xN_5serde2de7Visitor9visit_mapINtNtCs1nD62ErW5hY_10serde_json2de9MapAccessNtNtB1V_4read7StrReadEEs0_0Ba_
FN:127,_RNCINvXs4_NtCs55M5aevlvIR_9ryo3_http10http_serdeNtB8_16HeaderMapVisitorNtNtCs3fLGeRDR8xN_5serde2de7Visitor9visit_mapINtNtCs1nD62ErW5hY_10serde_json2de9MapAccessNtNtB1V_4read7StrReadEEs_0Ba_
FN:111,_RNvXs4_NtCs55M5aevlvIR_9ryo3_http10http_serdeNtB5_16HeaderMapVisitorNtNtCs3fLGeRDR8xN_5serde2de7Visitor9expecting
FN:74,_RINvXs2_NtCs55M5aevlvIR_9ryo3_http10http_serdeNtNtB8_10http_types17HttpHeaderNameRefNtNtCs3fLGeRDR8xN_5serde3ser9Serialize9serializeINtNtCs1nD62ErW5hY_10serde_json3ser16MapKeySerializerQINtNtCs8Ty2CzGA6U3_5alloc3vec3VechENtB29_15PrettyFormatterEEB8_
FN:74,_RINvXs2_NtCs55M5aevlvIR_9ryo3_http10http_serdeNtNtB8_10http_types17HttpHeaderNameRefNtNtCs3fLGeRDR8xN_5serde3ser9Serialize9serializeINtNtCs1nD62ErW5hY_10serde_json3ser16MapKeySerializerQINtNtCs8Ty2CzGA6U3_5alloc3vec3VechENtB29_16CompactFormatterEEB8_
FN:147,_RINvXs5_NtCs55M5aevlvIR_9ryo3_http10http_serdeNtNtB8_10http_types13HttpHeaderMapNtNtCs3fLGeRDR8xN_5serde2de11Deserialize11deserializeQINtNtCs1nD62ErW5hY_10serde_json2de12DeserializerNtNtB2d_4read7StrReadEEB8_
FNDA:0,_RINvXs1_NtCs55M5aevlvIR_9ryo3_http10http_serdeNtB6_15HeaderValuesRefNtNtCs3fLGeRDR8xN_5serde3ser9Serialize9serializeNtNtNtCs1nD62ErW5hY_10serde_json5value3ser10SerializerECseRQUDV3LdmP_9ryo3_json
FNDA:0,_RINvXs3_NtCs55M5aevlvIR_9ryo3_http10http_serdeNtB6_16HttpHeaderMapRefNtNtCs3fLGeRDR8xN_5serde3ser9Serialize9serializeNtNtNtCs1nD62ErW5hY_10serde_json5value3ser10SerializerECseRQUDV3LdmP_9ryo3_json
FNDA:0,_RNCINvXs3_NtCs55M5aevlvIR_9ryo3_http10http_serdeNtB8_16HttpHeaderMapRefNtNtCs3fLGeRDR8xN_5serde3ser9Serialize9serializeNtNtNtCs1nD62ErW5hY_10serde_json5value3ser10SerializerE0CseRQUDV3LdmP_9ryo3_json
FNDA:0,_RNCINvXs3_NtCs55M5aevlvIR_9ryo3_http10http_serdeNtB8_16HttpHeaderMapRefNtNtCs3fLGeRDR8xN_5serde3ser9Serialize9serializeNtNtNtCs1nD62ErW5hY_10serde_json5value3ser10SerializerEs_0CseRQUDV3LdmP_9ryo3_json
FNDA:0,_RINvXs2_NtCs55M5aevlvIR_9ryo3_http10http_serdeNtNtB8_10http_types17HttpHeaderNameRefNtNtCs3fLGeRDR8xN_5serde3ser9Serialize9serializeNtNtNtCs1nD62ErW5hY_10serde_json5value3ser16MapKeySerializerECseRQUDV3LdmP_9ryo3_json
FNDA:0,_RINvXs_NtCs55M5aevlvIR_9ryo3_http10http_serdeNtNtB7_11status_code12PyHttpStatusNtNtCs3fLGeRDR8xN_5serde3ser9Serialize9serializeNtNtNtCs1nD62ErW5hY_10serde_json5value3ser10SerializerECseRQUDV3LdmP_9ryo3_json
FNDA:1,_RINvXs_NtCs55M5aevlvIR_9ryo3_http10http_serdeNtNtB7_11status_code12PyHttpStatusNtNtCs3fLGeRDR8xN_5serde3ser9Serialize9serializeQINtNtCs1nD62ErW5hY_10serde_json3ser10SerializerQINtNtCs8Ty2CzGA6U3_5alloc3vec3VechEEECseRQUDV3LdmP_9ryo3_json
FNDA:1,_RINvXs_NtCs55M5aevlvIR_9ryo3_http10http_serdeNtNtB7_11status_code12PyHttpStatusNtNtCs3fLGeRDR8xN_5serde3ser9Serialize9serializeQINtNtCs1nD62ErW5hY_10serde_json3ser10SerializerQINtNtCs8Ty2CzGA6U3_5alloc3vec3VechENtB25_15PrettyFormatterEECseRQUDV3LdmP_9ryo3_json
FNDA:0,_RINvXs0_NtCs55M5aevlvIR_9ryo3_http10http_serdeNtNtB8_7headers9PyHeadersNtNtCs3fLGeRDR8xN_5serde3ser9Serialize9serializeNtNtNtCs1nD62ErW5hY_10serde_json5value3ser10SerializerECseRQUDV3LdmP_9ryo3_json
FNDA:1,_RINvXs0_NtCs55M5aevlvIR_9ryo3_http10http_serdeNtNtB8_7headers9PyHeadersNtNtCs3fLGeRDR8xN_5serde3ser9Serialize9serializeQINtNtCs1nD62ErW5hY_10serde_json3ser10SerializerQINtNtCs8Ty2CzGA6U3_5alloc3vec3VechEEECseRQUDV3LdmP_9ryo3_json
FNDA:1,_RINvXs0_NtCs55M5aevlvIR_9ryo3_http10http_serdeNtNtB8_7headers9PyHeadersNtNtCs3fLGeRDR8xN_5serde3ser9Serialize9serializeQINtNtCs1nD62ErW5hY_10serde_json3ser10SerializerQINtNtCs8Ty2CzGA6U3_5alloc3vec3VechENtB1X_15PrettyFormatterEECseRQUDV3LdmP_9ryo3_json
FNDA:0,_RINvXs_NtCs55M5aevlvIR_9ryo3_http10http_serdeNtNtB7_11status_code12PyHttpStatusNtNtCs3fLGeRDR8xN_5serde3ser9Serialize9serializeQINtNtCs1nD62ErW5hY_10serde_json3ser10SerializerQINtNtCs8Ty2CzGA6U3_5alloc3vec3VechEEECs3QWMMxPHX46_12ryo3_reqwest
FNDA:0,_RINvXs0_NtCs55M5aevlvIR_9ryo3_http10http_serdeNtNtB8_7headers9PyHeadersNtNtCs3fLGeRDR8xN_5serde3ser9Serialize9serializeQINtNtCs1nD62ErW5hY_10serde_json3ser10SerializerQINtNtCs8Ty2CzGA6U3_5alloc3vec3VechEEECs3QWMMxPHX46_12ryo3_reqwest
FNDA:19,_RINvXs1_NtCs55M5aevlvIR_9ryo3_http10http_serdeNtB6_15HeaderValuesRefNtNtCs3fLGeRDR8xN_5serde3ser9Serialize9serializeQINtNtCs1nD62ErW5hY_10serde_json3ser10SerializerQINtNtCs8Ty2CzGA6U3_5alloc3vec3VechEEEB8_
FNDA:7,_RINvXs1_NtCs55M5aevlvIR_9ryo3_http10http_serdeNtB6_15HeaderValuesRefNtNtCs3fLGeRDR8xN_5serde3ser9Serialize9serializeQINtNtCs1nD62ErW5hY_10serde_json3ser10SerializerQINtNtCs8Ty2CzGA6U3_5alloc3vec3VechENtB1U_15PrettyFormatterEEB8_
FNDA:5,_RINvXs3_NtCs55M5aevlvIR_9ryo3_http10http_serdeNtB6_16HttpHeaderMapRefNtNtCs3fLGeRDR8xN_5serde3ser9Serialize9serializeQINtNtCs1nD62ErW5hY_10serde_json3ser10SerializerQINtNtCs8Ty2CzGA6U3_5alloc3vec3VechEEEB8_
FNDA:2,_RINvXs3_NtCs55M5aevlvIR_9ryo3_http10http_serdeNtB6_16HttpHeaderMapRefNtNtCs3fLGeRDR8xN_5serde3ser9Serialize9serializeQINtNtCs1nD62ErW5hY_10serde_json3ser10SerializerQINtNtCs8Ty2CzGA6U3_5alloc3vec3VechENtB1V_15PrettyFormatterEEB8_
FNDA:0,_RINvXs4_NtCs55M5aevlvIR_9ryo3_http10http_serdeNtB6_16HeaderMapVisitorNtNtCs3fLGeRDR8xN_5serde2de7Visitor9visit_mapINtNtCs1nD62ErW5hY_10serde_json2de9MapAccessNtNtB1T_4read7StrReadEEB8_
FNDA:19,_RNCINvXs3_NtCs55M5aevlvIR_9ryo3_http10http_serdeNtB8_16HttpHeaderMapRefNtNtCs3fLGeRDR8xN_5serde3ser9Serialize9serializeQINtNtCs1nD62ErW5hY_10serde_json3ser10SerializerQINtNtCs8Ty2CzGA6U3_5alloc3vec3VechEEE0Ba_
FNDA:19,_RNCINvXs3_NtCs55M5aevlvIR_9ryo3_http10http_serdeNtB8_16HttpHeaderMapRefNtNtCs3fLGeRDR8xN_5serde3ser9Serialize9serializeQINtNtCs1nD62ErW5hY_10serde_json3ser10SerializerQINtNtCs8Ty2CzGA6U3_5alloc3vec3VechEEEs_0Ba_
FNDA:7,_RNCINvXs3_NtCs55M5aevlvIR_9ryo3_http10http_serdeNtB8_16HttpHeaderMapRefNtNtCs3fLGeRDR8xN_5serde3ser9Serialize9serializeQINtNtCs1nD62ErW5hY_10serde_json3ser10SerializerQINtNtCs8Ty2CzGA6U3_5alloc3vec3VechENtB1X_15PrettyFormatterEE0Ba_
FNDA:7,_RNCINvXs3_NtCs55M5aevlvIR_9ryo3_http10http_serdeNtB8_16HttpHeaderMapRefNtNtCs3fLGeRDR8xN_5serde3ser9Serialize9serializeQINtNtCs1nD62ErW5hY_10serde_json3ser10SerializerQINtNtCs8Ty2CzGA6U3_5alloc3vec3VechENtB1X_15PrettyFormatterEEs_0Ba_
FNDA:0,_RNCINvXs4_NtCs55M5aevlvIR_9ryo3_http10http_serdeNtB8_16HeaderMapVisitorNtNtCs3fLGeRDR8xN_5serde2de7Visitor9visit_mapINtNtCs1nD62ErW5hY_10serde_json2de9MapAccessNtNtB1V_4read7StrReadEE0Ba_
FNDA:0,_RNCINvXs4_NtCs55M5aevlvIR_9ryo3_http10http_serdeNtB8_16HeaderMapVisitorNtNtCs3fLGeRDR8xN_5serde2de7Visitor9visit_mapINtNtCs1nD62ErW5hY_10serde_json2de9MapAccessNtNtB1V_4read7StrReadEEs0_0Ba_
FNDA:0,_RNCINvXs4_NtCs55M5aevlvIR_9ryo3_http10http_serdeNtB8_16HeaderMapVisitorNtNtCs3fLGeRDR8xN_5serde2de7Visitor9visit_mapINtNtCs1nD62ErW5hY_10serde_json2de9MapAccessNtNtB1V_4read7StrReadEEs_0Ba_
FNDA:0,_RNvXs4_NtCs55M5aevlvIR_9ryo3_http10http_serdeNtB5_16HeaderMapVisitorNtNtCs3fLGeRDR8xN_5serde2de7Visitor9expecting
FNDA:7,_RINvXs2_NtCs55M5aevlvIR_9ryo3_http10http_serdeNtNtB8_10http_types17HttpHeaderNameRefNtNtCs3fLGeRDR8xN_5serde3ser9Serialize9serializeINtNtCs1nD62ErW5hY_10serde_json3ser16MapKeySerializerQINtNtCs8Ty2CzGA6U3_5alloc3vec3VechENtB29_15PrettyFormatterEEB8_
FNDA:19,_RINvXs2_NtCs55M5aevlvIR_9ryo3_http10http_serdeNtNtB8_10http_types17HttpHeaderNameRefNtNtCs3fLGeRDR8xN_5serde3ser9Serialize9serializeINtNtCs1nD62ErW5hY_10serde_json3ser16MapKeySerializerQINtNtCs8Ty2CzGA6U3_5alloc3vec3VechENtB29_16CompactFormatterEEB8_
FNDA:0,_RINvXs5_NtCs55M5aevlvIR_9ryo3_http10http_serdeNtNtB8_10http_types13HttpHeaderMapNtNtCs3fLGeRDR8xN_5serde2de11Deserialize11deserializeQINtNtCs1nD62ErW5hY_10serde_json2de12DeserializerNtNtB2d_4read7StrReadEEB8_
FNF:13
FNH:7
DA:19,2
DA:20,2
DA:21,2
DA:23,2
DA:24,2
DA:32,2
DA:33,2
DA:34,2
DA:36,2
DA:37,2
DA:38,2
DA:39,2
DA:46,26
DA:47,26
DA:48,26
DA:50,26
DA:51,26
DA:52,26
DA:53,26
DA:54,26
DA:56,0
DA:57,0
DA:60,0
DA:61,0
DA:62,0
DA:63,0
DA:65,0
DA:68,0
DA:70,26
DA:74,26
DA:75,26
DA:76,26
DA:78,26
DA:79,26
DA:85,7
DA:86,7
DA:87,7
DA:89,7
DA:90,26
DA:92,7
DA:93,7
DA:94,26
DA:96,7
DA:111,0
DA:112,0
DA:113,0
DA:115,0
DA:116,0
DA:117,0
DA:119,0
DA:121,0
DA:122,0
DA:123,0
DA:125,0
DA:126,0
DA:127,0
DA:128,0
DA:129,0
DA:130,0
DA:132,0
DA:133,0
DA:134,0
DA:135,0
DA:136,0
DA:137,0
DA:142,0
DA:143,0
DA:147,0
DA:148,0
DA:149,0
DA:151,0
DA:152,0
DA:153,0
DA:154,0
BRF:0
BRH:0
LF:81
LH:37
end_of_record
SF:/home/jesse/ry/crates/ryo3-http/src/http_types.rs
FN:40,_RNvXs0_NtCs55M5aevlvIR_9ryo3_http10http_typesNtNtNtCs3mFT1WUIgr4_4http6header5value11HeaderValueINtNtCs66KPHxksi63_4core7convert4FromNtB5_15HttpHeaderValueE4from
FN:28,_RNvXNtCs55M5aevlvIR_9ryo3_http10http_typesNtB2_13HttpHeaderMapINtNtCs66KPHxksi63_4core7convert4FromNtNtNtCs3mFT1WUIgr4_4http6header3map9HeaderMapE4from
FN:52,_RNvXs2_NtCs55M5aevlvIR_9ryo3_http10http_typesNtB5_14HttpHeaderNameINtNtCs66KPHxksi63_4core7convert4FromNtNtNtCs3mFT1WUIgr4_4http6header4name10HeaderNameE4from
FN:58,_RNvXs3_NtCs55M5aevlvIR_9ryo3_http10http_typesNtB5_15HttpHeaderValueINtNtCs66KPHxksi63_4core7convert4FromNtNtNtCs3mFT1WUIgr4_4http6header5value11HeaderValueE4from
FN:64,_RNvXs4_NtCs55M5aevlvIR_9ryo3_http10http_typesNtB5_10HttpMethodINtNtCs66KPHxksi63_4core7convert4FromNtNtCs3mFT1WUIgr4_4http6method6MethodE4from
FN:70,_RNvXs5_NtCs55M5aevlvIR_9ryo3_http10http_typesNtB5_14HttpStatusCodeINtNtCs66KPHxksi63_4core7convert4FromNtNtCs3mFT1WUIgr4_4http6status10StatusCodeE4from
FN:76,_RNvXs6_NtCs55M5aevlvIR_9ryo3_http10http_typesNtB5_11HttpVersionINtNtCs66KPHxksi63_4core7convert4FromNtNtCs3mFT1WUIgr4_4http7version7VersionE4from
FN:84,_RNvXs7_NtCs55M5aevlvIR_9ryo3_http10http_typesNtB5_15HttpHeaderValueINtNtCs66KPHxksi63_4core7convert4FromRNtNtNtCs3mFT1WUIgr4_4http6header5value11HeaderValueE4from
FN:94,_RNvXs8_NtCs55M5aevlvIR_9ryo3_http10http_typesNtB5_14HttpHeaderNameNtNtNtCs66KPHxksi63_4core3ops5deref5Deref5deref
FN:101,_RNvXs9_NtCs55M5aevlvIR_9ryo3_http10http_typesNtB5_15HttpHeaderValueNtNtNtCs66KPHxksi63_4core3ops5deref5Deref5deref
FN:108,_RNvXsa_NtCs55M5aevlvIR_9ryo3_http10http_typesNtB5_10HttpMethodNtNtNtCs66KPHxksi63_4core3ops5deref5Deref5deref
FN:34,_RNvXs_NtCs55M5aevlvIR_9ryo3_http10http_typesNtNtNtCs3mFT1WUIgr4_4http6header4name10HeaderNameINtNtCs66KPHxksi63_4core7convert4FromNtB4_14HttpHeaderNameE4from
FNDA:23,_RNvXs0_NtCs55M5aevlvIR_9ryo3_http10http_typesNtNtNtCs3mFT1WUIgr4_4http6header5value11HeaderValueINtNtCs66KPHxksi63_4core7convert4FromNtB5_15HttpHeaderValueE4from
FNDA:0,_RNvXNtCs55M5aevlvIR_9ryo3_http10http_typesNtB2_13HttpHeaderMapINtNtCs66KPHxksi63_4core7convert4FromNtNtNtCs3mFT1WUIgr4_4http6header3map9HeaderMapE4from
FNDA:0,_RNvXs2_NtCs55M5aevlvIR_9ryo3_http10http_typesNtB5_14HttpHeaderNameINtNtCs66KPHxksi63_4core7convert4FromNtNtNtCs3mFT1WUIgr4_4http6header4name10HeaderNameE4from
FNDA:33,_RNvXs3_NtCs55M5aevlvIR_9ryo3_http10http_typesNtB5_15HttpHeaderValueINtNtCs66KPHxksi63_4core7convert4FromNtNtNtCs3mFT1WUIgr4_4http6header5value11HeaderValueE4from
FNDA:0,_RNvXs4_NtCs55M5aevlvIR_9ryo3_http10http_typesNtB5_10HttpMethodINtNtCs66KPHxksi63_4core7convert4FromNtNtCs3mFT1WUIgr4_4http6method6MethodE4from
FNDA:0,_RNvXs5_NtCs55M5aevlvIR_9ryo3_http10http_typesNtB5_14HttpStatusCodeINtNtCs66KPHxksi63_4core7convert4FromNtNtCs3mFT1WUIgr4_4http6status10StatusCodeE4from
FNDA:0,_RNvXs6_NtCs55M5aevlvIR_9ryo3_http10http_typesNtB5_11HttpVersionINtNtCs66KPHxksi63_4core7convert4FromNtNtCs3mFT1WUIgr4_4http7version7VersionE4from
FNDA:22,_RNvXs7_NtCs55M5aevlvIR_9ryo3_http10http_typesNtB5_15HttpHeaderValueINtNtCs66KPHxksi63_4core7convert4FromRNtNtNtCs3mFT1WUIgr4_4http6header5value11HeaderValueE4from
FNDA:0,_RNvXs8_NtCs55M5aevlvIR_9ryo3_http10http_typesNtB5_14HttpHeaderNameNtNtNtCs66KPHxksi63_4core3ops5deref5Deref5deref
FNDA:0,_RNvXs9_NtCs55M5aevlvIR_9ryo3_http10http_typesNtB5_15HttpHeaderValueNtNtNtCs66KPHxksi63_4core3ops5deref5Deref5deref
FNDA:0,_RNvXsa_NtCs55M5aevlvIR_9ryo3_http10http_typesNtB5_10HttpMethodNtNtNtCs66KPHxksi63_4core3ops5deref5Deref5deref
FNDA:0,_RNvXs_NtCs55M5aevlvIR_9ryo3_http10http_typesNtNtNtCs3mFT1WUIgr4_4http6header4name10HeaderNameINtNtCs66KPHxksi63_4core7convert4FromNtB4_14HttpHeaderNameE4from
FNF:12
FNH:3
DA:28,0
DA:29,0
DA:30,0
DA:34,0
DA:35,0
DA:36,0
DA:40,23
DA:41,23
DA:42,23
DA:52,0
DA:53,0
DA:54,0
DA:58,33
DA:59,33
DA:60,33
DA:64,0
DA:65,0
DA:66,0
DA:70,0
DA:71,0
DA:72,0
DA:76,0
DA:77,0
DA:78,0
DA:84,22
DA:85,22
DA:86,22
DA:94,0
DA:95,0
DA:96,0
DA:101,0
DA:102,0
DA:103,0
DA:108,0
DA:109,0
DA:110,0
BRF:0
BRH:0
LF:36
LH:9
end_of_record
SF:/home/jesse/ry/crates/ryo3-http/src/lib.rs
FN:20,_RNvCs55M5aevlvIR_9ryo3_http9pymod_add
FNDA:8,_RNvCs55M5aevlvIR_9ryo3_http9pymod_add
FNF:1
FNH:1
DA:20,8
DA:21,8
DA:24,8
DA:25,8
DA:26,8
DA:27,8
BRF:0
BRH:0
LF:6
LH:6
end_of_record
SF:/home/jesse/ry/crates/ryo3-http/src/py_conversions.rs
FN:16,_RNvXNtCs55M5aevlvIR_9ryo3_http14py_conversionsRNtNtB4_10http_types10HttpMethodNtNtCsjhPV6BdWoWa_4pyo310conversion12IntoPyObject13into_pyobjectB4_
FN:50,_RNvXs0_NtCs55M5aevlvIR_9ryo3_http14py_conversionsNtNtB7_10http_types10HttpMethodNtNtCsjhPV6BdWoWa_4pyo310conversion12FromPyObject13extract_bound
FN:83,_RNvXs1_NtCs55M5aevlvIR_9ryo3_http14py_conversionsRNtNtB7_10http_types11HttpVersionNtNtCsjhPV6BdWoWa_4pyo310conversion12IntoPyObject13into_pyobjectB7_
FN:102,_RNvXs2_NtCs55M5aevlvIR_9ryo3_http14py_conversionsNtNtB7_10http_types11HttpVersionNtNtCsjhPV6BdWoWa_4pyo310conversion12IntoPyObject13into_pyobject
FN:109,_RNvXs3_NtCs55M5aevlvIR_9ryo3_http14py_conversionsNtNtB7_10http_types11HttpVersionNtNtCsjhPV6BdWoWa_4pyo310conversion12FromPyObject13extract_bound
FN:261,_RNvXs4_NtCs55M5aevlvIR_9ryo3_http14py_conversionsRNtNtB7_10http_types14HttpHeaderNameNtNtCsjhPV6BdWoWa_4pyo310conversion12IntoPyObject13into_pyobjectB7_
FN:281,_RNvXs5_NtCs55M5aevlvIR_9ryo3_http14py_conversionsNtNtB7_10http_types14HttpHeaderNameNtNtCsjhPV6BdWoWa_4pyo310conversion12IntoPyObject13into_pyobject
FN:287,_RNvXs6_NtCs55M5aevlvIR_9ryo3_http14py_conversionsNtNtB7_10http_types14HttpHeaderNameNtNtCsjhPV6BdWoWa_4pyo310conversion12FromPyObject13extract_bound
FN:325,_RNvXs7_NtCs55M5aevlvIR_9ryo3_http14py_conversionsRNtNtB7_10http_types15HttpHeaderValueNtNtCsjhPV6BdWoWa_4pyo310conversion12IntoPyObject13into_pyobjectB7_
FN:334,_RNvXs8_NtCs55M5aevlvIR_9ryo3_http14py_conversionsNtNtB7_10http_types15HttpHeaderValueNtNtCsjhPV6BdWoWa_4pyo310conversion12IntoPyObject13into_pyobject
FN:340,_RNvXs9_NtCs55M5aevlvIR_9ryo3_http14py_conversionsNtNtB7_10http_types15HttpHeaderValueNtNtCsjhPV6BdWoWa_4pyo310conversion12FromPyObject13extract_bound
FN:41,_RNvXs_NtCs55M5aevlvIR_9ryo3_http14py_conversionsNtNtB6_10http_types10HttpMethodNtNtCsjhPV6BdWoWa_4pyo310conversion12IntoPyObject13into_pyobject
FN:240,_RNvNtCs55M5aevlvIR_9ryo3_http14py_conversions23header_name_to_pystring
FN:310,_RNvNtCs55M5aevlvIR_9ryo3_http14py_conversions24header_value_to_pystring
FN:143,_RNvNtCs55M5aevlvIR_9ryo3_http14py_conversions29header_name_to_pystring_maybe
FN:316,_RNCNvNtCs55M5aevlvIR_9ryo3_http14py_conversions24header_value_to_pystring0B5_
FN:292,_RNCNvXs6_NtCs55M5aevlvIR_9ryo3_http14py_conversionsNtNtB9_10http_types14HttpHeaderNameNtNtCsjhPV6BdWoWa_4pyo310conversion12FromPyObject13extract_bound0B9_
FN:297,_RNCNvXs6_NtCs55M5aevlvIR_9ryo3_http14py_conversionsNtNtB9_10http_types14HttpHeaderNameNtNtCsjhPV6BdWoWa_4pyo310conversion12FromPyObject13extract_bounds_0B9_
FN:345,_RNCNvXs9_NtCs55M5aevlvIR_9ryo3_http14py_conversionsNtNtB9_10http_types15HttpHeaderValueNtNtCsjhPV6BdWoWa_4pyo310conversion12FromPyObject13extract_bound0B9_
FN:350,_RNCNvXs9_NtCs55M5aevlvIR_9ryo3_http14py_conversionsNtNtB9_10http_types15HttpHeaderValueNtNtCsjhPV6BdWoWa_4pyo310conversion12FromPyObject13extract_bounds_0B9_
FNDA:0,_RNvXNtCs55M5aevlvIR_9ryo3_http14py_conversionsRNtNtB4_10http_types10HttpMethodNtNtCsjhPV6BdWoWa_4pyo310conversion12IntoPyObject13into_pyobjectB4_
FNDA:2,_RNvXs0_NtCs55M5aevlvIR_9ryo3_http14py_conversionsNtNtB7_10http_types10HttpMethodNtNtCsjhPV6BdWoWa_4pyo310conversion12FromPyObject13extract_bound
FNDA:6,_RNvXs1_NtCs55M5aevlvIR_9ryo3_http14py_conversionsRNtNtB7_10http_types11HttpVersionNtNtCsjhPV6BdWoWa_4pyo310conversion12IntoPyObject13into_pyobjectB7_
FNDA:6,_RNvXs2_NtCs55M5aevlvIR_9ryo3_http14py_conversionsNtNtB7_10http_types11HttpVersionNtNtCsjhPV6BdWoWa_4pyo310conversion12IntoPyObject13into_pyobject
FNDA:0,_RNvXs3_NtCs55M5aevlvIR_9ryo3_http14py_conversionsNtNtB7_10http_types11HttpVersionNtNtCsjhPV6BdWoWa_4pyo310conversion12FromPyObject13extract_bound
FNDA:0,_RNvXs4_NtCs55M5aevlvIR_9ryo3_http14py_conversionsRNtNtB7_10http_types14HttpHeaderNameNtNtCsjhPV6BdWoWa_4pyo310conversion12IntoPyObject13into_pyobjectB7_
FNDA:0,_RNvXs5_NtCs55M5aevlvIR_9ryo3_http14py_conversionsNtNtB7_10http_types14HttpHeaderNameNtNtCsjhPV6BdWoWa_4pyo310conversion12IntoPyObject13into_pyobject
FNDA:10,_RNvXs6_NtCs55M5aevlvIR_9ryo3_http14py_conversionsNtNtB7_10http_types14HttpHeaderNameNtNtCsjhPV6BdWoWa_4pyo310conversion12FromPyObject13extract_bound
FNDA:23,_RNvXs7_NtCs55M5aevlvIR_9ryo3_http14py_conversionsRNtNtB7_10http_types15HttpHeaderValueNtNtCsjhPV6BdWoWa_4pyo310conversion12IntoPyObject13into_pyobjectB7_
FNDA:23,_RNvXs8_NtCs55M5aevlvIR_9ryo3_http14py_conversionsNtNtB7_10http_types15HttpHeaderValueNtNtCsjhPV6BdWoWa_4pyo310conversion12IntoPyObject13into_pyobject
FNDA:9,_RNvXs9_NtCs55M5aevlvIR_9ryo3_http14py_conversionsNtNtB7_10http_types15HttpHeaderValueNtNtCsjhPV6BdWoWa_4pyo310conversion12FromPyObject13extract_bound
FNDA:0,_RNvXs_NtCs55M5aevlvIR_9ryo3_http14py_conversionsNtNtB6_10http_types10HttpMethodNtNtCsjhPV6BdWoWa_4pyo310conversion12IntoPyObject13into_pyobject
FNDA:27,_RNvNtCs55M5aevlvIR_9ryo3_http14py_conversions23header_name_to_pystring
FNDA:37,_RNvNtCs55M5aevlvIR_9ryo3_http14py_conversions24header_value_to_pystring
FNDA:27,_RNvNtCs55M5aevlvIR_9ryo3_http14py_conversions29header_name_to_pystring_maybe
FNDA:0,_RNCNvNtCs55M5aevlvIR_9ryo3_http14py_conversions24header_value_to_pystring0B5_
FNDA:0,_RNCNvXs6_NtCs55M5aevlvIR_9ryo3_http14py_conversionsNtNtB9_10http_types14HttpHeaderNameNtNtCsjhPV6BdWoWa_4pyo310conversion12FromPyObject13extract_bound0B9_
FNDA:0,_RNCNvXs6_NtCs55M5aevlvIR_9ryo3_http14py_conversionsNtNtB9_10http_types14HttpHeaderNameNtNtCsjhPV6BdWoWa_4pyo310conversion12FromPyObject13extract_bounds_0B9_
FNDA:0,_RNCNvXs9_NtCs55M5aevlvIR_9ryo3_http14py_conversionsNtNtB9_10http_types15HttpHeaderValueNtNtCsjhPV6BdWoWa_4pyo310conversion12FromPyObject13extract_bound0B9_
FNDA:0,_RNCNvXs9_NtCs55M5aevlvIR_9ryo3_http14py_conversionsNtNtB9_10http_types15HttpHeaderValueNtNtCsjhPV6BdWoWa_4pyo310conversion12FromPyObject13extract_bounds_0B9_
FNF:20
FNH:10
DA:16,0
DA:17,0
DA:18,0
DA:19,0
DA:20,0
DA:21,0
DA:22,0
DA:23,0
DA:24,0
DA:25,0
DA:26,0
DA:27,0
DA:28,0
DA:29,0
DA:30,0
DA:31,0
DA:32,0
DA:33,0
DA:41,0
DA:42,0
DA:43,0
DA:50,2
DA:51,2
DA:52,2
DA:53,2
DA:54,2
DA:55,2
DA:56,0
DA:57,0
DA:58,0
DA:59,0
DA:60,0
DA:61,0
DA:62,0
DA:63,0
DA:64,0
DA:65,0
DA:68,0
DA:69,0
DA:70,0
DA:72,2
DA:83,6
DA:84,6
DA:85,0
DA:86,0
DA:87,6
DA:88,0
DA:89,0
DA:90,0
DA:92,6
DA:93,6
DA:94,6
DA:102,6
DA:103,6
DA:104,6
DA:109,0
DA:110,0
DA:111,0
DA:112,0
DA:113,0
DA:114,0
DA:115,0
DA:116,0
DA:117,0
DA:118,0
DA:120,0
DA:121,0
DA:122,0
DA:123,0
DA:124,0
DA:125,0
DA:126,0
DA:127,0
DA:128,0
DA:129,0
DA:132,0
DA:133,0
DA:134,0
DA:136,0
DA:143,27
DA:144,27
DA:145,27
DA:146,27
DA:147,26
DA:148,5
DA:149,1
DA:151,27
DA:240,27
DA:241,27
DA:242,27
DA:243,27
DA:244,27
DA:245,26
DA:247,1
DA:248,1
DA:249,1
DA:251,27
DA:261,0
DA:262,0
DA:269,0
DA:271,0
DA:281,0
DA:282,0
DA:283,0
DA:287,10
DA:288,10
DA:289,10
DA:290,10
DA:291,10
DA:292,10
DA:293,0
DA:294,0
DA:295,0
DA:296,0
DA:297,0
DA:299,0
DA:300,0
DA:301,0
DA:303,10
DA:310,37
DA:311,37
DA:312,37
DA:313,37
DA:314,37
DA:315,37
DA:316,37
DA:317,37
DA:318,37
DA:325,23
DA:326,23
DA:327,23
DA:334,23
DA:335,23
DA:336,23
DA:340,9
DA:341,9
DA:342,9
DA:343,9
DA:344,9
DA:345,9
DA:346,0
DA:347,0
DA:348,0
DA:349,0
DA:350,0
DA:352,0
DA:353,0
DA:354,0
DA:356,9
BRF:0
BRH:0
LF:154
LH:63
end_of_record
SF:/home/jesse/ry/crates/ryo3-http/src/status_code.rs
FN:205,_RNvMs9_NtCs55M5aevlvIR_9ryo3_http11status_codeNtB5_12PyHttpStatus10NO_CONTENT
FN:175,_RNvMs9_NtCs55M5aevlvIR_9ryo3_http11status_codeNtB5_12PyHttpStatus10PROCESSING
FN:66,_RNvMs9_NtCs55M5aevlvIR_9ryo3_http11status_codeNtB5_12PyHttpStatus10is_success
FN:475,_RNvMs9_NtCs55M5aevlvIR_9ryo3_http11status_codeNtB5_12PyHttpStatus11BAD_GATEWAY
FN:289,_RNvMs9_NtCs55M5aevlvIR_9ryo3_http11status_codeNtB5_12PyHttpStatus11BAD_REQUEST
FN:397,_RNvMs9_NtCs55M5aevlvIR_9ryo3_http11status_codeNtB5_12PyHttpStatus11IM_A_TEAPOT
FN:122,_RNvMs9_NtCs55M5aevlvIR_9ryo3_http11status_codeNtB5_12PyHttpStatus11___richcmp__
FN:72,_RNvMs9_NtCs55M5aevlvIR_9ryo3_http11status_codeNtB5_12PyHttpStatus11is_redirect
FN:223,_RNvMs9_NtCs55M5aevlvIR_9ryo3_http11status_codeNtB5_12PyHttpStatus12MULTI_STATUS
FN:517,_RNvMs9_NtCs55M5aevlvIR_9ryo3_http11status_codeNtB5_12PyHttpStatus12NOT_EXTENDED
FN:265,_RNvMs9_NtCs55M5aevlvIR_9ryo3_http11status_codeNtB5_12PyHttpStatus12NOT_MODIFIED
FN:295,_RNvMs9_NtCs55M5aevlvIR_9ryo3_http11status_codeNtB5_12PyHttpStatus12UNAUTHORIZED
FN:373,_RNvMs9_NtCs55M5aevlvIR_9ryo3_http11status_codeNtB5_12PyHttpStatus12URI_TOO_LONG
FN:511,_RNvMs9_NtCs55M5aevlvIR_9ryo3_http11status_codeNtB5_12PyHttpStatus13LOOP_DETECTED
FN:211,_RNvMs9_NtCs55M5aevlvIR_9ryo3_http11status_codeNtB5_12PyHttpStatus13RESET_CONTENT
FN:325,_RNvMs9_NtCs55M5aevlvIR_9ryo3_http11status_codeNtB5_12PyHttpStatus14NOT_ACCEPTABLE
FN:22,_RNvMs9_NtCs55M5aevlvIR_9ryo3_http11status_codeNtB5_12PyHttpStatus14___getnewargs__
FN:78,_RNvMs9_NtCs55M5aevlvIR_9ryo3_http11status_codeNtB5_12PyHttpStatus14is_redirection
FN:487,_RNvMs9_NtCs55M5aevlvIR_9ryo3_http11status_codeNtB5_12PyHttpStatus15GATEWAY_TIMEOUT
FN:355,_RNvMs9_NtCs55M5aevlvIR_9ryo3_http11status_codeNtB5_12PyHttpStatus15LENGTH_REQUIRED
FN:469,_RNvMs9_NtCs55M5aevlvIR_9ryo3_http11status_codeNtB5_12PyHttpStatus15NOT_IMPLEMENTED
FN:217,_RNvMs9_NtCs55M5aevlvIR_9ryo3_http11status_codeNtB5_12PyHttpStatus15PARTIAL_CONTENT
FN:337,_RNvMs9_NtCs55M5aevlvIR_9ryo3_http11status_codeNtB5_12PyHttpStatus15REQUEST_TIMEOUT
FN:84,_RNvMs9_NtCs55M5aevlvIR_9ryo3_http11status_codeNtB5_12PyHttpStatus15is_client_error
FN:90,_RNvMs9_NtCs55M5aevlvIR_9ryo3_http11status_codeNtB5_12PyHttpStatus15is_server_error
FN:229,_RNvMs9_NtCs55M5aevlvIR_9ryo3_http11status_codeNtB5_12PyHttpStatus16ALREADY_REPORTED
FN:241,_RNvMs9_NtCs55M5aevlvIR_9ryo3_http11status_codeNtB5_12PyHttpStatus16MULTIPLE_CHOICES
FN:301,_RNvMs9_NtCs55M5aevlvIR_9ryo3_http11status_codeNtB5_12PyHttpStatus16PAYMENT_REQUIRED
FN:433,_RNvMs9_NtCs55M5aevlvIR_9ryo3_http11status_codeNtB5_12PyHttpStatus16UPGRADE_REQUIRED
FN:48,_RNvMs9_NtCs55M5aevlvIR_9ryo3_http11status_codeNtB5_12PyHttpStatus16canonical_reason
FN:60,_RNvMs9_NtCs55M5aevlvIR_9ryo3_http11status_codeNtB5_12PyHttpStatus16is_informational
FN:421,_RNvMs9_NtCs55M5aevlvIR_9ryo3_http11status_codeNtB5_12PyHttpStatus17FAILED_DEPENDENCY
FN:247,_RNvMs9_NtCs55M5aevlvIR_9ryo3_http11status_codeNtB5_12PyHttpStatus17MOVED_PERMANENTLY
FN:367,_RNvMs9_NtCs55M5aevlvIR_9ryo3_http11status_codeNtB5_12PyHttpStatus17PAYLOAD_TOO_LARGE
FN:445,_RNvMs9_NtCs55M5aevlvIR_9ryo3_http11status_codeNtB5_12PyHttpStatus17TOO_MANY_REQUESTS
FN:391,_RNvMs9_NtCs55M5aevlvIR_9ryo3_http11status_codeNtB5_12PyHttpStatus18EXPECTATION_FAILED
FN:319,_RNvMs9_NtCs55M5aevlvIR_9ryo3_http11status_codeNtB5_12PyHttpStatus18METHOD_NOT_ALLOWED
FN:283,_RNvMs9_NtCs55M5aevlvIR_9ryo3_http11status_codeNtB5_12PyHttpStatus18PERMANENT_REDIRECT
FN:277,_RNvMs9_NtCs55M5aevlvIR_9ryo3_http11status_codeNtB5_12PyHttpStatus18TEMPORARY_REDIRECT
FN:403,_RNvMs9_NtCs55M5aevlvIR_9ryo3_http11status_codeNtB5_12PyHttpStatus19MISDIRECTED_REQUEST
FN:361,_RNvMs9_NtCs55M5aevlvIR_9ryo3_http11status_codeNtB5_12PyHttpStatus19PRECONDITION_FAILED
FN:481,_RNvMs9_NtCs55M5aevlvIR_9ryo3_http11status_codeNtB5_12PyHttpStatus19SERVICE_UNAVAILABLE
FN:169,_RNvMs9_NtCs55M5aevlvIR_9ryo3_http11status_codeNtB5_12PyHttpStatus19SWITCHING_PROTOCOLS
FN:505,_RNvMs9_NtCs55M5aevlvIR_9ryo3_http11status_codeNtB5_12PyHttpStatus20INSUFFICIENT_STORAGE
FN:409,_RNvMs9_NtCs55M5aevlvIR_9ryo3_http11status_codeNtB5_12PyHttpStatus20UNPROCESSABLE_ENTITY
FN:463,_RNvMs9_NtCs55M5aevlvIR_9ryo3_http11status_codeNtB5_12PyHttpStatus21INTERNAL_SERVER_ERROR
FN:439,_RNvMs9_NtCs55M5aevlvIR_9ryo3_http11status_codeNtB5_12PyHttpStatus21PRECONDITION_REQUIRED
FN:385,_RNvMs9_NtCs55M5aevlvIR_9ryo3_http11status_codeNtB5_12PyHttpStatus21RANGE_NOT_SATISFIABLE
FN:379,_RNvMs9_NtCs55M5aevlvIR_9ryo3_http11status_codeNtB5_12PyHttpStatus22UNSUPPORTED_MEDIA_TYPE
FN:499,_RNvMs9_NtCs55M5aevlvIR_9ryo3_http11status_codeNtB5_12PyHttpStatus23VARIANT_ALSO_NEGOTIATES
FN:493,_RNvMs9_NtCs55M5aevlvIR_9ryo3_http11status_codeNtB5_12PyHttpStatus26HTTP_VERSION_NOT_SUPPORTED
FN:199,_RNvMs9_NtCs55M5aevlvIR_9ryo3_http11status_codeNtB5_12PyHttpStatus29NON_AUTHORITATIVE_INFORMATION
FN:331,_RNvMs9_NtCs55M5aevlvIR_9ryo3_http11status_codeNtB5_12PyHttpStatus29PROXY_AUTHENTICATION_REQUIRED
FN:457,_RNvMs9_NtCs55M5aevlvIR_9ryo3_http11status_codeNtB5_12PyHttpStatus29UNAVAILABLE_FOR_LEGAL_REASONS
FN:181,_RNvMs9_NtCs55M5aevlvIR_9ryo3_http11status_codeNtB5_12PyHttpStatus2OK
FN:108,_RNvMs9_NtCs55M5aevlvIR_9ryo3_http11status_codeNtB5_12PyHttpStatus2ok
FN:523,_RNvMs9_NtCs55M5aevlvIR_9ryo3_http11status_codeNtB5_12PyHttpStatus31NETWORK_AUTHENTICATION_REQUIRED
FN:451,_RNvMs9_NtCs55M5aevlvIR_9ryo3_http11status_codeNtB5_12PyHttpStatus31REQUEST_HEADER_FIELDS_TOO_LARGE
FN:349,_RNvMs9_NtCs55M5aevlvIR_9ryo3_http11status_codeNtB5_12PyHttpStatus4GONE
FN:253,_RNvMs9_NtCs55M5aevlvIR_9ryo3_http11status_codeNtB5_12PyHttpStatus5FOUND
FN:102,_RNvMs9_NtCs55M5aevlvIR_9ryo3_http11status_codeNtB5_12PyHttpStatus5is_ok
FN:42,_RNvMs9_NtCs55M5aevlvIR_9ryo3_http11status_codeNtB5_12PyHttpStatus5to_py
FN:415,_RNvMs9_NtCs55M5aevlvIR_9ryo3_http11status_codeNtB5_12PyHttpStatus6LOCKED
FN:16,_RNvMs9_NtCs55M5aevlvIR_9ryo3_http11status_codeNtB5_12PyHttpStatus6py_new
FN:54,_RNvMs9_NtCs55M5aevlvIR_9ryo3_http11status_codeNtB5_12PyHttpStatus6reason
FN:187,_RNvMs9_NtCs55M5aevlvIR_9ryo3_http11status_codeNtB5_12PyHttpStatus7CREATED
FN:235,_RNvMs9_NtCs55M5aevlvIR_9ryo3_http11status_codeNtB5_12PyHttpStatus7IM_USED
FN:37,_RNvMs9_NtCs55M5aevlvIR_9ryo3_http11status_codeNtB5_12PyHttpStatus7___int__
FN:27,_RNvMs9_NtCs55M5aevlvIR_9ryo3_http11status_codeNtB5_12PyHttpStatus7___str__
FN:193,_RNvMs9_NtCs55M5aevlvIR_9ryo3_http11status_codeNtB5_12PyHttpStatus8ACCEPTED
FN:343,_RNvMs9_NtCs55M5aevlvIR_9ryo3_http11status_codeNtB5_12PyHttpStatus8CONFLICT
FN:163,_RNvMs9_NtCs55M5aevlvIR_9ryo3_http11status_codeNtB5_12PyHttpStatus8CONTINUE
FN:118,_RNvMs9_NtCs55M5aevlvIR_9ryo3_http11status_codeNtB5_12PyHttpStatus8___bool__
FN:113,_RNvMs9_NtCs55M5aevlvIR_9ryo3_http11status_codeNtB5_12PyHttpStatus8___hash__
FN:32,_RNvMs9_NtCs55M5aevlvIR_9ryo3_http11status_codeNtB5_12PyHttpStatus8___repr__
FN:96,_RNvMs9_NtCs55M5aevlvIR_9ryo3_http11status_codeNtB5_12PyHttpStatus8is_error
FN:307,_RNvMs9_NtCs55M5aevlvIR_9ryo3_http11status_codeNtB5_12PyHttpStatus9FORBIDDEN
FN:313,_RNvMs9_NtCs55M5aevlvIR_9ryo3_http11status_codeNtB5_12PyHttpStatus9NOT_FOUND
FN:259,_RNvMs9_NtCs55M5aevlvIR_9ryo3_http11status_codeNtB5_12PyHttpStatus9SEE_OTHER
FN:427,_RNvMs9_NtCs55M5aevlvIR_9ryo3_http11status_codeNtB5_12PyHttpStatus9TOO_EARLY
FN:271,_RNvMs9_NtCs55M5aevlvIR_9ryo3_http11status_codeNtB5_12PyHttpStatus9USE_PROXY
FN:12,_RNvMsb_NtCs55M5aevlvIR_9ryo3_http11status_codeNtB5_12PyHttpStatus18___pymethod_to_py__
FN:12,_RNvMsb_NtCs55M5aevlvIR_9ryo3_http11status_codeNtB5_12PyHttpStatus19___pymethod_get_ok__
FN:12,_RNvMsb_NtCs55M5aevlvIR_9ryo3_http11status_codeNtB5_12PyHttpStatus20___pymethod___int____
FN:12,_RNvMsb_NtCs55M5aevlvIR_9ryo3_http11status_codeNtB5_12PyHttpStatus20___pymethod___str____
FN:12,_RNvMsb_NtCs55M5aevlvIR_9ryo3_http11status_codeNtB5_12PyHttpStatus21___pymethod___bool____
FN:12,_RNvMsb_NtCs55M5aevlvIR_9ryo3_http11status_codeNtB5_12PyHttpStatus21___pymethod___hash____
FN:12,_RNvMsb_NtCs55M5aevlvIR_9ryo3_http11status_codeNtB5_12PyHttpStatus21___pymethod___repr____
FN:12,_RNvMsb_NtCs55M5aevlvIR_9ryo3_http11status_codeNtB5_12PyHttpStatus22___pymethod_get_is_ok__
FN:12,_RNvMsb_NtCs55M5aevlvIR_9ryo3_http11status_codeNtB5_12PyHttpStatus23___pymethod_get_reason__
FN:12,_RNvMsb_NtCs55M5aevlvIR_9ryo3_http11status_codeNtB5_12PyHttpStatus25___pymethod_get_is_error__
FN:12,_RNvMsb_NtCs55M5aevlvIR_9ryo3_http11status_codeNtB5_12PyHttpStatus27___pymethod___getnewargs____
FN:12,_RNvMsb_NtCs55M5aevlvIR_9ryo3_http11status_codeNtB5_12PyHttpStatus27___pymethod_get_is_success__
FN:12,_RNvMsb_NtCs55M5aevlvIR_9ryo3_http11status_codeNtB5_12PyHttpStatus28___pymethod_get_is_redirect__
FN:12,_RNvMsb_NtCs55M5aevlvIR_9ryo3_http11status_codeNtB5_12PyHttpStatus31___pymethod_get_is_redirection__
FN:12,_RNvMsb_NtCs55M5aevlvIR_9ryo3_http11status_codeNtB5_12PyHttpStatus32___pymethod_get_is_client_error__
FN:12,_RNvMsb_NtCs55M5aevlvIR_9ryo3_http11status_codeNtB5_12PyHttpStatus32___pymethod_get_is_server_error__
FN:12,_RNvMsb_NtCs55M5aevlvIR_9ryo3_http11status_codeNtB5_12PyHttpStatus33___pymethod_get_canonical_reason__
FN:12,_RNvMsb_NtCs55M5aevlvIR_9ryo3_http11status_codeNtB5_12PyHttpStatus33___pymethod_get_is_informational__
FN:543,_RNvNtCs55M5aevlvIR_9ryo3_http11status_code20status_code_pystring
FN:17,_RNCNvMs9_NtCs55M5aevlvIR_9ryo3_http11status_codeNtB7_12PyHttpStatus6py_new0B9_
FNDA:8,_RNvMs9_NtCs55M5aevlvIR_9ryo3_http11status_codeNtB5_12PyHttpStatus10NO_CONTENT
FNDA:8,_RNvMs9_NtCs55M5aevlvIR_9ryo3_http11status_codeNtB5_12PyHttpStatus10PROCESSING
FNDA:61,_RNvMs9_NtCs55M5aevlvIR_9ryo3_http11status_codeNtB5_12PyHttpStatus10is_success
FNDA:8,_RNvMs9_NtCs55M5aevlvIR_9ryo3_http11status_codeNtB5_12PyHttpStatus11BAD_GATEWAY
FNDA:8,_RNvMs9_NtCs55M5aevlvIR_9ryo3_http11status_codeNtB5_12PyHttpStatus11BAD_REQUEST
FNDA:8,_RNvMs9_NtCs55M5aevlvIR_9ryo3_http11status_codeNtB5_12PyHttpStatus11IM_A_TEAPOT
FNDA:146,_RNvMs9_NtCs55M5aevlvIR_9ryo3_http11status_codeNtB5_12PyHttpStatus11___richcmp__
FNDA:61,_RNvMs9_NtCs55M5aevlvIR_9ryo3_http11status_codeNtB5_12PyHttpStatus11is_redirect
FNDA:8,_RNvMs9_NtCs55M5aevlvIR_9ryo3_http11status_codeNtB5_12PyHttpStatus12MULTI_STATUS
FNDA:8,_RNvMs9_NtCs55M5aevlvIR_9ryo3_http11status_codeNtB5_12PyHttpStatus12NOT_EXTENDED
FNDA:8,_RNvMs9_NtCs55M5aevlvIR_9ryo3_http11status_codeNtB5_12PyHttpStatus12NOT_MODIFIED
FNDA:8,_RNvMs9_NtCs55M5aevlvIR_9ryo3_http11status_codeNtB5_12PyHttpStatus12UNAUTHORIZED
FNDA:8,_RNvMs9_NtCs55M5aevlvIR_9ryo3_http11status_codeNtB5_12PyHttpStatus12URI_TOO_LONG
FNDA:8,_RNvMs9_NtCs55M5aevlvIR_9ryo3_http11status_codeNtB5_12PyHttpStatus13LOOP_DETECTED
FNDA:8,_RNvMs9_NtCs55M5aevlvIR_9ryo3_http11status_codeNtB5_12PyHttpStatus13RESET_CONTENT
FNDA:8,_RNvMs9_NtCs55M5aevlvIR_9ryo3_http11status_codeNtB5_12PyHttpStatus14NOT_ACCEPTABLE
FNDA:0,_RNvMs9_NtCs55M5aevlvIR_9ryo3_http11status_codeNtB5_12PyHttpStatus14___getnewargs__
FNDA:61,_RNvMs9_NtCs55M5aevlvIR_9ryo3_http11status_codeNtB5_12PyHttpStatus14is_redirection
FNDA:8,_RNvMs9_NtCs55M5aevlvIR_9ryo3_http11status_codeNtB5_12PyHttpStatus15GATEWAY_TIMEOUT
FNDA:8,_RNvMs9_NtCs55M5aevlvIR_9ryo3_http11status_codeNtB5_12PyHttpStatus15LENGTH_REQUIRED
FNDA:8,_RNvMs9_NtCs55M5aevlvIR_9ryo3_http11status_codeNtB5_12PyHttpStatus15NOT_IMPLEMENTED
FNDA:8,_RNvMs9_NtCs55M5aevlvIR_9ryo3_http11status_codeNtB5_12PyHttpStatus15PARTIAL_CONTENT
FNDA:8,_RNvMs9_NtCs55M5aevlvIR_9ryo3_http11status_codeNtB5_12PyHttpStatus15REQUEST_TIMEOUT
FNDA:61,_RNvMs9_NtCs55M5aevlvIR_9ryo3_http11status_codeNtB5_12PyHttpStatus15is_client_error
FNDA:61,_RNvMs9_NtCs55M5aevlvIR_9ryo3_http11status_codeNtB5_12PyHttpStatus15is_server_error
FNDA:8,_RNvMs9_NtCs55M5aevlvIR_9ryo3_http11status_codeNtB5_12PyHttpStatus16ALREADY_REPORTED
FNDA:8,_RNvMs9_NtCs55M5aevlvIR_9ryo3_http11status_codeNtB5_12PyHttpStatus16MULTIPLE_CHOICES
FNDA:8,_RNvMs9_NtCs55M5aevlvIR_9ryo3_http11status_codeNtB5_12PyHttpStatus16PAYMENT_REQUIRED
FNDA:8,_RNvMs9_NtCs55M5aevlvIR_9ryo3_http11status_codeNtB5_12PyHttpStatus16UPGRADE_REQUIRED
FNDA:61,_RNvMs9_NtCs55M5aevlvIR_9ryo3_http11status_codeNtB5_12PyHttpStatus16canonical_reason
FNDA:61,_RNvMs9_NtCs55M5aevlvIR_9ryo3_http11status_codeNtB5_12PyHttpStatus16is_informational
FNDA:8,_RNvMs9_NtCs55M5aevlvIR_9ryo3_http11status_codeNtB5_12PyHttpStatus17FAILED_DEPENDENCY
FNDA:8,_RNvMs9_NtCs55M5aevlvIR_9ryo3_http11status_codeNtB5_12PyHttpStatus17MOVED_PERMANENTLY
FNDA:8,_RNvMs9_NtCs55M5aevlvIR_9ryo3_http11status_codeNtB5_12PyHttpStatus17PAYLOAD_TOO_LARGE
FNDA:8,_RNvMs9_NtCs55M5aevlvIR_9ryo3_http11status_codeNtB5_12PyHttpStatus17TOO_MANY_REQUESTS
FNDA:8,_RNvMs9_NtCs55M5aevlvIR_9ryo3_http11status_codeNtB5_12PyHttpStatus18EXPECTATION_FAILED
FNDA:8,_RNvMs9_NtCs55M5aevlvIR_9ryo3_http11status_codeNtB5_12PyHttpStatus18METHOD_NOT_ALLOWED
FNDA:8,_RNvMs9_NtCs55M5aevlvIR_9ryo3_http11status_codeNtB5_12PyHttpStatus18PERMANENT_REDIRECT
FNDA:8,_RNvMs9_NtCs55M5aevlvIR_9ryo3_http11status_codeNtB5_12PyHttpStatus18TEMPORARY_REDIRECT
FNDA:8,_RNvMs9_NtCs55M5aevlvIR_9ryo3_http11status_codeNtB5_12PyHttpStatus19MISDIRECTED_REQUEST
FNDA:8,_RNvMs9_NtCs55M5aevlvIR_9ryo3_http11status_codeNtB5_12PyHttpStatus19PRECONDITION_FAILED
FNDA:8,_RNvMs9_NtCs55M5aevlvIR_9ryo3_http11status_codeNtB5_12PyHttpStatus19SERVICE_UNAVAILABLE
FNDA:8,_RNvMs9_NtCs55M5aevlvIR_9ryo3_http11status_codeNtB5_12PyHttpStatus19SWITCHING_PROTOCOLS
FNDA:8,_RNvMs9_NtCs55M5aevlvIR_9ryo3_http11status_codeNtB5_12PyHttpStatus20INSUFFICIENT_STORAGE
FNDA:8,_RNvMs9_NtCs55M5aevlvIR_9ryo3_http11status_codeNtB5_12PyHttpStatus20UNPROCESSABLE_ENTITY
FNDA:8,_RNvMs9_NtCs55M5aevlvIR_9ryo3_http11status_codeNtB5_12PyHttpStatus21INTERNAL_SERVER_ERROR
FNDA:8,_RNvMs9_NtCs55M5aevlvIR_9ryo3_http11status_codeNtB5_12PyHttpStatus21PRECONDITION_REQUIRED
FNDA:8,_RNvMs9_NtCs55M5aevlvIR_9ryo3_http11status_codeNtB5_12PyHttpStatus21RANGE_NOT_SATISFIABLE
FNDA:8,_RNvMs9_NtCs55M5aevlvIR_9ryo3_http11status_codeNtB5_12PyHttpStatus22UNSUPPORTED_MEDIA_TYPE
FNDA:8,_RNvMs9_NtCs55M5aevlvIR_9ryo3_http11status_codeNtB5_12PyHttpStatus23VARIANT_ALSO_NEGOTIATES
FNDA:8,_RNvMs9_NtCs55M5aevlvIR_9ryo3_http11status_codeNtB5_12PyHttpStatus26HTTP_VERSION_NOT_SUPPORTED
FNDA:8,_RNvMs9_NtCs55M5aevlvIR_9ryo3_http11status_codeNtB5_12PyHttpStatus29NON_AUTHORITATIVE_INFORMATION
FNDA:8,_RNvMs9_NtCs55M5aevlvIR_9ryo3_http11status_codeNtB5_12PyHttpStatus29PROXY_AUTHENTICATION_REQUIRED
FNDA:8,_RNvMs9_NtCs55M5aevlvIR_9ryo3_http11status_codeNtB5_12PyHttpStatus29UNAVAILABLE_FOR_LEGAL_REASONS
FNDA:8,_RNvMs9_NtCs55M5aevlvIR_9ryo3_http11status_codeNtB5_12PyHttpStatus2OK
FNDA:61,_RNvMs9_NtCs55M5aevlvIR_9ryo3_http11status_codeNtB5_12PyHttpStatus2ok
FNDA:8,_RNvMs9_NtCs55M5aevlvIR_9ryo3_http11status_codeNtB5_12PyHttpStatus31NETWORK_AUTHENTICATION_REQUIRED
FNDA:8,_RNvMs9_NtCs55M5aevlvIR_9ryo3_http11status_codeNtB5_12PyHttpStatus31REQUEST_HEADER_FIELDS_TOO_LARGE
FNDA:8,_RNvMs9_NtCs55M5aevlvIR_9ryo3_http11status_codeNtB5_12PyHttpStatus4GONE
FNDA:8,_RNvMs9_NtCs55M5aevlvIR_9ryo3_http11status_codeNtB5_12PyHttpStatus5FOUND
FNDA:61,_RNvMs9_NtCs55M5aevlvIR_9ryo3_http11status_codeNtB5_12PyHttpStatus5is_ok
FNDA:61,_RNvMs9_NtCs55M5aevlvIR_9ryo3_http11status_codeNtB5_12PyHttpStatus5to_py
FNDA:8,_RNvMs9_NtCs55M5aevlvIR_9ryo3_http11status_codeNtB5_12PyHttpStatus6LOCKED
FNDA:629,_RNvMs9_NtCs55M5aevlvIR_9ryo3_http11status_codeNtB5_12PyHttpStatus6py_new
FNDA:561,_RNvMs9_NtCs55M5aevlvIR_9ryo3_http11status_codeNtB5_12PyHttpStatus6reason
FNDA:8,_RNvMs9_NtCs55M5aevlvIR_9ryo3_http11status_codeNtB5_12PyHttpStatus7CREATED
FNDA:8,_RNvMs9_NtCs55M5aevlvIR_9ryo3_http11status_codeNtB5_12PyHttpStatus7IM_USED
FNDA:1,_RNvMs9_NtCs55M5aevlvIR_9ryo3_http11status_codeNtB5_12PyHttpStatus7___int__
FNDA:1,_RNvMs9_NtCs55M5aevlvIR_9ryo3_http11status_codeNtB5_12PyHttpStatus7___str__
FNDA:8,_RNvMs9_NtCs55M5aevlvIR_9ryo3_http11status_codeNtB5_12PyHttpStatus8ACCEPTED
FNDA:8,_RNvMs9_NtCs55M5aevlvIR_9ryo3_http11status_codeNtB5_12PyHttpStatus8CONFLICT
FNDA:8,_RNvMs9_NtCs55M5aevlvIR_9ryo3_http11status_codeNtB5_12PyHttpStatus8CONTINUE
FNDA:0,_RNvMs9_NtCs55M5aevlvIR_9ryo3_http11status_codeNtB5_12PyHttpStatus8___bool__
FNDA:0,_RNvMs9_NtCs55M5aevlvIR_9ryo3_http11status_codeNtB5_12PyHttpStatus8___hash__
FNDA:0,_RNvMs9_NtCs55M5aevlvIR_9ryo3_http11status_codeNtB5_12PyHttpStatus8___repr__
FNDA:61,_RNvMs9_NtCs55M5aevlvIR_9ryo3_http11status_codeNtB5_12PyHttpStatus8is_error
FNDA:8,_RNvMs9_NtCs55M5aevlvIR_9ryo3_http11status_codeNtB5_12PyHttpStatus9FORBIDDEN
FNDA:8,_RNvMs9_NtCs55M5aevlvIR_9ryo3_http11status_codeNtB5_12PyHttpStatus9NOT_FOUND
FNDA:8,_RNvMs9_NtCs55M5aevlvIR_9ryo3_http11status_codeNtB5_12PyHttpStatus9SEE_OTHER
FNDA:8,_RNvMs9_NtCs55M5aevlvIR_9ryo3_http11status_codeNtB5_12PyHttpStatus9TOO_EARLY
FNDA:8,_RNvMs9_NtCs55M5aevlvIR_9ryo3_http11status_codeNtB5_12PyHttpStatus9USE_PROXY
FNDA:0,_RNvMsb_NtCs55M5aevlvIR_9ryo3_http11status_codeNtB5_12PyHttpStatus18___pymethod_to_py__
FNDA:0,_RNvMsb_NtCs55M5aevlvIR_9ryo3_http11status_codeNtB5_12PyHttpStatus19___pymethod_get_ok__
FNDA:0,_RNvMsb_NtCs55M5aevlvIR_9ryo3_http11status_codeNtB5_12PyHttpStatus20___pymethod___int____
FNDA:0,_RNvMsb_NtCs55M5aevlvIR_9ryo3_http11status_codeNtB5_12PyHttpStatus20___pymethod___str____
FNDA:0,_RNvMsb_NtCs55M5aevlvIR_9ryo3_http11status_codeNtB5_12PyHttpStatus21___pymethod___bool____
FNDA:0,_RNvMsb_NtCs55M5aevlvIR_9ryo3_http11status_codeNtB5_12PyHttpStatus21___pymethod___hash____
FNDA:0,_RNvMsb_NtCs55M5aevlvIR_9ryo3_http11status_codeNtB5_12PyHttpStatus21___pymethod___repr____
FNDA:0,_RNvMsb_NtCs55M5aevlvIR_9ryo3_http11status_codeNtB5_12PyHttpStatus22___pymethod_get_is_ok__
FNDA:0,_RNvMsb_NtCs55M5aevlvIR_9ryo3_http11status_codeNtB5_12PyHttpStatus23___pymethod_get_reason__
FNDA:0,_RNvMsb_NtCs55M5aevlvIR_9ryo3_http11status_codeNtB5_12PyHttpStatus25___pymethod_get_is_error__
FNDA:0,_RNvMsb_NtCs55M5aevlvIR_9ryo3_http11status_codeNtB5_12PyHttpStatus27___pymethod___getnewargs____
FNDA:0,_RNvMsb_NtCs55M5aevlvIR_9ryo3_http11status_codeNtB5_12PyHttpStatus27___pymethod_get_is_success__
FNDA:0,_RNvMsb_NtCs55M5aevlvIR_9ryo3_http11status_codeNtB5_12PyHttpStatus28___pymethod_get_is_redirect__
FNDA:0,_RNvMsb_NtCs55M5aevlvIR_9ryo3_http11status_codeNtB5_12PyHttpStatus31___pymethod_get_is_redirection__
FNDA:0,_RNvMsb_NtCs55M5aevlvIR_9ryo3_http11status_codeNtB5_12PyHttpStatus32___pymethod_get_is_client_error__
FNDA:0,_RNvMsb_NtCs55M5aevlvIR_9ryo3_http11status_codeNtB5_12PyHttpStatus32___pymethod_get_is_server_error__
FNDA:0,_RNvMsb_NtCs55M5aevlvIR_9ryo3_http11status_codeNtB5_12PyHttpStatus33___pymethod_get_canonical_reason__
FNDA:0,_RNvMsb_NtCs55M5aevlvIR_9ryo3_http11status_codeNtB5_12PyHttpStatus33___pymethod_get_is_informational__
FNDA:626,_RNvNtCs55M5aevlvIR_9ryo3_http11status_code20status_code_pystring
FNDA:0,_RNCNvMs9_NtCs55M5aevlvIR_9ryo3_http11status_codeNtB7_12PyHttpStatus6py_new0B9_
FNF:84
FNH:78
DA:12,0
DA:16,629
DA:17,629
DA:18,0
DA:19,0
DA:20,629
DA:22,0
DA:23,0
DA:24,0
DA:27,1
DA:28,1
DA:29,1
DA:32,0
DA:33,0
DA:34,0
DA:37,1
DA:38,1
DA:39,1
DA:42,61
DA:43,61
DA:44,61
DA:48,61
DA:49,61
DA:50,61
DA:54,561
DA:55,561
DA:56,561
DA:60,61
DA:61,61
DA:62,61
DA:66,61
DA:67,61
DA:68,61
DA:72,61
DA:73,61
DA:74,61
DA:78,61
DA:79,61
DA:80,61
DA:84,61
DA:85,61
DA:86,61
DA:90,61
DA:91,61
DA:92,61
DA:96,61
DA:97,61
DA:98,61
DA:102,61
DA:103,61
DA:104,61
DA:108,61
DA:109,61
DA:110,61
DA:113,0
DA:114,0
DA:115,0
DA:118,0
DA:119,0
DA:120,0
DA:122,146
DA:123,146
DA:124,65
DA:125,65
DA:126,65
DA:127,0
DA:128,0
DA:129,0
DA:130,0
DA:131,0
DA:134,81
DA:135,81
DA:136,81
DA:137,81
DA:138,0
DA:139,0
DA:140,0
DA:141,0
DA:142,0
DA:144,0
DA:145,0
DA:146,0
DA:147,0
DA:148,0
DA:149,0
DA:153,146
DA:163,8
DA:164,8
DA:165,8
DA:169,8
DA:170,8
DA:171,8
DA:175,8
DA:176,8
DA:177,8
DA:181,8
DA:182,8
DA:183,8
DA:187,8
DA:188,8
DA:189,8
DA:193,8
DA:194,8
DA:195,8
DA:199,8
DA:200,8
DA:201,8
DA:205,8
DA:206,8
DA:207,8
DA:211,8
DA:212,8
DA:213,8
DA:217,8
DA:218,8
DA:219,8
DA:223,8
DA:224,8
DA:225,8
DA:229,8
DA:230,8
DA:231,8
DA:235,8
DA:236,8
DA:237,8
DA:241,8
DA:242,8
DA:243,8
DA:247,8
DA:248,8
DA:249,8
DA:253,8
DA:254,8
DA:255,8
DA:259,8
DA:260,8
DA:261,8
DA:265,8
DA:266,8
DA:267,8
DA:271,8
DA:272,8
DA:273,8
DA:277,8
DA:278,8
DA:279,8
DA:283,8
DA:284,8
DA:285,8
DA:289,8
DA:290,8
DA:291,8
DA:295,8
DA:296,8
DA:297,8
DA:301,8
DA:302,8
DA:303,8
DA:307,8
DA:308,8
DA:309,8
DA:313,8
DA:314,8
DA:315,8
DA:319,8
DA:320,8
DA:321,8
DA:325,8
DA:326,8
DA:327,8
DA:331,8
DA:332,8
DA:333,8
DA:337,8
DA:338,8
DA:339,8
DA:343,8
DA:344,8
DA:345,8
DA:349,8
DA:350,8
DA:351,8
DA:355,8
DA:356,8
DA:357,8
DA:361,8
DA:362,8
DA:363,8
DA:367,8
DA:368,8
DA:369,8
DA:373,8
DA:374,8
DA:375,8
DA:379,8
DA:380,8
DA:381,8
DA:385,8
DA:386,8
DA:387,8
DA:391,8
DA:392,8
DA:393,8
DA:397,8
DA:398,8
DA:399,8
DA:403,8
DA:404,8
DA:405,8
DA:409,8
DA:410,8
DA:411,8
DA:415,8
DA:416,8
DA:417,8
DA:421,8
DA:422,8
DA:423,8
DA:427,8
DA:428,8
DA:429,8
DA:433,8
DA:434,8
DA:435,8
DA:439,8
DA:440,8
DA:441,8
DA:445,8
DA:446,8
DA:447,8
DA:451,8
DA:452,8
DA:453,8
DA:457,8
DA:458,8
DA:459,8
DA:463,8
DA:464,8
DA:465,8
DA:469,8
DA:470,8
DA:471,8
DA:475,8
DA:476,8
DA:477,8
DA:481,8
DA:482,8
DA:483,8
DA:487,8
DA:488,8
DA:489,8
DA:493,8
DA:494,8
DA:495,8
DA:499,8
DA:500,8
DA:501,8
DA:505,8
DA:506,8
DA:507,8
DA:511,8
DA:512,8
DA:513,8
DA:517,8
DA:518,8
DA:519,8
DA:523,8
DA:524,8
DA:525,8
DA:543,626
DA:544,626
DA:612,626
BRF:0
BRH:0
LF:274
LH:241
end_of_record
SF:/home/jesse/ry/crates/ryo3-jiff/src/api.rs
FN:24,_RNvNtCs8WYW6vAPwZd_9ryo3_jiff3api9pymod_add
FNDA:8,_RNvNtCs8WYW6vAPwZd_9ryo3_jiff3api9pymod_add
FNF:1
FNH:1
DA:24,8
DA:26,8
DA:27,8
DA:28,8
DA:29,8
DA:30,8
DA:31,8
DA:32,8
DA:33,8
DA:34,8
DA:35,8
DA:37,8
DA:40,8
DA:41,8
DA:42,8
DA:43,8
DA:44,8
DA:47,8
DA:48,8
DA:49,8
DA:52,8
DA:53,8
DA:54,8
DA:55,8
DA:56,8
DA:57,8
DA:58,8
DA:59,8
DA:62,8
DA:63,8
BRF:0
BRH:0
LF:30
LH:30
end_of_record
SF:/home/jesse/ry/crates/ryo3-jiff/src/deprecations.rs
FN:6,_RNvNtCs8WYW6vAPwZd_9ryo3_jiff12deprecations24deprecation_warning_intz
FNDA:0,_RNvNtCs8WYW6vAPwZd_9ryo3_jiff12deprecations24deprecation_warning_intz
FNF:1
FNH:0
DA:6,0
DA:7,0
DA:8,0
DA:9,0
DA:10,0
DA:12,0
DA:13,0
BRF:0
BRH:0
LF:7
LH:0
end_of_record
SF:/home/jesse/ry/crates/ryo3-jiff/src/errors.rs
FN:5,_RINvNtCs8WYW6vAPwZd_9ryo3_jiff6errors16map_py_value_errNtNtCs3tnJ9lKo9L6_4jiff5error5ErrorEB4_
FN:12,_RINvNtCs8WYW6vAPwZd_9ryo3_jiff6errors19map_py_overflow_errNtNtCs3tnJ9lKo9L6_4jiff5error5ErrorEB4_
FNDA:6,_RINvNtCs8WYW6vAPwZd_9ryo3_jiff6errors16map_py_value_errNtNtCs3tnJ9lKo9L6_4jiff5error5ErrorEB4_
FNDA:392,_RINvNtCs8WYW6vAPwZd_9ryo3_jiff6errors19map_py_overflow_errNtNtCs3tnJ9lKo9L6_4jiff5error5ErrorEB4_
FNF:2
FNH:2
DA:5,6
DA:6,6
DA:7,6
DA:9,6
DA:10,6
DA:12,392
DA:13,392
DA:14,392
DA:16,392
DA:17,392
BRF:0
BRH:0
LF:10
LH:10
end_of_record
SF:/home/jesse/ry/crates/ryo3-jiff/src/functions.rs
FN:115,_RINvNvNtCs8WYW6vAPwZd_9ryo3_jiff9functions8timespan16apply_if_nonzeroINvMs_NtCs3tnJ9lKo9L6_4jiff4spanNtB1b_4Span10try_monthsxEEB6_
FN:115,_RINvNvNtCs8WYW6vAPwZd_9ryo3_jiff9functions8timespan16apply_if_nonzeroINvMs_NtCs3tnJ9lKo9L6_4jiff4spanNtB1b_4Span11try_minutesxEEB6_
FN:115,_RINvNvNtCs8WYW6vAPwZd_9ryo3_jiff9functions8timespan16apply_if_nonzeroINvMs_NtCs3tnJ9lKo9L6_4jiff4spanNtB1b_4Span11try_secondsxEEB6_
FN:115,_RINvNvNtCs8WYW6vAPwZd_9ryo3_jiff9functions8timespan16apply_if_nonzeroINvMs_NtCs3tnJ9lKo9L6_4jiff4spanNtB1b_4Span15try_nanosecondsxEEB6_
FN:115,_RINvNvNtCs8WYW6vAPwZd_9ryo3_jiff9functions8timespan16apply_if_nonzeroINvMs_NtCs3tnJ9lKo9L6_4jiff4spanNtB1b_4Span16try_microsecondsxEEB6_
FN:115,_RINvNvNtCs8WYW6vAPwZd_9ryo3_jiff9functions8timespan16apply_if_nonzeroINvMs_NtCs3tnJ9lKo9L6_4jiff4spanNtB1b_4Span16try_millisecondsxEEB6_
FN:115,_RINvNvNtCs8WYW6vAPwZd_9ryo3_jiff9functions8timespan16apply_if_nonzeroINvMs_NtCs3tnJ9lKo9L6_4jiff4spanNtB1b_4Span8try_daysxEEB6_
FN:115,_RINvNvNtCs8WYW6vAPwZd_9ryo3_jiff9functions8timespan16apply_if_nonzeroINvMs_NtCs3tnJ9lKo9L6_4jiff4spanNtB1b_4Span9try_hoursxEEB6_
FN:115,_RINvNvNtCs8WYW6vAPwZd_9ryo3_jiff9functions8timespan16apply_if_nonzeroINvMs_NtCs3tnJ9lKo9L6_4jiff4spanNtB1b_4Span9try_weeksxEEB6_
FN:115,_RINvNvNtCs8WYW6vAPwZd_9ryo3_jiff9functions8timespan16apply_if_nonzeroINvMs_NtCs3tnJ9lKo9L6_4jiff4spanNtB1b_4Span9try_yearsxEEB6_
FN:123,_RNCINvNvNtCs8WYW6vAPwZd_9ryo3_jiff9functions8timespan16apply_if_nonzeroINvMs_NtCs3tnJ9lKo9L6_4jiff4spanNtB1d_4Span10try_monthsxEE0B8_
FN:123,_RNCINvNvNtCs8WYW6vAPwZd_9ryo3_jiff9functions8timespan16apply_if_nonzeroINvMs_NtCs3tnJ9lKo9L6_4jiff4spanNtB1d_4Span11try_minutesxEE0B8_
FN:123,_RNCINvNvNtCs8WYW6vAPwZd_9ryo3_jiff9functions8timespan16apply_if_nonzeroINvMs_NtCs3tnJ9lKo9L6_4jiff4spanNtB1d_4Span11try_secondsxEE0B8_
FN:123,_RNCINvNvNtCs8WYW6vAPwZd_9ryo3_jiff9functions8timespan16apply_if_nonzeroINvMs_NtCs3tnJ9lKo9L6_4jiff4spanNtB1d_4Span15try_nanosecondsxEE0B8_
FN:123,_RNCINvNvNtCs8WYW6vAPwZd_9ryo3_jiff9functions8timespan16apply_if_nonzeroINvMs_NtCs3tnJ9lKo9L6_4jiff4spanNtB1d_4Span16try_microsecondsxEE0B8_
FN:123,_RNCINvNvNtCs8WYW6vAPwZd_9ryo3_jiff9functions8timespan16apply_if_nonzeroINvMs_NtCs3tnJ9lKo9L6_4jiff4spanNtB1d_4Span16try_millisecondsxEE0B8_
FN:123,_RNCINvNvNtCs8WYW6vAPwZd_9ryo3_jiff9functions8timespan16apply_if_nonzeroINvMs_NtCs3tnJ9lKo9L6_4jiff4spanNtB1d_4Span8try_daysxEE0B8_
FN:123,_RNCINvNvNtCs8WYW6vAPwZd_9ryo3_jiff9functions8timespan16apply_if_nonzeroINvMs_NtCs3tnJ9lKo9L6_4jiff4spanNtB1d_4Span9try_hoursxEE0B8_
FN:123,_RNCINvNvNtCs8WYW6vAPwZd_9ryo3_jiff9functions8timespan16apply_if_nonzeroINvMs_NtCs3tnJ9lKo9L6_4jiff4spanNtB1d_4Span9try_weeksxEE0B8_
FN:123,_RNCINvNvNtCs8WYW6vAPwZd_9ryo3_jiff9functions8timespan16apply_if_nonzeroINvMs_NtCs3tnJ9lKo9L6_4jiff4spanNtB1d_4Span9try_yearsxEE0B8_
FN:87,_RNvNtCs8WYW6vAPwZd_9ryo3_jiff9functions3now
FN:15,_RNvNtCs8WYW6vAPwZd_9ryo3_jiff9functions4date
FN:21,_RNvNtCs8WYW6vAPwZd_9ryo3_jiff9functions4time
FN:55,_RNvNtCs8WYW6vAPwZd_9ryo3_jiff9functions5zoned
FN:10,_RNvNtCs8WYW6vAPwZd_9ryo3_jiff9functions6offset
FN:93,_RNvNtCs8WYW6vAPwZd_9ryo3_jiff9functions6utcnow
FN:32,_RNvNtCs8WYW6vAPwZd_9ryo3_jiff9functions8datetime
FN:103,_RNvNtCs8WYW6vAPwZd_9ryo3_jiff9functions8timespan
FNDA:213,_RINvNvNtCs8WYW6vAPwZd_9ryo3_jiff9functions8timespan16apply_if_nonzeroINvMs_NtCs3tnJ9lKo9L6_4jiff4spanNtB1b_4Span10try_monthsxEEB6_
FNDA:212,_RINvNvNtCs8WYW6vAPwZd_9ryo3_jiff9functions8timespan16apply_if_nonzeroINvMs_NtCs3tnJ9lKo9L6_4jiff4spanNtB1b_4Span11try_minutesxEEB6_
FNDA:212,_RINvNvNtCs8WYW6vAPwZd_9ryo3_jiff9functions8timespan16apply_if_nonzeroINvMs_NtCs3tnJ9lKo9L6_4jiff4spanNtB1b_4Span11try_secondsxEEB6_
FNDA:212,_RINvNvNtCs8WYW6vAPwZd_9ryo3_jiff9functions8timespan16apply_if_nonzeroINvMs_NtCs3tnJ9lKo9L6_4jiff4spanNtB1b_4Span15try_nanosecondsxEEB6_
FNDA:212,_RINvNvNtCs8WYW6vAPwZd_9ryo3_jiff9functions8timespan16apply_if_nonzeroINvMs_NtCs3tnJ9lKo9L6_4jiff4spanNtB1b_4Span16try_microsecondsxEEB6_
FNDA:212,_RINvNvNtCs8WYW6vAPwZd_9ryo3_jiff9functions8timespan16apply_if_nonzeroINvMs_NtCs3tnJ9lKo9L6_4jiff4spanNtB1b_4Span16try_millisecondsxEEB6_
FNDA:213,_RINvNvNtCs8WYW6vAPwZd_9ryo3_jiff9functions8timespan16apply_if_nonzeroINvMs_NtCs3tnJ9lKo9L6_4jiff4spanNtB1b_4Span8try_daysxEEB6_
FNDA:212,_RINvNvNtCs8WYW6vAPwZd_9ryo3_jiff9functions8timespan16apply_if_nonzeroINvMs_NtCs3tnJ9lKo9L6_4jiff4spanNtB1b_4Span9try_hoursxEEB6_
FNDA:213,_RINvNvNtCs8WYW6vAPwZd_9ryo3_jiff9functions8timespan16apply_if_nonzeroINvMs_NtCs3tnJ9lKo9L6_4jiff4spanNtB1b_4Span9try_weeksxEEB6_
FNDA:213,_RINvNvNtCs8WYW6vAPwZd_9ryo3_jiff9functions8timespan16apply_if_nonzeroINvMs_NtCs3tnJ9lKo9L6_4jiff4spanNtB1b_4Span9try_yearsxEEB6_
FNDA:0,_RNCINvNvNtCs8WYW6vAPwZd_9ryo3_jiff9functions8timespan16apply_if_nonzeroINvMs_NtCs3tnJ9lKo9L6_4jiff4spanNtB1d_4Span10try_monthsxEE0B8_
FNDA:0,_RNCINvNvNtCs8WYW6vAPwZd_9ryo3_jiff9functions8timespan16apply_if_nonzeroINvMs_NtCs3tnJ9lKo9L6_4jiff4spanNtB1d_4Span11try_minutesxEE0B8_
FNDA:0,_RNCINvNvNtCs8WYW6vAPwZd_9ryo3_jiff9functions8timespan16apply_if_nonzeroINvMs_NtCs3tnJ9lKo9L6_4jiff4spanNtB1d_4Span11try_secondsxEE0B8_
FNDA:0,_RNCINvNvNtCs8WYW6vAPwZd_9ryo3_jiff9functions8timespan16apply_if_nonzeroINvMs_NtCs3tnJ9lKo9L6_4jiff4spanNtB1d_4Span15try_nanosecondsxEE0B8_
FNDA:0,_RNCINvNvNtCs8WYW6vAPwZd_9ryo3_jiff9functions8timespan16apply_if_nonzeroINvMs_NtCs3tnJ9lKo9L6_4jiff4spanNtB1d_4Span16try_microsecondsxEE0B8_
FNDA:0,_RNCINvNvNtCs8WYW6vAPwZd_9ryo3_jiff9functions8timespan16apply_if_nonzeroINvMs_NtCs3tnJ9lKo9L6_4jiff4spanNtB1d_4Span16try_millisecondsxEE0B8_
FNDA:1,_RNCINvNvNtCs8WYW6vAPwZd_9ryo3_jiff9functions8timespan16apply_if_nonzeroINvMs_NtCs3tnJ9lKo9L6_4jiff4spanNtB1d_4Span8try_daysxEE0B8_
FNDA:0,_RNCINvNvNtCs8WYW6vAPwZd_9ryo3_jiff9functions8timespan16apply_if_nonzeroINvMs_NtCs3tnJ9lKo9L6_4jiff4spanNtB1d_4Span9try_hoursxEE0B8_
FNDA:0,_RNCINvNvNtCs8WYW6vAPwZd_9ryo3_jiff9functions8timespan16apply_if_nonzeroINvMs_NtCs3tnJ9lKo9L6_4jiff4spanNtB1d_4Span9try_weeksxEE0B8_
FNDA:0,_RNCINvNvNtCs8WYW6vAPwZd_9ryo3_jiff9functions8timespan16apply_if_nonzeroINvMs_NtCs3tnJ9lKo9L6_4jiff4spanNtB1d_4Span9try_yearsxEE0B8_
FNDA:0,_RNvNtCs8WYW6vAPwZd_9ryo3_jiff9functions3now
FNDA:220,_RNvNtCs8WYW6vAPwZd_9ryo3_jiff9functions4date
FNDA:459,_RNvNtCs8WYW6vAPwZd_9ryo3_jiff9functions4time
FNDA:1,_RNvNtCs8WYW6vAPwZd_9ryo3_jiff9functions5zoned
FNDA:0,_RNvNtCs8WYW6vAPwZd_9ryo3_jiff9functions6offset
FNDA:0,_RNvNtCs8WYW6vAPwZd_9ryo3_jiff9functions6utcnow
FNDA:1568,_RNvNtCs8WYW6vAPwZd_9ryo3_jiff9functions8datetime
FNDA:213,_RNvNtCs8WYW6vAPwZd_9ryo3_jiff9functions8timespan
FNF:10
FNH:7
DA:10,0
DA:11,0
DA:12,0
DA:15,220
DA:16,220
DA:17,220
DA:21,459
DA:22,459
DA:23,459
DA:24,459
DA:25,459
DA:26,459
DA:27,459
DA:28,459
DA:32,1568
DA:33,1568
DA:34,1568
DA:35,1568
DA:36,1568
DA:37,1568
DA:38,1568
DA:39,1568
DA:40,1568
DA:41,1568
DA:42,1568
DA:43,1568
DA:44,1568
DA:45,1568
DA:46,1568
DA:47,1568
DA:48,1568
DA:50,1568
DA:55,1
DA:56,1
DA:57,1
DA:58,1
DA:59,1
DA:60,1
DA:61,1
DA:62,1
DA:63,1
DA:64,1
DA:65,1
DA:67,1
DA:68,1
DA:69,1
DA:70,1
DA:71,1
DA:72,1
DA:74,0
DA:75,0
DA:76,0
DA:77,0
DA:78,0
DA:79,0
DA:80,0
DA:82,1
DA:87,0
DA:88,0
DA:89,0
DA:93,0
DA:94,0
DA:95,0
DA:96,0
DA:97,0
DA:98,0
DA:103,213
DA:104,213
DA:105,213
DA:106,213
DA:107,213
DA:108,213
DA:109,213
DA:110,213
DA:111,213
DA:112,213
DA:113,213
DA:114,213
DA:115,2124
DA:116,2124
DA:117,2124
DA:118,2124
DA:119,2124
DA:120,2124
DA:121,2124
DA:123,244
DA:124,1
DA:125,1
DA:127,1
DA:129,1880
DA:131,2124
DA:133,213
DA:134,213
DA:135,213
DA:136,213
DA:137,213
DA:138,212
DA:139,212
DA:140,212
DA:141,212
DA:142,212
DA:143,212
DA:145,212
DA:146,213
BRF:0
BRH:0
LF:105
LH:86
end_of_record
SF:/home/jesse/ry/crates/ryo3-jiff/src/into_span_arithmetic.rs
FN:31,_RNvXNtCs8WYW6vAPwZd_9ryo3_jiff20into_span_arithmeticNtNtCs3tnJ9lKo9L6_4jiff4span14SpanArithmeticINtNtCs66KPHxksi63_4core7convert4FromRNtB2_18IntoSpanArithmeticE4from
FNDA:8,_RNvXNtCs8WYW6vAPwZd_9ryo3_jiff20into_span_arithmeticNtNtCs3tnJ9lKo9L6_4jiff4span14SpanArithmeticINtNtCs66KPHxksi63_4core7convert4FromRNtB2_18IntoSpanArithmeticE4from
FNF:1
FNH:1
DA:31,8
DA:34,8
DA:35,4
DA:36,4
DA:37,0
DA:38,0
DA:40,0
DA:41,0
DA:44,4
DA:45,4
DA:46,0
DA:47,4
DA:48,0
DA:50,0
DA:51,0
DA:52,0
DA:53,0
DA:55,0
DA:56,0
DA:57,0
DA:58,0
DA:62,8
BRF:0
BRH:0
LF:22
LH:8
end_of_record
SF:/home/jesse/ry/crates/ryo3-jiff/src/jiff_types.rs
FN:143,_RNvXsf_NtCs8WYW6vAPwZd_9ryo3_jiff10jiff_typesNtNtCs3tnJ9lKo9L6_4jiff4span4SpanINtNtCs66KPHxksi63_4core7convert4FromNtB5_8JiffSpanE4from
FN:167,_RNvXsj_NtCs8WYW6vAPwZd_9ryo3_jiff10jiff_typesNtNtCs3tnJ9lKo9L6_4jiff4span4UnitINtNtCs66KPHxksi63_4core7convert4FromNtB5_8JiffUnitE4from
FN:161,_RNvXsi_NtCs8WYW6vAPwZd_9ryo3_jiff10jiff_typesNtNtCs3tnJ9lKo9L6_4jiff15signed_duration14SignedDurationINtNtCs66KPHxksi63_4core7convert4FromNtB5_18JiffSignedDurationE4from
FN:125,_RNvXsc_NtCs8WYW6vAPwZd_9ryo3_jiff10jiff_typesNtNtNtCs3tnJ9lKo9L6_4jiff5civil4time4TimeINtNtCs66KPHxksi63_4core7convert4FromNtB5_8JiffTimeE4from
FN:183,_RNvMsl_NtCs8WYW6vAPwZd_9ryo3_jiff10jiff_typesNtB5_8JiffUnit10static_str
FN:210,_RNvMsn_NtCs8WYW6vAPwZd_9ryo3_jiff10jiff_typesNtB5_13JiffRoundMode10static_str
FN:237,_RNvMsp_NtCs8WYW6vAPwZd_9ryo3_jiff10jiff_typesNtB5_11JiffWeekday10static_str
FN:39,_RNvXNtCs8WYW6vAPwZd_9ryo3_jiff10jiff_typesNtB2_8JiffDateINtNtCs66KPHxksi63_4core7convert4FromNtNtNtCs3tnJ9lKo9L6_4jiff5civil4date4DateE4from
FN:51,_RNvXs0_NtCs8WYW6vAPwZd_9ryo3_jiff10jiff_typesNtB5_12JiffDateTimeINtNtCs66KPHxksi63_4core7convert4FromNtNtNtCs3tnJ9lKo9L6_4jiff5civil8datetime8DateTimeE4from
FN:57,_RNvXs1_NtCs8WYW6vAPwZd_9ryo3_jiff10jiff_typesNtB5_7JiffEraINtNtCs66KPHxksi63_4core7convert4FromNtNtCs3tnJ9lKo9L6_4jiff5civil3EraE4from
FN:63,_RNvXs2_NtCs8WYW6vAPwZd_9ryo3_jiff10jiff_typesNtB5_20JiffTzDisambiguationINtNtCs66KPHxksi63_4core7convert4FromNtNtNtCs3tnJ9lKo9L6_4jiff2tz9ambiguous14DisambiguationE4from
FN:69,_RNvXs3_NtCs8WYW6vAPwZd_9ryo3_jiff10jiff_typesNtB5_9JiffZonedINtNtCs66KPHxksi63_4core7convert4FromNtNtCs3tnJ9lKo9L6_4jiff5zoned5ZonedE4from
FN:75,_RNvXs4_NtCs8WYW6vAPwZd_9ryo3_jiff10jiff_typesNtB5_8JiffSpanINtNtCs66KPHxksi63_4core7convert4FromNtNtCs3tnJ9lKo9L6_4jiff4span4SpanE4from
FN:81,_RNvXs5_NtCs8WYW6vAPwZd_9ryo3_jiff10jiff_typesNtB5_12JiffTimeZoneINtNtCs66KPHxksi63_4core7convert4FromNtNtNtCs3tnJ9lKo9L6_4jiff2tz8timezone8TimeZoneE4from
FN:87,_RNvXs6_NtCs8WYW6vAPwZd_9ryo3_jiff10jiff_typesNtB5_10JiffOffsetINtNtCs66KPHxksi63_4core7convert4FromNtNtNtCs3tnJ9lKo9L6_4jiff2tz6offset6OffsetE4from
FN:93,_RNvXs7_NtCs8WYW6vAPwZd_9ryo3_jiff10jiff_typesNtB5_18JiffSignedDurationINtNtCs66KPHxksi63_4core7convert4FromNtNtCs3tnJ9lKo9L6_4jiff15signed_duration14SignedDurationE4from
FN:99,_RNvXs8_NtCs8WYW6vAPwZd_9ryo3_jiff10jiff_typesNtB5_8JiffUnitINtNtCs66KPHxksi63_4core7convert4FromNtNtCs3tnJ9lKo9L6_4jiff4span4UnitE4from
FN:105,_RNvXs9_NtCs8WYW6vAPwZd_9ryo3_jiff10jiff_typesNtB5_11JiffWeekdayINtNtCs66KPHxksi63_4core7convert4FromNtNtNtCs3tnJ9lKo9L6_4jiff5civil7weekday7WeekdayE4from
FN:45,_RNvXs_NtCs8WYW6vAPwZd_9ryo3_jiff10jiff_typesNtB4_8JiffTimeINtNtCs66KPHxksi63_4core7convert4FromNtNtNtCs3tnJ9lKo9L6_4jiff5civil4time4TimeE4from
FN:111,_RNvXsa_NtCs8WYW6vAPwZd_9ryo3_jiff10jiff_typesNtB5_20JiffTzOffsetConflictINtNtCs66KPHxksi63_4core7convert4FromNtNtNtCs3tnJ9lKo9L6_4jiff2tz6offset14OffsetConflictE4from
FN:200,_RNvXsm_NtCs8WYW6vAPwZd_9ryo3_jiff10jiff_typesNtB5_8JiffUnitNtNtCs66KPHxksi63_4core3fmt7Display3fmt
FN:227,_RNvXso_NtCs8WYW6vAPwZd_9ryo3_jiff10jiff_typesNtB5_13JiffRoundModeNtNtCs66KPHxksi63_4core3fmt7Display3fmt
FN:251,_RNvXsq_NtCs8WYW6vAPwZd_9ryo3_jiff10jiff_typesNtB5_11JiffWeekdayNtNtCs66KPHxksi63_4core3fmt7Display3fmt
FN:155,_RNvXsh_NtCs8WYW6vAPwZd_9ryo3_jiff10jiff_typesNtNtNtCs3tnJ9lKo9L6_4jiff2tz6offset6OffsetINtNtCs66KPHxksi63_4core7convert4FromNtB5_10JiffOffsetE4from
FN:149,_RNvXsg_NtCs8WYW6vAPwZd_9ryo3_jiff10jiff_typesNtNtNtCs3tnJ9lKo9L6_4jiff2tz8timezone8TimeZoneINtNtCs66KPHxksi63_4core7convert4FromNtB5_12JiffTimeZoneE4from
FN:131,_RNvXsd_NtCs8WYW6vAPwZd_9ryo3_jiff10jiff_typesNtNtNtCs3tnJ9lKo9L6_4jiff5civil8datetime8DateTimeINtNtCs66KPHxksi63_4core7convert4FromNtB5_12JiffDateTimeE4from
FN:119,_RNvXsb_NtCs8WYW6vAPwZd_9ryo3_jiff10jiff_typesNtNtNtCs3tnJ9lKo9L6_4jiff5civil4date4DateINtNtCs66KPHxksi63_4core7convert4FromNtB5_8JiffDateE4from
FN:137,_RNvXse_NtCs8WYW6vAPwZd_9ryo3_jiff10jiff_typesNtNtCs3tnJ9lKo9L6_4jiff5zoned5ZonedINtNtCs66KPHxksi63_4core7convert4FromNtB5_9JiffZonedE4from
FN:173,_RNvXsk_NtCs8WYW6vAPwZd_9ryo3_jiff10jiff_typesNtNtNtCs3tnJ9lKo9L6_4jiff5civil7weekday7WeekdayINtNtCs66KPHxksi63_4core7convert4FromNtB5_11JiffWeekdayE4from
FNDA:0,_RNvXsf_NtCs8WYW6vAPwZd_9ryo3_jiff10jiff_typesNtNtCs3tnJ9lKo9L6_4jiff4span4SpanINtNtCs66KPHxksi63_4core7convert4FromNtB5_8JiffSpanE4from
FNDA:0,_RNvXsj_NtCs8WYW6vAPwZd_9ryo3_jiff10jiff_typesNtNtCs3tnJ9lKo9L6_4jiff4span4UnitINtNtCs66KPHxksi63_4core7convert4FromNtB5_8JiffUnitE4from
FNDA:0,_RNvXsi_NtCs8WYW6vAPwZd_9ryo3_jiff10jiff_typesNtNtCs3tnJ9lKo9L6_4jiff15signed_duration14SignedDurationINtNtCs66KPHxksi63_4core7convert4FromNtB5_18JiffSignedDurationE4from
FNDA:0,_RNvXsc_NtCs8WYW6vAPwZd_9ryo3_jiff10jiff_typesNtNtNtCs3tnJ9lKo9L6_4jiff5civil4time4TimeINtNtCs66KPHxksi63_4core7convert4FromNtB5_8JiffTimeE4from
FNDA:82,_RNvMsl_NtCs8WYW6vAPwZd_9ryo3_jiff10jiff_typesNtB5_8JiffUnit10static_str
FNDA:82,_RNvMsn_NtCs8WYW6vAPwZd_9ryo3_jiff10jiff_typesNtB5_13JiffRoundMode10static_str
FNDA:1,_RNvMsp_NtCs8WYW6vAPwZd_9ryo3_jiff10jiff_typesNtB5_11JiffWeekday10static_str
FNDA:0,_RNvXNtCs8WYW6vAPwZd_9ryo3_jiff10jiff_typesNtB2_8JiffDateINtNtCs66KPHxksi63_4core7convert4FromNtNtNtCs3tnJ9lKo9L6_4jiff5civil4date4DateE4from
FNDA:0,_RNvXs0_NtCs8WYW6vAPwZd_9ryo3_jiff10jiff_typesNtB5_12JiffDateTimeINtNtCs66KPHxksi63_4core7convert4FromNtNtNtCs3tnJ9lKo9L6_4jiff5civil8datetime8DateTimeE4from
FNDA:0,_RNvXs1_NtCs8WYW6vAPwZd_9ryo3_jiff10jiff_typesNtB5_7JiffEraINtNtCs66KPHxksi63_4core7convert4FromNtNtCs3tnJ9lKo9L6_4jiff5civil3EraE4from
FNDA:0,_RNvXs2_NtCs8WYW6vAPwZd_9ryo3_jiff10jiff_typesNtB5_20JiffTzDisambiguationINtNtCs66KPHxksi63_4core7convert4FromNtNtNtCs3tnJ9lKo9L6_4jiff2tz9ambiguous14DisambiguationE4from
FNDA:401,_RNvXs3_NtCs8WYW6vAPwZd_9ryo3_jiff10jiff_typesNtB5_9JiffZonedINtNtCs66KPHxksi63_4core7convert4FromNtNtCs3tnJ9lKo9L6_4jiff5zoned5ZonedE4from
FNDA:0,_RNvXs4_NtCs8WYW6vAPwZd_9ryo3_jiff10jiff_typesNtB5_8JiffSpanINtNtCs66KPHxksi63_4core7convert4FromNtNtCs3tnJ9lKo9L6_4jiff4span4SpanE4from
FNDA:2,_RNvXs5_NtCs8WYW6vAPwZd_9ryo3_jiff10jiff_typesNtB5_12JiffTimeZoneINtNtCs66KPHxksi63_4core7convert4FromNtNtNtCs3tnJ9lKo9L6_4jiff2tz8timezone8TimeZoneE4from
FNDA:2,_RNvXs6_NtCs8WYW6vAPwZd_9ryo3_jiff10jiff_typesNtB5_10JiffOffsetINtNtCs66KPHxksi63_4core7convert4FromNtNtNtCs3tnJ9lKo9L6_4jiff2tz6offset6OffsetE4from
FNDA:101,_RNvXs7_NtCs8WYW6vAPwZd_9ryo3_jiff10jiff_typesNtB5_18JiffSignedDurationINtNtCs66KPHxksi63_4core7convert4FromNtNtCs3tnJ9lKo9L6_4jiff15signed_duration14SignedDurationE4from
FNDA:0,_RNvXs8_NtCs8WYW6vAPwZd_9ryo3_jiff10jiff_typesNtB5_8JiffUnitINtNtCs66KPHxksi63_4core7convert4FromNtNtCs3tnJ9lKo9L6_4jiff4span4UnitE4from
FNDA:0,_RNvXs9_NtCs8WYW6vAPwZd_9ryo3_jiff10jiff_typesNtB5_11JiffWeekdayINtNtCs66KPHxksi63_4core7convert4FromNtNtNtCs3tnJ9lKo9L6_4jiff5civil7weekday7WeekdayE4from
FNDA:201,_RNvXs_NtCs8WYW6vAPwZd_9ryo3_jiff10jiff_typesNtB4_8JiffTimeINtNtCs66KPHxksi63_4core7convert4FromNtNtNtCs3tnJ9lKo9L6_4jiff5civil4time4TimeE4from
FNDA:0,_RNvXsa_NtCs8WYW6vAPwZd_9ryo3_jiff10jiff_typesNtB5_20JiffTzOffsetConflictINtNtCs66KPHxksi63_4core7convert4FromNtNtNtCs3tnJ9lKo9L6_4jiff2tz6offset14OffsetConflictE4from
FNDA:82,_RNvXsm_NtCs8WYW6vAPwZd_9ryo3_jiff10jiff_typesNtB5_8JiffUnitNtNtCs66KPHxksi63_4core3fmt7Display3fmt
FNDA:82,_RNvXso_NtCs8WYW6vAPwZd_9ryo3_jiff10jiff_typesNtB5_13JiffRoundModeNtNtCs66KPHxksi63_4core3fmt7Display3fmt
FNDA:1,_RNvXsq_NtCs8WYW6vAPwZd_9ryo3_jiff10jiff_typesNtB5_11JiffWeekdayNtNtCs66KPHxksi63_4core3fmt7Display3fmt
FNDA:0,_RNvXsh_NtCs8WYW6vAPwZd_9ryo3_jiff10jiff_typesNtNtNtCs3tnJ9lKo9L6_4jiff2tz6offset6OffsetINtNtCs66KPHxksi63_4core7convert4FromNtB5_10JiffOffsetE4from
FNDA:0,_RNvXsg_NtCs8WYW6vAPwZd_9ryo3_jiff10jiff_typesNtNtNtCs3tnJ9lKo9L6_4jiff2tz8timezone8TimeZoneINtNtCs66KPHxksi63_4core7convert4FromNtB5_12JiffTimeZoneE4from
FNDA:0,_RNvXsd_NtCs8WYW6vAPwZd_9ryo3_jiff10jiff_typesNtNtNtCs3tnJ9lKo9L6_4jiff5civil8datetime8DateTimeINtNtCs66KPHxksi63_4core7convert4FromNtB5_12JiffDateTimeE4from
FNDA:0,_RNvXsb_NtCs8WYW6vAPwZd_9ryo3_jiff10jiff_typesNtNtNtCs3tnJ9lKo9L6_4jiff5civil4date4DateINtNtCs66KPHxksi63_4core7convert4FromNtB5_8JiffDateE4from
FNDA:0,_RNvXse_NtCs8WYW6vAPwZd_9ryo3_jiff10jiff_typesNtNtCs3tnJ9lKo9L6_4jiff5zoned5ZonedINtNtCs66KPHxksi63_4core7convert4FromNtB5_9JiffZonedE4from
FNDA:0,_RNvXsk_NtCs8WYW6vAPwZd_9ryo3_jiff10jiff_typesNtNtNtCs3tnJ9lKo9L6_4jiff5civil7weekday7WeekdayINtNtCs66KPHxksi63_4core7convert4FromNtB5_11JiffWeekdayE4from
FNF:29
FNH:11
DA:39,0
DA:40,0
DA:41,0
DA:45,201
DA:46,201
DA:47,201
DA:51,0
DA:52,0
DA:53,0
DA:57,0
DA:58,0
DA:59,0
DA:63,0
DA:64,0
DA:65,0
DA:69,401
DA:70,401
DA:71,401
DA:75,0
DA:76,0
DA:77,0
DA:81,2
DA:82,2
DA:83,2
DA:87,2
DA:88,2
DA:89,2
DA:93,101
DA:94,101
DA:95,101
DA:99,0
DA:100,0
DA:101,0
DA:105,0
DA:106,0
DA:107,0
DA:111,0
DA:112,0
DA:113,0
DA:119,0
DA:120,0
DA:121,0
DA:125,0
DA:126,0
DA:127,0
DA:131,0
DA:132,0
DA:133,0
DA:137,0
DA:138,0
DA:139,0
DA:143,0
DA:144,0
DA:145,0
DA:149,0
DA:150,0
DA:151,0
DA:155,0
DA:156,0
DA:157,0
DA:161,0
DA:162,0
DA:163,0
DA:167,0
DA:168,0
DA:169,0
DA:173,0
DA:174,0
DA:175,0
DA:183,82
DA:184,82
DA:185,9
DA:186,9
DA:187,0
DA:188,9
DA:189,9
DA:190,9
DA:191,9
DA:192,9
DA:193,9
DA:194,10
DA:196,82
DA:200,82
DA:201,82
DA:202,82
DA:203,82
DA:210,82
DA:211,82
DA:212,9
DA:213,9
DA:214,9
DA:215,9
DA:216,9
DA:217,9
DA:218,10
DA:219,9
DA:220,9
DA:221,0
DA:223,82
DA:227,82
DA:228,82
DA:229,82
DA:230,82
DA:237,1
DA:238,1
DA:239,0
DA:240,0
DA:241,1
DA:242,0
DA:243,0
DA:244,0
DA:245,0
DA:247,1
DA:251,1
DA:252,1
DA:253,1
DA:254,1
BRF:0
BRH:0
LF:117
LH:55
end_of_record
SF:/home/jesse/ry/crates/ryo3-jiff/src/pydatetime_conversions/date.rs
FN:11,_RNvXNtNtCs8WYW6vAPwZd_9ryo3_jiff22pydatetime_conversions4dateNtNtB6_10jiff_types8JiffDateNtNtCsjhPV6BdWoWa_4pyo310conversion12IntoPyObject13into_pyobject
FN:32,_RNvXs0_NtNtCs8WYW6vAPwZd_9ryo3_jiff22pydatetime_conversions4dateNtNtB9_10jiff_types8JiffDateNtNtCsjhPV6BdWoWa_4pyo310conversion12FromPyObject13extract_bound
FN:21,_RNvXs_NtNtCs8WYW6vAPwZd_9ryo3_jiff22pydatetime_conversions4dateRNtNtB8_10jiff_types8JiffDateNtNtCsjhPV6BdWoWa_4pyo310conversion12IntoPyObject13into_pyobject
FN:51,_RINvNtNtCs8WYW6vAPwZd_9ryo3_jiff22pydatetime_conversions4date15py_date_to_dateINtNtCsjhPV6BdWoWa_4pyo38instance5BoundNtNtNtB1j_5types8datetime10PyDateTimeEEB6_
FN:51,_RINvNtNtCs8WYW6vAPwZd_9ryo3_jiff22pydatetime_conversions4date15py_date_to_dateINtNtCsjhPV6BdWoWa_4pyo38instance5BoundNtNtNtB1j_5types8datetime6PyDateEEB6_
FN:54,_RNCINvNtNtCs8WYW6vAPwZd_9ryo3_jiff22pydatetime_conversions4date15py_date_to_dateINtNtCsjhPV6BdWoWa_4pyo38instance5BoundNtNtNtB1l_5types8datetime10PyDateTimeEE0B8_
FN:60,_RNCINvNtNtCs8WYW6vAPwZd_9ryo3_jiff22pydatetime_conversions4date15py_date_to_dateINtNtCsjhPV6BdWoWa_4pyo38instance5BoundNtNtNtB1l_5types8datetime10PyDateTimeEEs0_0B8_
FN:62,_RNCINvNtNtCs8WYW6vAPwZd_9ryo3_jiff22pydatetime_conversions4date15py_date_to_dateINtNtCsjhPV6BdWoWa_4pyo38instance5BoundNtNtNtB1l_5types8datetime10PyDateTimeEEs1_0B8_
FN:57,_RNCINvNtNtCs8WYW6vAPwZd_9ryo3_jiff22pydatetime_conversions4date15py_date_to_dateINtNtCsjhPV6BdWoWa_4pyo38instance5BoundNtNtNtB1l_5types8datetime10PyDateTimeEEs_0B8_
FN:54,_RNCINvNtNtCs8WYW6vAPwZd_9ryo3_jiff22pydatetime_conversions4date15py_date_to_dateINtNtCsjhPV6BdWoWa_4pyo38instance5BoundNtNtNtB1l_5types8datetime6PyDateEE0B8_
FN:60,_RNCINvNtNtCs8WYW6vAPwZd_9ryo3_jiff22pydatetime_conversions4date15py_date_to_dateINtNtCsjhPV6BdWoWa_4pyo38instance5BoundNtNtNtB1l_5types8datetime6PyDateEEs0_0B8_
FN:62,_RNCINvNtNtCs8WYW6vAPwZd_9ryo3_jiff22pydatetime_conversions4date15py_date_to_dateINtNtCsjhPV6BdWoWa_4pyo38instance5BoundNtNtNtB1l_5types8datetime6PyDateEEs1_0B8_
FN:57,_RNCINvNtNtCs8WYW6vAPwZd_9ryo3_jiff22pydatetime_conversions4date15py_date_to_dateINtNtCsjhPV6BdWoWa_4pyo38instance5BoundNtNtNtB1l_5types8datetime6PyDateEEs_0B8_
FN:43,_RNCNvNtNtCs8WYW6vAPwZd_9ryo3_jiff22pydatetime_conversions4date16date_to_pyobject0B7_
FN:46,_RNCNvNtNtCs8WYW6vAPwZd_9ryo3_jiff22pydatetime_conversions4date16date_to_pyobjects_0B7_
FNDA:0,_RNvXNtNtCs8WYW6vAPwZd_9ryo3_jiff22pydatetime_conversions4dateNtNtB6_10jiff_types8JiffDateNtNtCsjhPV6BdWoWa_4pyo310conversion12IntoPyObject13into_pyobject
FNDA:0,_RNvXs0_NtNtCs8WYW6vAPwZd_9ryo3_jiff22pydatetime_conversions4dateNtNtB9_10jiff_types8JiffDateNtNtCsjhPV6BdWoWa_4pyo310conversion12FromPyObject13extract_bound
FNDA:0,_RNvXs_NtNtCs8WYW6vAPwZd_9ryo3_jiff22pydatetime_conversions4dateRNtNtB8_10jiff_types8JiffDateNtNtCsjhPV6BdWoWa_4pyo310conversion12IntoPyObject13into_pyobject
FNDA:401,_RINvNtNtCs8WYW6vAPwZd_9ryo3_jiff22pydatetime_conversions4date15py_date_to_dateINtNtCsjhPV6BdWoWa_4pyo38instance5BoundNtNtNtB1j_5types8datetime10PyDateTimeEEB6_
FNDA:0,_RINvNtNtCs8WYW6vAPwZd_9ryo3_jiff22pydatetime_conversions4date15py_date_to_dateINtNtCsjhPV6BdWoWa_4pyo38instance5BoundNtNtNtB1j_5types8datetime6PyDateEEB6_
FNDA:0,_RNCINvNtNtCs8WYW6vAPwZd_9ryo3_jiff22pydatetime_conversions4date15py_date_to_dateINtNtCsjhPV6BdWoWa_4pyo38instance5BoundNtNtNtB1l_5types8datetime10PyDateTimeEE0B8_
FNDA:0,_RNCINvNtNtCs8WYW6vAPwZd_9ryo3_jiff22pydatetime_conversions4date15py_date_to_dateINtNtCsjhPV6BdWoWa_4pyo38instance5BoundNtNtNtB1l_5types8datetime10PyDateTimeEEs0_0B8_
FNDA:0,_RNCINvNtNtCs8WYW6vAPwZd_9ryo3_jiff22pydatetime_conversions4date15py_date_to_dateINtNtCsjhPV6BdWoWa_4pyo38instance5BoundNtNtNtB1l_5types8datetime10PyDateTimeEEs1_0B8_
FNDA:0,_RNCINvNtNtCs8WYW6vAPwZd_9ryo3_jiff22pydatetime_conversions4date15py_date_to_dateINtNtCsjhPV6BdWoWa_4pyo38instance5BoundNtNtNtB1l_5types8datetime10PyDateTimeEEs_0B8_
FNDA:0,_RNCINvNtNtCs8WYW6vAPwZd_9ryo3_jiff22pydatetime_conversions4date15py_date_to_dateINtNtCsjhPV6BdWoWa_4pyo38instance5BoundNtNtNtB1l_5types8datetime6PyDateEE0B8_
FNDA:0,_RNCINvNtNtCs8WYW6vAPwZd_9ryo3_jiff22pydatetime_conversions4date15py_date_to_dateINtNtCsjhPV6BdWoWa_4pyo38instance5BoundNtNtNtB1l_5types8datetime6PyDateEEs0_0B8_
FNDA:0,_RNCINvNtNtCs8WYW6vAPwZd_9ryo3_jiff22pydatetime_conversions4date15py_date_to_dateINtNtCsjhPV6BdWoWa_4pyo38instance5BoundNtNtNtB1l_5types8datetime6PyDateEEs1_0B8_
FNDA:0,_RNCINvNtNtCs8WYW6vAPwZd_9ryo3_jiff22pydatetime_conversions4date15py_date_to_dateINtNtCsjhPV6BdWoWa_4pyo38instance5BoundNtNtNtB1l_5types8datetime6PyDateEEs_0B8_
FNDA:0,_RNCNvNtNtCs8WYW6vAPwZd_9ryo3_jiff22pydatetime_conversions4date16date_to_pyobject0B7_
FNDA:0,_RNCNvNtNtCs8WYW6vAPwZd_9ryo3_jiff22pydatetime_conversions4date16date_to_pyobjects_0B7_
FNF:10
FNH:1
DA:11,0
DA:12,0
DA:13,0
DA:21,0
DA:22,0
DA:23,0
DA:24,0
DA:25,0
DA:26,0
DA:28,0
DA:32,0
DA:33,0
DA:34,0
DA:35,0
DA:36,0
DA:43,0
DA:46,0
DA:51,401
DA:52,401
DA:53,401
DA:54,401
DA:55,401
DA:56,401
DA:57,401
DA:58,401
DA:59,401
DA:60,401
DA:61,401
DA:62,401
DA:63,401
DA:64,401
BRF:0
BRH:0
LF:35
LH:14
end_of_record
SF:/home/jesse/ry/crates/ryo3-jiff/src/pydatetime_conversions/datetime.rs
FN:15,_RNvXNtNtCs8WYW6vAPwZd_9ryo3_jiff22pydatetime_conversions8datetimeNtNtB6_10jiff_types12JiffDateTimeNtNtCsjhPV6BdWoWa_4pyo310conversion12IntoPyObject13into_pyobject
FN:32,_RNvXs0_NtNtCs8WYW6vAPwZd_9ryo3_jiff22pydatetime_conversions8datetimeNtNtB9_10jiff_types12JiffDateTimeNtNtCsjhPV6BdWoWa_4pyo310conversion12FromPyObject13extract_bound
FN:26,_RNvXs_NtNtCs8WYW6vAPwZd_9ryo3_jiff22pydatetime_conversions8datetimeRNtNtB8_10jiff_types12JiffDateTimeNtNtCsjhPV6BdWoWa_4pyo310conversion12IntoPyObject13into_pyobjectB8_
FNDA:0,_RNvXNtNtCs8WYW6vAPwZd_9ryo3_jiff22pydatetime_conversions8datetimeNtNtB6_10jiff_types12JiffDateTimeNtNtCsjhPV6BdWoWa_4pyo310conversion12IntoPyObject13into_pyobject
FNDA:0,_RNvXs0_NtNtCs8WYW6vAPwZd_9ryo3_jiff22pydatetime_conversions8datetimeNtNtB9_10jiff_types12JiffDateTimeNtNtCsjhPV6BdWoWa_4pyo310conversion12FromPyObject13extract_bound
FNDA:0,_RNvXs_NtNtCs8WYW6vAPwZd_9ryo3_jiff22pydatetime_conversions8datetimeRNtNtB8_10jiff_types12JiffDateTimeNtNtCsjhPV6BdWoWa_4pyo310conversion12IntoPyObject13into_pyobjectB8_
FNF:3
FNH:0
DA:15,0
DA:16,0
DA:17,0
DA:26,0
DA:27,0
DA:28,0
DA:32,0
DA:33,0
DA:39,0
DA:42,0
DA:43,0
DA:44,0
DA:45,0
DA:46,0
DA:47,0
DA:49,0
DA:50,0
BRF:0
BRH:0
LF:17
LH:0
end_of_record
SF:/home/jesse/ry/crates/ryo3-jiff/src/pydatetime_conversions/era.rs
FN:9,_RNvXNtNtCs8WYW6vAPwZd_9ryo3_jiff22pydatetime_conversions3eraNtNtB6_10jiff_types7JiffEraNtNtCsjhPV6BdWoWa_4pyo310conversion12FromPyObject13extract_bound
FNDA:0,_RNvXNtNtCs8WYW6vAPwZd_9ryo3_jiff22pydatetime_conversions3eraNtNtB6_10jiff_types7JiffEraNtNtCsjhPV6BdWoWa_4pyo310conversion12FromPyObject13extract_bound
FNF:1
FNH:0
DA:9,0
DA:11,0
DA:12,0
DA:13,0
DA:14,0
DA:15,0
DA:16,0
DA:17,0
DA:18,0
DA:21,0
DA:22,0
DA:23,0
DA:25,0
BRF:0
BRH:0
LF:13
LH:0
end_of_record
SF:/home/jesse/ry/crates/ryo3-jiff/src/pydatetime_conversions/era_year.rs
FN:15,_RNvXNtNtCs8WYW6vAPwZd_9ryo3_jiff22pydatetime_conversions8era_yearRNtNtB6_10jiff_types11JiffEraYearNtNtCsjhPV6BdWoWa_4pyo310conversion12IntoPyObject13into_pyobject
FN:45,_RNvXs_NtNtCs8WYW6vAPwZd_9ryo3_jiff22pydatetime_conversions8era_yearNtNtB8_10jiff_types11JiffEraYearNtNtCsjhPV6BdWoWa_4pyo310conversion12IntoPyObject13into_pyobjectB8_
FNDA:1,_RNvXNtNtCs8WYW6vAPwZd_9ryo3_jiff22pydatetime_conversions8era_yearRNtNtB6_10jiff_types11JiffEraYearNtNtCsjhPV6BdWoWa_4pyo310conversion12IntoPyObject13into_pyobject
FNDA:1,_RNvXs_NtNtCs8WYW6vAPwZd_9ryo3_jiff22pydatetime_conversions8era_yearNtNtB8_10jiff_types11JiffEraYearNtNtCsjhPV6BdWoWa_4pyo310conversion12IntoPyObject13into_pyobjectB8_
FNF:2
FNH:2
DA:15,1
DA:16,1
DA:17,1
DA:18,0
DA:19,1
DA:21,1
DA:22,1
DA:24,1
DA:27,1
DA:33,1
DA:45,1
DA:46,1
DA:47,1
BRF:0
BRH:0
LF:13
LH:12
end_of_record
SF:/home/jesse/ry/crates/ryo3-jiff/src/pydatetime_conversions/offset.rs
FN:13,_RNvXNtNtCs8WYW6vAPwZd_9ryo3_jiff22pydatetime_conversions6offsetNtNtB6_10jiff_types10JiffOffsetNtNtCsjhPV6BdWoWa_4pyo310conversion12IntoPyObject13into_pyobject
FN:35,_RNvXs0_NtNtCs8WYW6vAPwZd_9ryo3_jiff22pydatetime_conversions6offsetNtNtB9_10jiff_types10JiffOffsetNtNtCsjhPV6BdWoWa_4pyo310conversion12FromPyObject13extract_bound
FN:23,_RNvXs_NtNtCs8WYW6vAPwZd_9ryo3_jiff22pydatetime_conversions6offsetRNtNtB8_10jiff_types10JiffOffsetNtNtCsjhPV6BdWoWa_4pyo310conversion12IntoPyObject13into_pyobject
FN:53,_RNCNvXs0_NtNtCs8WYW6vAPwZd_9ryo3_jiff22pydatetime_conversions6offsetNtNtBb_10jiff_types10JiffOffsetNtNtCsjhPV6BdWoWa_4pyo310conversion12FromPyObject13extract_bound0Bb_
FN:55,_RNCNvXs0_NtNtCs8WYW6vAPwZd_9ryo3_jiff22pydatetime_conversions6offsetNtNtBb_10jiff_types10JiffOffsetNtNtCsjhPV6BdWoWa_4pyo310conversion12FromPyObject13extract_bounds_0Bb_
FNDA:0,_RNvXNtNtCs8WYW6vAPwZd_9ryo3_jiff22pydatetime_conversions6offsetNtNtB6_10jiff_types10JiffOffsetNtNtCsjhPV6BdWoWa_4pyo310conversion12IntoPyObject13into_pyobject
FNDA:2,_RNvXs0_NtNtCs8WYW6vAPwZd_9ryo3_jiff22pydatetime_conversions6offsetNtNtB9_10jiff_types10JiffOffsetNtNtCsjhPV6BdWoWa_4pyo310conversion12FromPyObject13extract_bound
FNDA:0,_RNvXs_NtNtCs8WYW6vAPwZd_9ryo3_jiff22pydatetime_conversions6offsetRNtNtB8_10jiff_types10JiffOffsetNtNtCsjhPV6BdWoWa_4pyo310conversion12IntoPyObject13into_pyobject
FNDA:0,_RNCNvXs0_NtNtCs8WYW6vAPwZd_9ryo3_jiff22pydatetime_conversions6offsetNtNtBb_10jiff_types10JiffOffsetNtNtCsjhPV6BdWoWa_4pyo310conversion12FromPyObject13extract_bound0Bb_
FNDA:0,_RNCNvXs0_NtNtCs8WYW6vAPwZd_9ryo3_jiff22pydatetime_conversions6offsetNtNtBb_10jiff_types10JiffOffsetNtNtCsjhPV6BdWoWa_4pyo310conversion12FromPyObject13extract_bounds_0Bb_
FNF:5
FNH:1
DA:13,0
DA:14,0
DA:15,0
DA:23,0
DA:24,0
DA:25,0
DA:26,0
DA:27,0
DA:35,2
DA:36,2
DA:43,2
DA:44,2
DA:45,0
DA:46,0
DA:47,0
DA:48,2
DA:49,2
DA:52,2
DA:53,2
DA:54,2
DA:55,2
DA:56,2
DA:57,2
BRF:0
BRH:0
LF:25
LH:12
end_of_record
SF:/home/jesse/ry/crates/ryo3-jiff/src/pydatetime_conversions/round_mode.rs
FN:12,_RNvXNtNtCs8WYW6vAPwZd_9ryo3_jiff22pydatetime_conversions10round_modeNtNtB6_10jiff_types13JiffRoundModeNtNtCsjhPV6BdWoWa_4pyo310conversion12IntoPyObject13into_pyobject
FN:43,_RNvXs0_NtNtCs8WYW6vAPwZd_9ryo3_jiff22pydatetime_conversions10round_modeNtNtB9_10jiff_types13JiffRoundModeNtNtCsjhPV6BdWoWa_4pyo310conversion12FromPyObject13extract_bound
FN:23,_RNvXs_NtNtCs8WYW6vAPwZd_9ryo3_jiff22pydatetime_conversions10round_modeRNtNtB8_10jiff_types13JiffRoundModeNtNtCsjhPV6BdWoWa_4pyo310conversion12IntoPyObject13into_pyobjectB8_
FNDA:0,_RNvXNtNtCs8WYW6vAPwZd_9ryo3_jiff22pydatetime_conversions10round_modeNtNtB6_10jiff_types13JiffRoundModeNtNtCsjhPV6BdWoWa_4pyo310conversion12IntoPyObject13into_pyobject
FNDA:397,_RNvXs0_NtNtCs8WYW6vAPwZd_9ryo3_jiff22pydatetime_conversions10round_modeNtNtB9_10jiff_types13JiffRoundModeNtNtCsjhPV6BdWoWa_4pyo310conversion12FromPyObject13extract_bound
FNDA:0,_RNvXs_NtNtCs8WYW6vAPwZd_9ryo3_jiff22pydatetime_conversions10round_modeRNtNtB8_10jiff_types13JiffRoundModeNtNtCsjhPV6BdWoWa_4pyo310conversion12IntoPyObject13into_pyobjectB8_
FNF:3
FNH:1
DA:12,0
DA:13,0
DA:14,0
DA:23,0
DA:24,0
DA:25,0
DA:26,0
DA:27,0
DA:28,0
DA:29,0
DA:30,0
DA:31,0
DA:32,0
DA:33,0
DA:34,0
DA:36,0
DA:37,0
DA:43,397
DA:44,397
DA:45,397
DA:46,397
DA:47,371
DA:48,242
DA:49,224
DA:50,205
DA:51,169
DA:52,134
DA:53,79
DA:54,47
DA:55,0
DA:56,0
DA:57,0
DA:60,0
DA:61,0
DA:62,0
DA:64,397
BRF:0
BRH:0
LF:36
LH:13
end_of_record
SF:/home/jesse/ry/crates/ryo3-jiff/src/pydatetime_conversions/signed_duration.rs
FN:61,_RNvXNtNtCs8WYW6vAPwZd_9ryo3_jiff22pydatetime_conversions15signed_durationNtNtB6_10jiff_types18JiffSignedDurationNtNtCsjhPV6BdWoWa_4pyo310conversion12IntoPyObject13into_pyobject
FN:78,_RNvXs0_NtNtCs8WYW6vAPwZd_9ryo3_jiff22pydatetime_conversions15signed_durationNtNtB9_10jiff_types18JiffSignedDurationNtNtCsjhPV6BdWoWa_4pyo310conversion12FromPyObject13extract_bound
FN:12,_RNvNtNtCs8WYW6vAPwZd_9ryo3_jiff22pydatetime_conversions15signed_duration27signed_duration_to_pyobject
FN:19,_RNvNtNtCs8WYW6vAPwZd_9ryo3_jiff22pydatetime_conversions15signed_duration29signed_duration_from_pyobject
FN:46,_RNCNvNtNtCs8WYW6vAPwZd_9ryo3_jiff22pydatetime_conversions15signed_duration29signed_duration_from_pyobject0B7_
FN:52,_RNCNvNtNtCs8WYW6vAPwZd_9ryo3_jiff22pydatetime_conversions15signed_duration29signed_duration_from_pyobjects0_0B7_
FN:47,_RNCNvNtNtCs8WYW6vAPwZd_9ryo3_jiff22pydatetime_conversions15signed_duration29signed_duration_from_pyobjects_0B7_
FNDA:101,_RNvXNtNtCs8WYW6vAPwZd_9ryo3_jiff22pydatetime_conversions15signed_durationNtNtB6_10jiff_types18JiffSignedDurationNtNtCsjhPV6BdWoWa_4pyo310conversion12IntoPyObject13into_pyobject
FNDA:0,_RNvXs0_NtNtCs8WYW6vAPwZd_9ryo3_jiff22pydatetime_conversions15signed_durationNtNtB9_10jiff_types18JiffSignedDurationNtNtCsjhPV6BdWoWa_4pyo310conversion12FromPyObject13extract_bound
FNDA:101,_RNvNtNtCs8WYW6vAPwZd_9ryo3_jiff22pydatetime_conversions15signed_duration27signed_duration_to_pyobject
FNDA:8,_RNvNtNtCs8WYW6vAPwZd_9ryo3_jiff22pydatetime_conversions15signed_duration29signed_duration_from_pyobject
FNDA:8,_RNCNvNtNtCs8WYW6vAPwZd_9ryo3_jiff22pydatetime_conversions15signed_duration29signed_duration_from_pyobject0B7_
FNDA:0,_RNCNvNtNtCs8WYW6vAPwZd_9ryo3_jiff22pydatetime_conversions15signed_duration29signed_duration_from_pyobjects0_0B7_
FNDA:0,_RNCNvNtNtCs8WYW6vAPwZd_9ryo3_jiff22pydatetime_conversions15signed_duration29signed_duration_from_pyobjects_0B7_
FNF:7
FNH:4
DA:12,101
DA:13,101
DA:14,101
DA:15,101
DA:16,101
DA:17,101
DA:19,8
DA:20,8
DA:22,8
DA:23,8
DA:24,8
DA:25,8
DA:26,8
DA:27,8
DA:28,8
DA:44,8
DA:45,8
DA:46,8
DA:47,8
DA:50,8
DA:51,8
DA:52,8
DA:53,8
DA:54,8
DA:61,101
DA:62,101
DA:63,101
DA:78,0
DA:79,0
DA:80,0
DA:81,0
BRF:0
BRH:0
LF:34
LH:28
end_of_record
SF:/home/jesse/ry/crates/ryo3-jiff/src/pydatetime_conversions/span.rs
FN:11,_RNvXNtNtCs8WYW6vAPwZd_9ryo3_jiff22pydatetime_conversions4spanNtNtB6_10jiff_types8JiffSpanNtNtCsjhPV6BdWoWa_4pyo310conversion12IntoPyObject13into_pyobject
FN:33,_RNvXs0_NtNtCs8WYW6vAPwZd_9ryo3_jiff22pydatetime_conversions4spanNtNtB9_10jiff_types8JiffSpanNtNtCsjhPV6BdWoWa_4pyo310conversion12FromPyObject13extract_bound
FN:22,_RNvXs_NtNtCs8WYW6vAPwZd_9ryo3_jiff22pydatetime_conversions4spanRNtNtB8_10jiff_types8JiffSpanNtNtCsjhPV6BdWoWa_4pyo310conversion12IntoPyObject13into_pyobjectB8_
FN:27,_RNCNvXs_NtNtCs8WYW6vAPwZd_9ryo3_jiff22pydatetime_conversions4spanRNtNtBa_10jiff_types8JiffSpanNtNtCsjhPV6BdWoWa_4pyo310conversion12IntoPyObject13into_pyobject0Ba_
FNDA:101,_RNvXNtNtCs8WYW6vAPwZd_9ryo3_jiff22pydatetime_conversions4spanNtNtB6_10jiff_types8JiffSpanNtNtCsjhPV6BdWoWa_4pyo310conversion12IntoPyObject13into_pyobject
FNDA:0,_RNvXs0_NtNtCs8WYW6vAPwZd_9ryo3_jiff22pydatetime_conversions4spanNtNtB9_10jiff_types8JiffSpanNtNtCsjhPV6BdWoWa_4pyo310conversion12FromPyObject13extract_bound
FNDA:101,_RNvXs_NtNtCs8WYW6vAPwZd_9ryo3_jiff22pydatetime_conversions4spanRNtNtB8_10jiff_types8JiffSpanNtNtCsjhPV6BdWoWa_4pyo310conversion12IntoPyObject13into_pyobjectB8_
FNDA:0,_RNCNvXs_NtNtCs8WYW6vAPwZd_9ryo3_jiff22pydatetime_conversions4spanRNtNtBa_10jiff_types8JiffSpanNtNtCsjhPV6BdWoWa_4pyo310conversion12IntoPyObject13into_pyobject0Ba_
FNF:4
FNH:2
DA:11,101
DA:12,101
DA:13,101
DA:22,101
DA:23,101
DA:24,101
DA:25,101
DA:26,101
DA:27,101
DA:28,101
DA:29,101
DA:33,0
DA:34,0
DA:35,0
DA:36,0
DA:37,0
BRF:0
BRH:0
LF:17
LH:11
end_of_record
SF:/home/jesse/ry/crates/ryo3-jiff/src/pydatetime_conversions/time.rs
FN:24,_RINvNtNtCs8WYW6vAPwZd_9ryo3_jiff22pydatetime_conversions4time20py_time_to_jiff_timeINtNtCsjhPV6BdWoWa_4pyo38instance5BoundNtNtNtB1o_5types8datetime10PyDateTimeEEB6_
FN:24,_RINvNtNtCs8WYW6vAPwZd_9ryo3_jiff22pydatetime_conversions4time20py_time_to_jiff_timeINtNtCsjhPV6BdWoWa_4pyo38instance5BoundNtNtNtB1o_5types8datetime6PyTimeEEB6_
FN:29,_RNCINvNtNtCs8WYW6vAPwZd_9ryo3_jiff22pydatetime_conversions4time20py_time_to_jiff_timeINtNtCsjhPV6BdWoWa_4pyo38instance5BoundNtNtNtB1q_5types8datetime10PyDateTimeEE0B8_
FN:38,_RNCINvNtNtCs8WYW6vAPwZd_9ryo3_jiff22pydatetime_conversions4time20py_time_to_jiff_timeINtNtCsjhPV6BdWoWa_4pyo38instance5BoundNtNtNtB1q_5types8datetime10PyDateTimeEEs0_0B8_
FN:42,_RNCINvNtNtCs8WYW6vAPwZd_9ryo3_jiff22pydatetime_conversions4time20py_time_to_jiff_timeINtNtCsjhPV6BdWoWa_4pyo38instance5BoundNtNtNtB1q_5types8datetime10PyDateTimeEEs1_0B8_
FN:46,_RNCINvNtNtCs8WYW6vAPwZd_9ryo3_jiff22pydatetime_conversions4time20py_time_to_jiff_timeINtNtCsjhPV6BdWoWa_4pyo38instance5BoundNtNtNtB1q_5types8datetime10PyDateTimeEEs2_0B8_
FN:34,_RNCINvNtNtCs8WYW6vAPwZd_9ryo3_jiff22pydatetime_conversions4time20py_time_to_jiff_timeINtNtCsjhPV6BdWoWa_4pyo38instance5BoundNtNtNtB1q_5types8datetime10PyDateTimeEEs_0B8_
FN:29,_RNCINvNtNtCs8WYW6vAPwZd_9ryo3_jiff22pydatetime_conversions4time20py_time_to_jiff_timeINtNtCsjhPV6BdWoWa_4pyo38instance5BoundNtNtNtB1q_5types8datetime6PyTimeEE0B8_
FN:38,_RNCINvNtNtCs8WYW6vAPwZd_9ryo3_jiff22pydatetime_conversions4time20py_time_to_jiff_timeINtNtCsjhPV6BdWoWa_4pyo38instance5BoundNtNtNtB1q_5types8datetime6PyTimeEEs0_0B8_
FN:42,_RNCINvNtNtCs8WYW6vAPwZd_9ryo3_jiff22pydatetime_conversions4time20py_time_to_jiff_timeINtNtCsjhPV6BdWoWa_4pyo38instance5BoundNtNtNtB1q_5types8datetime6PyTimeEEs1_0B8_
FN:46,_RNCINvNtNtCs8WYW6vAPwZd_9ryo3_jiff22pydatetime_conversions4time20py_time_to_jiff_timeINtNtCsjhPV6BdWoWa_4pyo38instance5BoundNtNtNtB1q_5types8datetime6PyTimeEEs2_0B8_
FN:34,_RNCINvNtNtCs8WYW6vAPwZd_9ryo3_jiff22pydatetime_conversions4time20py_time_to_jiff_timeINtNtCsjhPV6BdWoWa_4pyo38instance5BoundNtNtNtB1q_5types8datetime6PyTimeEEs_0B8_
FN:10,_RNCNvNtNtCs8WYW6vAPwZd_9ryo3_jiff22pydatetime_conversions4time16time_to_pyobject0B7_
FN:14,_RNCNvNtNtCs8WYW6vAPwZd_9ryo3_jiff22pydatetime_conversions4time16time_to_pyobjects0_0B7_
FN:15,_RNCNvNtNtCs8WYW6vAPwZd_9ryo3_jiff22pydatetime_conversions4time16time_to_pyobjects1_0B7_
FN:12,_RNCNvNtNtCs8WYW6vAPwZd_9ryo3_jiff22pydatetime_conversions4time16time_to_pyobjects_0B7_
FN:77,_RNvXNtNtCs8WYW6vAPwZd_9ryo3_jiff22pydatetime_conversions4timeNtNtB6_10jiff_types8JiffTimeNtNtCsjhPV6BdWoWa_4pyo310conversion12IntoPyObject13into_pyobject
FN:94,_RNvXs0_NtNtCs8WYW6vAPwZd_9ryo3_jiff22pydatetime_conversions4timeNtNtB9_10jiff_types8JiffTimeNtNtCsjhPV6BdWoWa_4pyo310conversion12FromPyObject13extract_bound
FN:5,_RNvNtNtCs8WYW6vAPwZd_9ryo3_jiff22pydatetime_conversions4time16time_to_pyobject
FNDA:401,_RINvNtNtCs8WYW6vAPwZd_9ryo3_jiff22pydatetime_conversions4time20py_time_to_jiff_timeINtNtCsjhPV6BdWoWa_4pyo38instance5BoundNtNtNtB1o_5types8datetime10PyDateTimeEEB6_
FNDA:201,_RINvNtNtCs8WYW6vAPwZd_9ryo3_jiff22pydatetime_conversions4time20py_time_to_jiff_timeINtNtCsjhPV6BdWoWa_4pyo38instance5BoundNtNtNtB1o_5types8datetime6PyTimeEEB6_
FNDA:0,_RNCINvNtNtCs8WYW6vAPwZd_9ryo3_jiff22pydatetime_conversions4time20py_time_to_jiff_timeINtNtCsjhPV6BdWoWa_4pyo38instance5BoundNtNtNtB1q_5types8datetime10PyDateTimeEE0B8_
FNDA:0,_RNCINvNtNtCs8WYW6vAPwZd_9ryo3_jiff22pydatetime_conversions4time20py_time_to_jiff_timeINtNtCsjhPV6BdWoWa_4pyo38instance5BoundNtNtNtB1q_5types8datetime10PyDateTimeEEs0_0B8_
FNDA:0,_RNCINvNtNtCs8WYW6vAPwZd_9ryo3_jiff22pydatetime_conversions4time20py_time_to_jiff_timeINtNtCsjhPV6BdWoWa_4pyo38instance5BoundNtNtNtB1q_5types8datetime10PyDateTimeEEs1_0B8_
FNDA:0,_RNCINvNtNtCs8WYW6vAPwZd_9ryo3_jiff22pydatetime_conversions4time20py_time_to_jiff_timeINtNtCsjhPV6BdWoWa_4pyo38instance5BoundNtNtNtB1q_5types8datetime10PyDateTimeEEs2_0B8_
FNDA:0,_RNCINvNtNtCs8WYW6vAPwZd_9ryo3_jiff22pydatetime_conversions4time20py_time_to_jiff_timeINtNtCsjhPV6BdWoWa_4pyo38instance5BoundNtNtNtB1q_5types8datetime10PyDateTimeEEs_0B8_
FNDA:0,_RNCINvNtNtCs8WYW6vAPwZd_9ryo3_jiff22pydatetime_conversions4time20py_time_to_jiff_timeINtNtCsjhPV6BdWoWa_4pyo38instance5BoundNtNtNtB1q_5types8datetime6PyTimeEE0B8_
FNDA:0,_RNCINvNtNtCs8WYW6vAPwZd_9ryo3_jiff22pydatetime_conversions4time20py_time_to_jiff_timeINtNtCsjhPV6BdWoWa_4pyo38instance5BoundNtNtNtB1q_5types8datetime6PyTimeEEs0_0B8_
FNDA:0,_RNCINvNtNtCs8WYW6vAPwZd_9ryo3_jiff22pydatetime_conversions4time20py_time_to_jiff_timeINtNtCsjhPV6BdWoWa_4pyo38instance5BoundNtNtNtB1q_5types8datetime6PyTimeEEs1_0B8_
FNDA:0,_RNCINvNtNtCs8WYW6vAPwZd_9ryo3_jiff22pydatetime_conversions4time20py_time_to_jiff_timeINtNtCsjhPV6BdWoWa_4pyo38instance5BoundNtNtNtB1q_5types8datetime6PyTimeEEs2_0B8_
FNDA:0,_RNCINvNtNtCs8WYW6vAPwZd_9ryo3_jiff22pydatetime_conversions4time20py_time_to_jiff_timeINtNtCsjhPV6BdWoWa_4pyo38instance5BoundNtNtNtB1q_5types8datetime6PyTimeEEs_0B8_
FNDA:0,_RNCNvNtNtCs8WYW6vAPwZd_9ryo3_jiff22pydatetime_conversions4time16time_to_pyobject0B7_
FNDA:0,_RNCNvNtNtCs8WYW6vAPwZd_9ryo3_jiff22pydatetime_conversions4time16time_to_pyobjects0_0B7_
FNDA:0,_RNCNvNtNtCs8WYW6vAPwZd_9ryo3_jiff22pydatetime_conversions4time16time_to_pyobjects1_0B7_
FNDA:0,_RNCNvNtNtCs8WYW6vAPwZd_9ryo3_jiff22pydatetime_conversions4time16time_to_pyobjects_0B7_
FNDA:0,_RNvXNtNtCs8WYW6vAPwZd_9ryo3_jiff22pydatetime_conversions4timeNtNtB6_10jiff_types8JiffTimeNtNtCsjhPV6BdWoWa_4pyo310conversion12IntoPyObject13into_pyobject
FNDA:201,_RNvXs0_NtNtCs8WYW6vAPwZd_9ryo3_jiff22pydatetime_conversions4timeNtNtB9_10jiff_types8JiffTimeNtNtCsjhPV6BdWoWa_4pyo310conversion12FromPyObject13extract_bound
FNDA:0,_RNvNtNtCs8WYW6vAPwZd_9ryo3_jiff22pydatetime_conversions4time16time_to_pyobject
FNF:13
FNH:2
DA:5,0
DA:6,0
DA:7,0
DA:8,0
DA:9,0
DA:10,0
DA:11,0
DA:12,0
DA:13,0
DA:14,0
DA:15,0
DA:16,0
DA:17,0
DA:18,0
DA:19,0
DA:20,0
DA:24,602
DA:25,602
DA:26,602
DA:27,602
DA:28,602
DA:29,602
DA:31,602
DA:33,602
DA:34,602
DA:36,602
DA:37,602
DA:38,602
DA:40,602
DA:41,602
DA:42,602
DA:43,0
DA:44,0
DA:45,602
DA:46,602
DA:47,602
DA:48,602
DA:77,0
DA:78,0
DA:79,0
DA:94,201
DA:97,201
DA:98,201
DA:104,201
BRF:0
BRH:0
LF:55
LH:23
end_of_record
SF:/home/jesse/ry/crates/ryo3-jiff/src/pydatetime_conversions/timezone.rs
FN:20,_RNvXNtNtCs8WYW6vAPwZd_9ryo3_jiff22pydatetime_conversions8timezoneNtNtB6_10jiff_types12JiffTimeZoneNtNtCsjhPV6BdWoWa_4pyo310conversion12IntoPyObject13into_pyobject
FN:35,_RNvXs0_NtNtCs8WYW6vAPwZd_9ryo3_jiff22pydatetime_conversions8timezoneNtNtB9_10jiff_types12JiffTimeZoneNtNtCsjhPV6BdWoWa_4pyo310conversion12FromPyObject13extract_bound
FN:29,_RNvXs_NtNtCs8WYW6vAPwZd_9ryo3_jiff22pydatetime_conversions8timezoneRNtNtB8_10jiff_types12JiffTimeZoneNtNtCsjhPV6BdWoWa_4pyo310conversion12IntoPyObject13into_pyobject
FN:9,_RNvNtNtCs8WYW6vAPwZd_9ryo3_jiff22pydatetime_conversions8timezone16timezone2pyobect
FN:13,_RNCNvNtNtCs8WYW6vAPwZd_9ryo3_jiff22pydatetime_conversions8timezone16timezone2pyobect0B7_
FNDA:0,_RNvXNtNtCs8WYW6vAPwZd_9ryo3_jiff22pydatetime_conversions8timezoneNtNtB6_10jiff_types12JiffTimeZoneNtNtCsjhPV6BdWoWa_4pyo310conversion12IntoPyObject13into_pyobject
FNDA:506,_RNvXs0_NtNtCs8WYW6vAPwZd_9ryo3_jiff22pydatetime_conversions8timezoneNtNtB9_10jiff_types12JiffTimeZoneNtNtCsjhPV6BdWoWa_4pyo310conversion12FromPyObject13extract_bound
FNDA:0,_RNvXs_NtNtCs8WYW6vAPwZd_9ryo3_jiff22pydatetime_conversions8timezoneRNtNtB8_10jiff_types12JiffTimeZoneNtNtCsjhPV6BdWoWa_4pyo310conversion12IntoPyObject13into_pyobject
FNDA:0,_RNvNtNtCs8WYW6vAPwZd_9ryo3_jiff22pydatetime_conversions8timezone16timezone2pyobect
FNDA:0,_RNCNvNtNtCs8WYW6vAPwZd_9ryo3_jiff22pydatetime_conversions8timezone16timezone2pyobect0B7_
FNF:5
FNH:1
DA:9,0
DA:11,0
DA:12,0
DA:13,0
DA:14,0
DA:20,0
DA:21,0
DA:22,0
DA:29,0
DA:30,0
DA:31,0
DA:35,506
DA:36,506
DA:37,506
DA:38,506
DA:39,504
DA:40,504
DA:41,504
DA:43,2
DA:45,506
BRF:0
BRH:0
LF:21
LH:9
end_of_record
SF:/home/jesse/ry/crates/ryo3-jiff/src/pydatetime_conversions/tz_disambiguation.rs
FN:8,_RNvXNtNtCs8WYW6vAPwZd_9ryo3_jiff22pydatetime_conversions17tz_disambiguationNtNtB6_10jiff_types20JiffTzDisambiguationNtNtCsjhPV6BdWoWa_4pyo310conversion12FromPyObject13extract_bound
FNDA:0,_RNvXNtNtCs8WYW6vAPwZd_9ryo3_jiff22pydatetime_conversions17tz_disambiguationNtNtB6_10jiff_types20JiffTzDisambiguationNtNtCsjhPV6BdWoWa_4pyo310conversion12FromPyObject13extract_bound
FNF:1
FNH:0
DA:8,0
DA:10,0
DA:11,0
DA:12,0
DA:13,0
DA:14,0
DA:15,0
DA:16,0
DA:17,0
DA:18,0
DA:19,0
DA:22,0
DA:23,0
DA:24,0
DA:26,0
BRF:0
BRH:0
LF:15
LH:0
end_of_record
SF:/home/jesse/ry/crates/ryo3-jiff/src/pydatetime_conversions/tz_offset_conflict.rs
FN:7,_RNvXNtNtCs8WYW6vAPwZd_9ryo3_jiff22pydatetime_conversions18tz_offset_conflictNtNtB6_10jiff_types20JiffTzOffsetConflictNtNtCsjhPV6BdWoWa_4pyo310conversion12FromPyObject13extract_bound
FNDA:0,_RNvXNtNtCs8WYW6vAPwZd_9ryo3_jiff22pydatetime_conversions18tz_offset_conflictNtNtB6_10jiff_types20JiffTzOffsetConflictNtNtCsjhPV6BdWoWa_4pyo310conversion12FromPyObject13extract_bound
FNF:1
FNH:0
DA:7,0
DA:9,0
DA:10,0
DA:11,0
DA:12,0
DA:13,0
DA:15,0
DA:16,0
DA:18,0
DA:19,0
DA:21,0
DA:22,0
DA:23,0
DA:24,0
DA:27,0
DA:28,0
DA:29,0
DA:31,0
BRF:0
BRH:0
LF:18
LH:0
end_of_record
SF:/home/jesse/ry/crates/ryo3-jiff/src/pydatetime_conversions/unit.rs
FN:11,_RNvXNtNtCs8WYW6vAPwZd_9ryo3_jiff22pydatetime_conversions4unitNtNtB6_10jiff_types8JiffUnitNtNtCsjhPV6BdWoWa_4pyo310conversion12IntoPyObject13into_pyobject
FN:43,_RNvXs0_NtNtCs8WYW6vAPwZd_9ryo3_jiff22pydatetime_conversions4unitNtNtB9_10jiff_types8JiffUnitNtNtCsjhPV6BdWoWa_4pyo310conversion12FromPyObject13extract_bound
FN:21,_RNvXs_NtNtCs8WYW6vAPwZd_9ryo3_jiff22pydatetime_conversions4unitRNtNtB8_10jiff_types8JiffUnitNtNtCsjhPV6BdWoWa_4pyo310conversion12IntoPyObject13into_pyobjectB8_
FNDA:0,_RNvXNtNtCs8WYW6vAPwZd_9ryo3_jiff22pydatetime_conversions4unitNtNtB6_10jiff_types8JiffUnitNtNtCsjhPV6BdWoWa_4pyo310conversion12IntoPyObject13into_pyobject
FNDA:430,_RNvXs0_NtNtCs8WYW6vAPwZd_9ryo3_jiff22pydatetime_conversions4unitNtNtB9_10jiff_types8JiffUnitNtNtCsjhPV6BdWoWa_4pyo310conversion12FromPyObject13extract_bound
FNDA:0,_RNvXs_NtNtCs8WYW6vAPwZd_9ryo3_jiff22pydatetime_conversions4unitRNtNtB8_10jiff_types8JiffUnitNtNtCsjhPV6BdWoWa_4pyo310conversion12IntoPyObject13into_pyobjectB8_
FNF:3
FNH:1
DA:11,0
DA:12,0
DA:13,0
DA:21,0
DA:22,0
DA:23,0
DA:24,0
DA:25,0
DA:26,0
DA:27,0
DA:28,0
DA:29,0
DA:30,0
DA:31,0
DA:32,0
DA:35,0
DA:36,0
DA:43,430
DA:45,430
DA:46,430
DA:47,430
DA:48,430
DA:49,383
DA:50,341
DA:51,337
DA:52,304
DA:53,256
DA:54,209
DA:55,54
DA:56,36
DA:57,18
DA:58,0
DA:59,0
DA:60,0
DA:63,0
DA:64,0
DA:65,0
DA:66,0
DA:67,0
DA:68,0
DA:69,0
DA:70,0
DA:71,0
DA:72,0
DA:73,0
DA:74,0
DA:75,0
DA:76,0
DA:77,0
DA:80,430
BRF:0
BRH:0
LF:50
LH:15
end_of_record
SF:/home/jesse/ry/crates/ryo3-jiff/src/pydatetime_conversions/weekday.rs
FN:11,_RNvXNtNtCs8WYW6vAPwZd_9ryo3_jiff22pydatetime_conversions7weekdayNtNtB6_10jiff_types11JiffWeekdayNtNtCsjhPV6BdWoWa_4pyo310conversion12IntoPyObject13into_pyobject
FN:42,_RNvXs0_NtNtCs8WYW6vAPwZd_9ryo3_jiff22pydatetime_conversions7weekdayNtNtB9_10jiff_types11JiffWeekdayNtNtCsjhPV6BdWoWa_4pyo310conversion12FromPyObject13extract_bound
FN:22,_RNvXs_NtNtCs8WYW6vAPwZd_9ryo3_jiff22pydatetime_conversions7weekdayRNtNtB8_10jiff_types11JiffWeekdayNtNtCsjhPV6BdWoWa_4pyo310conversion12IntoPyObject13into_pyobjectB8_
FNDA:3,_RNvXNtNtCs8WYW6vAPwZd_9ryo3_jiff22pydatetime_conversions7weekdayNtNtB6_10jiff_types11JiffWeekdayNtNtCsjhPV6BdWoWa_4pyo310conversion12IntoPyObject13into_pyobject
FNDA:22,_RNvXs0_NtNtCs8WYW6vAPwZd_9ryo3_jiff22pydatetime_conversions7weekdayNtNtB9_10jiff_types11JiffWeekdayNtNtCsjhPV6BdWoWa_4pyo310conversion12FromPyObject13extract_bound
FNDA:3,_RNvXs_NtNtCs8WYW6vAPwZd_9ryo3_jiff22pydatetime_conversions7weekdayRNtNtB8_10jiff_types11JiffWeekdayNtNtCsjhPV6BdWoWa_4pyo310conversion12IntoPyObject13into_pyobjectB8_
FNF:3
FNH:3
DA:11,3
DA:12,3
DA:13,3
DA:22,3
DA:23,3
DA:24,0
DA:25,0
DA:26,2
DA:27,0
DA:28,0
DA:29,0
DA:30,1
DA:32,3
DA:35,3
DA:42,22
DA:44,22
DA:45,7
DA:46,7
DA:47,7
DA:48,6
DA:49,6
DA:50,5
DA:51,4
DA:52,4
DA:53,2
DA:54,0
DA:55,0
DA:56,0
DA:59,15
DA:60,15
DA:61,0
DA:62,0
DA:63,4
DA:64,0
DA:65,0
DA:66,2
DA:67,9
DA:68,0
DA:69,0
DA:70,0
DA:73,22
BRF:0
BRH:0
LF:41
LH:26
end_of_record
SF:/home/jesse/ry/crates/ryo3-jiff/src/pydatetime_conversions/zoned.rs
FN:20,_RNvXNtNtCs8WYW6vAPwZd_9ryo3_jiff22pydatetime_conversions5zonedRNtNtB6_10jiff_types9JiffZonedNtNtCsjhPV6BdWoWa_4pyo310conversion12IntoPyObject13into_pyobject
FN:38,_RNvXs0_NtNtCs8WYW6vAPwZd_9ryo3_jiff22pydatetime_conversions5zonedNtNtB9_10jiff_types9JiffZonedNtNtCsjhPV6BdWoWa_4pyo310conversion12FromPyObject13extract_bound
FN:11,_RNvNtNtCs8WYW6vAPwZd_9ryo3_jiff22pydatetime_conversions5zoned13zoned2pyobect
FN:41,_RNCNvXs0_NtNtCs8WYW6vAPwZd_9ryo3_jiff22pydatetime_conversions5zonedNtNtBb_10jiff_types9JiffZonedNtNtCsjhPV6BdWoWa_4pyo310conversion12FromPyObject13extract_bound0Bb_
FN:46,_RNCNvXs0_NtNtCs8WYW6vAPwZd_9ryo3_jiff22pydatetime_conversions5zonedNtNtBb_10jiff_types9JiffZonedNtNtCsjhPV6BdWoWa_4pyo310conversion12FromPyObject13extract_bounds_0Bb_
FNDA:0,_RNvXNtNtCs8WYW6vAPwZd_9ryo3_jiff22pydatetime_conversions5zonedRNtNtB6_10jiff_types9JiffZonedNtNtCsjhPV6BdWoWa_4pyo310conversion12IntoPyObject13into_pyobject
FNDA:401,_RNvXs0_NtNtCs8WYW6vAPwZd_9ryo3_jiff22pydatetime_conversions5zonedNtNtB9_10jiff_types9JiffZonedNtNtCsjhPV6BdWoWa_4pyo310conversion12FromPyObject13extract_bound
FNDA:0,_RNvNtNtCs8WYW6vAPwZd_9ryo3_jiff22pydatetime_conversions5zoned13zoned2pyobect
FNDA:0,_RNCNvXs0_NtNtCs8WYW6vAPwZd_9ryo3_jiff22pydatetime_conversions5zonedNtNtBb_10jiff_types9JiffZonedNtNtCsjhPV6BdWoWa_4pyo310conversion12FromPyObject13extract_bound0Bb_
FNDA:401,_RNCNvXs0_NtNtCs8WYW6vAPwZd_9ryo3_jiff22pydatetime_conversions5zonedNtNtBb_10jiff_types9JiffZonedNtNtCsjhPV6BdWoWa_4pyo310conversion12FromPyObject13extract_bounds_0Bb_
FNF:5
FNH:2
DA:11,0
DA:12,0
DA:13,0
DA:20,0
DA:21,0
DA:22,0
DA:23,0
DA:38,401
DA:39,401
DA:40,401
DA:41,0
DA:42,0
DA:43,0
DA:44,0
DA:45,0
DA:46,401
DA:47,0
DA:48,401
DA:49,401
DA:50,401
DA:51,401
DA:54,401
DA:61,401
DA:62,119
DA:64,282
DA:66,401
BRF:0
BRH:0
LF:26
LH:13
end_of_record
SF:/home/jesse/ry/crates/ryo3-jiff/src/ry_date.rs
FN:119,_RNvMse_NtCs8WYW6vAPwZd_9ryo3_jiff7ry_dateNtB5_6RyDate11___richcmp__
FN:293,_RNvMse_NtCs8WYW6vAPwZd_9ryo3_jiff7ry_dateNtB5_6RyDate11day_of_year
FN:243,_RNvMse_NtCs8WYW6vAPwZd_9ryo3_jiff7ry_dateNtB5_6RyDate11from_pydate
FN:431,_RNvMse_NtCs8WYW6vAPwZd_9ryo3_jiff7ry_dateNtB5_6RyDate11nth_weekday
FN:108,_RNvMse_NtCs8WYW6vAPwZd_9ryo3_jiff7ry_dateNtB5_6RyDate11to_datetime
FN:305,_RNvMse_NtCs8WYW6vAPwZd_9ryo3_jiff7ry_dateNtB5_6RyDate12days_in_year
FN:328,_RNvMse_NtCs8WYW6vAPwZd_9ryo3_jiff7ry_dateNtB5_6RyDate12in_leap_year
FN:336,_RNvMse_NtCs8WYW6vAPwZd_9ryo3_jiff7ry_dateNtB5_6RyDate12last_of_year
FN:301,_RNvMse_NtCs8WYW6vAPwZd_9ryo3_jiff7ry_dateNtB5_6RyDate13days_in_month
FN:324,_RNvMse_NtCs8WYW6vAPwZd_9ryo3_jiff7ry_dateNtB5_6RyDate13first_of_year
FN:445,_RNvMse_NtCs8WYW6vAPwZd_9ryo3_jiff7ry_dateNtB5_6RyDate13iso_week_date
FN:332,_RNvMse_NtCs8WYW6vAPwZd_9ryo3_jiff7ry_dateNtB5_6RyDate13last_of_month
FN:146,_RNvMse_NtCs8WYW6vAPwZd_9ryo3_jiff7ry_dateNtB5_6RyDate14___getnewargs__
FN:309,_RNvMse_NtCs8WYW6vAPwZd_9ryo3_jiff7ry_dateNtB5_6RyDate14duration_since
FN:312,_RNvMse_NtCs8WYW6vAPwZd_9ryo3_jiff7ry_dateNtB5_6RyDate14duration_until
FN:320,_RNvMse_NtCs8WYW6vAPwZd_9ryo3_jiff7ry_dateNtB5_6RyDate14first_of_month
FN:189,_RNvMse_NtCs8WYW6vAPwZd_9ryo3_jiff7ry_dateNtB5_6RyDate14saturating_add
FN:194,_RNvMse_NtCs8WYW6vAPwZd_9ryo3_jiff7ry_dateNtB5_6RyDate14saturating_sub
FN:427,_RNvMse_NtCs8WYW6vAPwZd_9ryo3_jiff7ry_dateNtB5_6RyDate18from_iso_week_date
FN:297,_RNvMse_NtCs8WYW6vAPwZd_9ryo3_jiff7ry_dateNtB5_6RyDate19day_of_year_no_leap
FN:438,_RNvMse_NtCs8WYW6vAPwZd_9ryo3_jiff7ry_dateNtB5_6RyDate20nth_weekday_of_month
FN:83,_RNvMse_NtCs8WYW6vAPwZd_9ryo3_jiff7ry_dateNtB5_6RyDate2at
FN:53,_RNvMse_NtCs8WYW6vAPwZd_9ryo3_jiff7ry_dateNtB5_6RyDate3MAX
FN:47,_RNvMse_NtCs8WYW6vAPwZd_9ryo3_jiff7ry_dateNtB5_6RyDate3MIN
FN:181,_RNvMse_NtCs8WYW6vAPwZd_9ryo3_jiff7ry_dateNtB5_6RyDate3add
FN:98,_RNvMse_NtCs8WYW6vAPwZd_9ryo3_jiff7ry_dateNtB5_6RyDate3day
FN:185,_RNvMse_NtCs8WYW6vAPwZd_9ryo3_jiff7ry_dateNtB5_6RyDate3sub
FN:59,_RNvMse_NtCs8WYW6vAPwZd_9ryo3_jiff7ry_dateNtB5_6RyDate4ZERO
FN:270,_RNvMse_NtCs8WYW6vAPwZd_9ryo3_jiff7ry_dateNtB5_6RyDate4intz
FN:88,_RNvMse_NtCs8WYW6vAPwZd_9ryo3_jiff7ry_dateNtB5_6RyDate4year
FN:263,_RNvMse_NtCs8WYW6vAPwZd_9ryo3_jiff7ry_dateNtB5_6RyDate5in_tz
FN:93,_RNvMse_NtCs8WYW6vAPwZd_9ryo3_jiff7ry_dateNtB5_6RyDate5month
FN:78,_RNvMse_NtCs8WYW6vAPwZd_9ryo3_jiff7ry_dateNtB5_6RyDate5parse
FN:379,_RNvMse_NtCs8WYW6vAPwZd_9ryo3_jiff7ry_dateNtB5_6RyDate5since
FN:247,_RNvMse_NtCs8WYW6vAPwZd_9ryo3_jiff7ry_dateNtB5_6RyDate5to_py
FN:64,_RNvMse_NtCs8WYW6vAPwZd_9ryo3_jiff7ry_dateNtB5_6RyDate5today
FN:397,_RNvMse_NtCs8WYW6vAPwZd_9ryo3_jiff7ry_dateNtB5_6RyDate5until
FN:412,_RNvMse_NtCs8WYW6vAPwZd_9ryo3_jiff7ry_dateNtB5_6RyDate6__since
FN:419,_RNvMse_NtCs8WYW6vAPwZd_9ryo3_jiff7ry_dateNtB5_6RyDate6__until
FN:275,_RNvMse_NtCs8WYW6vAPwZd_9ryo3_jiff7ry_dateNtB5_6RyDate6asdict
FN:37,_RNvMse_NtCs8WYW6vAPwZd_9ryo3_jiff7ry_dateNtB5_6RyDate6py_new
FN:283,_RNvMse_NtCs8WYW6vAPwZd_9ryo3_jiff7ry_dateNtB5_6RyDate6series
FN:134,_RNvMse_NtCs8WYW6vAPwZd_9ryo3_jiff7ry_dateNtB5_6RyDate6string
FN:173,_RNvMse_NtCs8WYW6vAPwZd_9ryo3_jiff7ry_dateNtB5_6RyDate7___add__
FN:138,_RNvMse_NtCs8WYW6vAPwZd_9ryo3_jiff7ry_dateNtB5_6RyDate7___str__
FN:157,_RNvMse_NtCs8WYW6vAPwZd_9ryo3_jiff7ry_dateNtB5_6RyDate7___sub__
FN:255,_RNvMse_NtCs8WYW6vAPwZd_9ryo3_jiff7ry_dateNtB5_6RyDate7astuple
FN:210,_RNvMse_NtCs8WYW6vAPwZd_9ryo3_jiff7ry_dateNtB5_6RyDate7replace
FN:364,_RNvMse_NtCs8WYW6vAPwZd_9ryo3_jiff7ry_dateNtB5_6RyDate7weekday
FN:102,_RNvMse_NtCs8WYW6vAPwZd_9ryo3_jiff7ry_dateNtB5_6RyDate8___hash__
FN:142,_RNvMse_NtCs8WYW6vAPwZd_9ryo3_jiff7ry_dateNtB5_6RyDate8___repr__
FN:316,_RNvMse_NtCs8WYW6vAPwZd_9ryo3_jiff7ry_dateNtB5_6RyDate8era_year
FN:70,_RNvMse_NtCs8WYW6vAPwZd_9ryo3_jiff7ry_dateNtB5_6RyDate8from_str
FN:351,_RNvMse_NtCs8WYW6vAPwZd_9ryo3_jiff7ry_dateNtB5_6RyDate8strftime
FN:357,_RNvMse_NtCs8WYW6vAPwZd_9ryo3_jiff7ry_dateNtB5_6RyDate8strptime
FN:112,_RNvMse_NtCs8WYW6vAPwZd_9ryo3_jiff7ry_dateNtB5_6RyDate8to_zoned
FN:340,_RNvMse_NtCs8WYW6vAPwZd_9ryo3_jiff7ry_dateNtB5_6RyDate8tomorrow
FN:130,_RNvMse_NtCs8WYW6vAPwZd_9ryo3_jiff7ry_dateNtB5_6RyDate9isoformat
FN:251,_RNvMse_NtCs8WYW6vAPwZd_9ryo3_jiff7ry_dateNtB5_6RyDate9to_pydate
FN:344,_RNvMse_NtCs8WYW6vAPwZd_9ryo3_jiff7ry_dateNtB5_6RyDate9yesterday
FN:34,_RNvMsk_NtCs8WYW6vAPwZd_9ryo3_jiff7ry_dateNtB5_6RyDate18___pymethod_to_py__
FN:34,_RNvMsk_NtCs8WYW6vAPwZd_9ryo3_jiff7ry_dateNtB5_6RyDate19___pymethod_asdict__
FN:34,_RNvMsk_NtCs8WYW6vAPwZd_9ryo3_jiff7ry_dateNtB5_6RyDate19___pymethod_string__
FN:34,_RNvMsk_NtCs8WYW6vAPwZd_9ryo3_jiff7ry_dateNtB5_6RyDate20___pymethod___str____
FN:34,_RNvMsk_NtCs8WYW6vAPwZd_9ryo3_jiff7ry_dateNtB5_6RyDate20___pymethod_astuple__
FN:34,_RNvMsk_NtCs8WYW6vAPwZd_9ryo3_jiff7ry_dateNtB5_6RyDate20___pymethod_get_day__
FN:34,_RNvMsk_NtCs8WYW6vAPwZd_9ryo3_jiff7ry_dateNtB5_6RyDate21___pymethod___hash____
FN:34,_RNvMsk_NtCs8WYW6vAPwZd_9ryo3_jiff7ry_dateNtB5_6RyDate21___pymethod___repr____
FN:34,_RNvMsk_NtCs8WYW6vAPwZd_9ryo3_jiff7ry_dateNtB5_6RyDate21___pymethod_era_year__
FN:34,_RNvMsk_NtCs8WYW6vAPwZd_9ryo3_jiff7ry_dateNtB5_6RyDate21___pymethod_get_year__
FN:34,_RNvMsk_NtCs8WYW6vAPwZd_9ryo3_jiff7ry_dateNtB5_6RyDate21___pymethod_tomorrow__
FN:34,_RNvMsk_NtCs8WYW6vAPwZd_9ryo3_jiff7ry_dateNtB5_6RyDate22___pymethod_get_month__
FN:34,_RNvMsk_NtCs8WYW6vAPwZd_9ryo3_jiff7ry_dateNtB5_6RyDate22___pymethod_isoformat__
FN:34,_RNvMsk_NtCs8WYW6vAPwZd_9ryo3_jiff7ry_dateNtB5_6RyDate22___pymethod_to_pydate__
FN:34,_RNvMsk_NtCs8WYW6vAPwZd_9ryo3_jiff7ry_dateNtB5_6RyDate22___pymethod_yesterday__
FN:34,_RNvMsk_NtCs8WYW6vAPwZd_9ryo3_jiff7ry_dateNtB5_6RyDate24___pymethod_day_of_year__
FN:34,_RNvMsk_NtCs8WYW6vAPwZd_9ryo3_jiff7ry_dateNtB5_6RyDate24___pymethod_get_weekday__
FN:34,_RNvMsk_NtCs8WYW6vAPwZd_9ryo3_jiff7ry_dateNtB5_6RyDate25___pymethod_days_in_year__
FN:34,_RNvMsk_NtCs8WYW6vAPwZd_9ryo3_jiff7ry_dateNtB5_6RyDate25___pymethod_in_leap_year__
FN:34,_RNvMsk_NtCs8WYW6vAPwZd_9ryo3_jiff7ry_dateNtB5_6RyDate25___pymethod_last_of_year__
FN:34,_RNvMsk_NtCs8WYW6vAPwZd_9ryo3_jiff7ry_dateNtB5_6RyDate26___pymethod_days_in_month__
FN:34,_RNvMsk_NtCs8WYW6vAPwZd_9ryo3_jiff7ry_dateNtB5_6RyDate26___pymethod_first_of_year__
FN:34,_RNvMsk_NtCs8WYW6vAPwZd_9ryo3_jiff7ry_dateNtB5_6RyDate26___pymethod_iso_week_date__
FN:34,_RNvMsk_NtCs8WYW6vAPwZd_9ryo3_jiff7ry_dateNtB5_6RyDate26___pymethod_last_of_month__
FN:34,_RNvMsk_NtCs8WYW6vAPwZd_9ryo3_jiff7ry_dateNtB5_6RyDate27___pymethod___getnewargs____
FN:34,_RNvMsk_NtCs8WYW6vAPwZd_9ryo3_jiff7ry_dateNtB5_6RyDate27___pymethod_first_of_month__
FN:34,_RNvMsk_NtCs8WYW6vAPwZd_9ryo3_jiff7ry_dateNtB5_6RyDate32___pymethod_day_of_year_no_leap__
FN:451,_RNvXNtCs8WYW6vAPwZd_9ryo3_jiff7ry_dateNtB2_6RyDateNtNtCs66KPHxksi63_4core3fmt7Display3fmt
FN:463,_RNvXs_NtCs8WYW6vAPwZd_9ryo3_jiff7ry_dateNtB4_6RyDateINtNtCs66KPHxksi63_4core7convert4FromNtNtNtCs3tnJ9lKo9L6_4jiff5civil4date4DateE4from
FN:267,_RNCNvMse_NtCs8WYW6vAPwZd_9ryo3_jiff7ry_dateNtB7_6RyDate5in_tz0B9_
FN:38,_RNCNvMse_NtCs8WYW6vAPwZd_9ryo3_jiff7ry_dateNtB7_6RyDate6py_new0B9_
FN:116,_RNCNvMse_NtCs8WYW6vAPwZd_9ryo3_jiff7ry_dateNtB7_6RyDate8to_zoned0B9_
FNDA:119,_RNvMse_NtCs8WYW6vAPwZd_9ryo3_jiff7ry_dateNtB5_6RyDate11___richcmp__
FNDA:0,_RNvMse_NtCs8WYW6vAPwZd_9ryo3_jiff7ry_dateNtB5_6RyDate11day_of_year
FNDA:201,_RNvMse_NtCs8WYW6vAPwZd_9ryo3_jiff7ry_dateNtB5_6RyDate11from_pydate
FNDA:6,_RNvMse_NtCs8WYW6vAPwZd_9ryo3_jiff7ry_dateNtB5_6RyDate11nth_weekday
FNDA:0,_RNvMse_NtCs8WYW6vAPwZd_9ryo3_jiff7ry_dateNtB5_6RyDate11to_datetime
FNDA:0,_RNvMse_NtCs8WYW6vAPwZd_9ryo3_jiff7ry_dateNtB5_6RyDate12days_in_year
FNDA:0,_RNvMse_NtCs8WYW6vAPwZd_9ryo3_jiff7ry_dateNtB5_6RyDate12in_leap_year
FNDA:0,_RNvMse_NtCs8WYW6vAPwZd_9ryo3_jiff7ry_dateNtB5_6RyDate12last_of_year
FNDA:0,_RNvMse_NtCs8WYW6vAPwZd_9ryo3_jiff7ry_dateNtB5_6RyDate13days_in_month
FNDA:0,_RNvMse_NtCs8WYW6vAPwZd_9ryo3_jiff7ry_dateNtB5_6RyDate13first_of_year
FNDA:4,_RNvMse_NtCs8WYW6vAPwZd_9ryo3_jiff7ry_dateNtB5_6RyDate13iso_week_date
FNDA:0,_RNvMse_NtCs8WYW6vAPwZd_9ryo3_jiff7ry_dateNtB5_6RyDate13last_of_month
FNDA:2,_RNvMse_NtCs8WYW6vAPwZd_9ryo3_jiff7ry_dateNtB5_6RyDate14___getnewargs__
FNDA:0,_RNvMse_NtCs8WYW6vAPwZd_9ryo3_jiff7ry_dateNtB5_6RyDate14duration_since
FNDA:0,_RNvMse_NtCs8WYW6vAPwZd_9ryo3_jiff7ry_dateNtB5_6RyDate14duration_until
FNDA:0,_RNvMse_NtCs8WYW6vAPwZd_9ryo3_jiff7ry_dateNtB5_6RyDate14first_of_month
FNDA:0,_RNvMse_NtCs8WYW6vAPwZd_9ryo3_jiff7ry_dateNtB5_6RyDate14saturating_add
FNDA:0,_RNvMse_NtCs8WYW6vAPwZd_9ryo3_jiff7ry_dateNtB5_6RyDate14saturating_sub
FNDA:0,_RNvMse_NtCs8WYW6vAPwZd_9ryo3_jiff7ry_dateNtB5_6RyDate18from_iso_week_date
FNDA:0,_RNvMse_NtCs8WYW6vAPwZd_9ryo3_jiff7ry_dateNtB5_6RyDate19day_of_year_no_leap
FNDA:0,_RNvMse_NtCs8WYW6vAPwZd_9ryo3_jiff7ry_dateNtB5_6RyDate20nth_weekday_of_month
FNDA:59,_RNvMse_NtCs8WYW6vAPwZd_9ryo3_jiff7ry_dateNtB5_6RyDate2at
FNDA:8,_RNvMse_NtCs8WYW6vAPwZd_9ryo3_jiff7ry_dateNtB5_6RyDate3MAX
FNDA:8,_RNvMse_NtCs8WYW6vAPwZd_9ryo3_jiff7ry_dateNtB5_6RyDate3MIN
FNDA:0,_RNvMse_NtCs8WYW6vAPwZd_9ryo3_jiff7ry_dateNtB5_6RyDate3add
FNDA:104,_RNvMse_NtCs8WYW6vAPwZd_9ryo3_jiff7ry_dateNtB5_6RyDate3day
FNDA:0,_RNvMse_NtCs8WYW6vAPwZd_9ryo3_jiff7ry_dateNtB5_6RyDate3sub
FNDA:8,_RNvMse_NtCs8WYW6vAPwZd_9ryo3_jiff7ry_dateNtB5_6RyDate4ZERO
FNDA:0,_RNvMse_NtCs8WYW6vAPwZd_9ryo3_jiff7ry_dateNtB5_6RyDate4intz
FNDA:104,_RNvMse_NtCs8WYW6vAPwZd_9ryo3_jiff7ry_dateNtB5_6RyDate4year
FNDA:1,_RNvMse_NtCs8WYW6vAPwZd_9ryo3_jiff7ry_dateNtB5_6RyDate5in_tz
FNDA:104,_RNvMse_NtCs8WYW6vAPwZd_9ryo3_jiff7ry_dateNtB5_6RyDate5month
FNDA:202,_RNvMse_NtCs8WYW6vAPwZd_9ryo3_jiff7ry_dateNtB5_6RyDate5parse
FNDA:0,_RNvMse_NtCs8WYW6vAPwZd_9ryo3_jiff7ry_dateNtB5_6RyDate5since
FNDA:100,_RNvMse_NtCs8WYW6vAPwZd_9ryo3_jiff7ry_dateNtB5_6RyDate5to_py
FNDA:0,_RNvMse_NtCs8WYW6vAPwZd_9ryo3_jiff7ry_dateNtB5_6RyDate5today
FNDA:2,_RNvMse_NtCs8WYW6vAPwZd_9ryo3_jiff7ry_dateNtB5_6RyDate5until
FNDA:1,_RNvMse_NtCs8WYW6vAPwZd_9ryo3_jiff7ry_dateNtB5_6RyDate6__since
FNDA:6,_RNvMse_NtCs8WYW6vAPwZd_9ryo3_jiff7ry_dateNtB5_6RyDate6__until
FNDA:1,_RNvMse_NtCs8WYW6vAPwZd_9ryo3_jiff7ry_dateNtB5_6RyDate6asdict
FNDA:232,_RNvMse_NtCs8WYW6vAPwZd_9ryo3_jiff7ry_dateNtB5_6RyDate6py_new
FNDA:0,_RNvMse_NtCs8WYW6vAPwZd_9ryo3_jiff7ry_dateNtB5_6RyDate6series
FNDA:2,_RNvMse_NtCs8WYW6vAPwZd_9ryo3_jiff7ry_dateNtB5_6RyDate6string
FNDA:2,_RNvMse_NtCs8WYW6vAPwZd_9ryo3_jiff7ry_dateNtB5_6RyDate7___add__
FNDA:3,_RNvMse_NtCs8WYW6vAPwZd_9ryo3_jiff7ry_dateNtB5_6RyDate7___str__
FNDA:4,_RNvMse_NtCs8WYW6vAPwZd_9ryo3_jiff7ry_dateNtB5_6RyDate7___sub__
FNDA:1,_RNvMse_NtCs8WYW6vAPwZd_9ryo3_jiff7ry_dateNtB5_6RyDate7astuple
FNDA:0,_RNvMse_NtCs8WYW6vAPwZd_9ryo3_jiff7ry_dateNtB5_6RyDate7replace
FNDA:3,_RNvMse_NtCs8WYW6vAPwZd_9ryo3_jiff7ry_dateNtB5_6RyDate7weekday
FNDA:0,_RNvMse_NtCs8WYW6vAPwZd_9ryo3_jiff7ry_dateNtB5_6RyDate8___hash__
FNDA:1,_RNvMse_NtCs8WYW6vAPwZd_9ryo3_jiff7ry_dateNtB5_6RyDate8___repr__
FNDA:0,_RNvMse_NtCs8WYW6vAPwZd_9ryo3_jiff7ry_dateNtB5_6RyDate8era_year
FNDA:203,_RNvMse_NtCs8WYW6vAPwZd_9ryo3_jiff7ry_dateNtB5_6RyDate8from_str
FNDA:0,_RNvMse_NtCs8WYW6vAPwZd_9ryo3_jiff7ry_dateNtB5_6RyDate8strftime
FNDA:0,_RNvMse_NtCs8WYW6vAPwZd_9ryo3_jiff7ry_dateNtB5_6RyDate8strptime
FNDA:0,_RNvMse_NtCs8WYW6vAPwZd_9ryo3_jiff7ry_dateNtB5_6RyDate8to_zoned
FNDA:0,_RNvMse_NtCs8WYW6vAPwZd_9ryo3_jiff7ry_dateNtB5_6RyDate8tomorrow
FNDA:100,_RNvMse_NtCs8WYW6vAPwZd_9ryo3_jiff7ry_dateNtB5_6RyDate9isoformat
FNDA:201,_RNvMse_NtCs8WYW6vAPwZd_9ryo3_jiff7ry_dateNtB5_6RyDate9to_pydate
FNDA:0,_RNvMse_NtCs8WYW6vAPwZd_9ryo3_jiff7ry_dateNtB5_6RyDate9yesterday
FNDA:0,_RNvMsk_NtCs8WYW6vAPwZd_9ryo3_jiff7ry_dateNtB5_6RyDate18___pymethod_to_py__
FNDA:0,_RNvMsk_NtCs8WYW6vAPwZd_9ryo3_jiff7ry_dateNtB5_6RyDate19___pymethod_asdict__
FNDA:0,_RNvMsk_NtCs8WYW6vAPwZd_9ryo3_jiff7ry_dateNtB5_6RyDate19___pymethod_string__
FNDA:0,_RNvMsk_NtCs8WYW6vAPwZd_9ryo3_jiff7ry_dateNtB5_6RyDate20___pymethod___str____
FNDA:0,_RNvMsk_NtCs8WYW6vAPwZd_9ryo3_jiff7ry_dateNtB5_6RyDate20___pymethod_astuple__
FNDA:0,_RNvMsk_NtCs8WYW6vAPwZd_9ryo3_jiff7ry_dateNtB5_6RyDate20___pymethod_get_day__
FNDA:0,_RNvMsk_NtCs8WYW6vAPwZd_9ryo3_jiff7ry_dateNtB5_6RyDate21___pymethod___hash____
FNDA:0,_RNvMsk_NtCs8WYW6vAPwZd_9ryo3_jiff7ry_dateNtB5_6RyDate21___pymethod___repr____
FNDA:0,_RNvMsk_NtCs8WYW6vAPwZd_9ryo3_jiff7ry_dateNtB5_6RyDate21___pymethod_era_year__
FNDA:0,_RNvMsk_NtCs8WYW6vAPwZd_9ryo3_jiff7ry_dateNtB5_6RyDate21___pymethod_get_year__
FNDA:0,_RNvMsk_NtCs8WYW6vAPwZd_9ryo3_jiff7ry_dateNtB5_6RyDate21___pymethod_tomorrow__
FNDA:0,_RNvMsk_NtCs8WYW6vAPwZd_9ryo3_jiff7ry_dateNtB5_6RyDate22___pymethod_get_month__
FNDA:0,_RNvMsk_NtCs8WYW6vAPwZd_9ryo3_jiff7ry_dateNtB5_6RyDate22___pymethod_isoformat__
FNDA:0,_RNvMsk_NtCs8WYW6vAPwZd_9ryo3_jiff7ry_dateNtB5_6RyDate22___pymethod_to_pydate__
FNDA:0,_RNvMsk_NtCs8WYW6vAPwZd_9ryo3_jiff7ry_dateNtB5_6RyDate22___pymethod_yesterday__
FNDA:0,_RNvMsk_NtCs8WYW6vAPwZd_9ryo3_jiff7ry_dateNtB5_6RyDate24___pymethod_day_of_year__
FNDA:0,_RNvMsk_NtCs8WYW6vAPwZd_9ryo3_jiff7ry_dateNtB5_6RyDate24___pymethod_get_weekday__
FNDA:0,_RNvMsk_NtCs8WYW6vAPwZd_9ryo3_jiff7ry_dateNtB5_6RyDate25___pymethod_days_in_year__
FNDA:0,_RNvMsk_NtCs8WYW6vAPwZd_9ryo3_jiff7ry_dateNtB5_6RyDate25___pymethod_in_leap_year__
FNDA:0,_RNvMsk_NtCs8WYW6vAPwZd_9ryo3_jiff7ry_dateNtB5_6RyDate25___pymethod_last_of_year__
FNDA:0,_RNvMsk_NtCs8WYW6vAPwZd_9ryo3_jiff7ry_dateNtB5_6RyDate26___pymethod_days_in_month__
FNDA:0,_RNvMsk_NtCs8WYW6vAPwZd_9ryo3_jiff7ry_dateNtB5_6RyDate26___pymethod_first_of_year__
FNDA:0,_RNvMsk_NtCs8WYW6vAPwZd_9ryo3_jiff7ry_dateNtB5_6RyDate26___pymethod_iso_week_date__
FNDA:0,_RNvMsk_NtCs8WYW6vAPwZd_9ryo3_jiff7ry_dateNtB5_6RyDate26___pymethod_last_of_month__
FNDA:0,_RNvMsk_NtCs8WYW6vAPwZd_9ryo3_jiff7ry_dateNtB5_6RyDate27___pymethod___getnewargs____
FNDA:0,_RNvMsk_NtCs8WYW6vAPwZd_9ryo3_jiff7ry_dateNtB5_6RyDate27___pymethod_first_of_month__
FNDA:0,_RNvMsk_NtCs8WYW6vAPwZd_9ryo3_jiff7ry_dateNtB5_6RyDate32___pymethod_day_of_year_no_leap__
FNDA:1,_RNvXNtCs8WYW6vAPwZd_9ryo3_jiff7ry_dateNtB2_6RyDateNtNtCs66KPHxksi63_4core3fmt7Display3fmt
FNDA:430,_RNvXs_NtCs8WYW6vAPwZd_9ryo3_jiff7ry_dateNtB4_6RyDateINtNtCs66KPHxksi63_4core7convert4FromNtNtNtCs3tnJ9lKo9L6_4jiff5civil4date4DateE4from
FNDA:0,_RNCNvMse_NtCs8WYW6vAPwZd_9ryo3_jiff7ry_dateNtB7_6RyDate5in_tz0B9_
FNDA:17,_RNCNvMse_NtCs8WYW6vAPwZd_9ryo3_jiff7ry_dateNtB7_6RyDate6py_new0B9_
FNDA:0,_RNCNvMse_NtCs8WYW6vAPwZd_9ryo3_jiff7ry_dateNtB7_6RyDate8to_zoned0B9_
FNF:66
FNH:33
DA:34,0
DA:37,232
DA:38,232
DA:39,17
DA:40,17
DA:42,17
DA:43,232
DA:47,8
DA:48,8
DA:49,8
DA:53,8
DA:54,8
DA:55,8
DA:59,8
DA:60,8
DA:61,8
DA:64,0
DA:65,0
DA:66,0
DA:67,0
DA:70,203
DA:71,203
DA:72,203
DA:73,203
DA:74,203
DA:75,203
DA:78,202
DA:79,202
DA:80,202
DA:83,59
DA:84,59
DA:85,59
DA:88,104
DA:89,104
DA:90,104
DA:93,104
DA:94,104
DA:95,104
DA:98,104
DA:99,104
DA:100,104
DA:102,0
DA:103,0
DA:104,0
DA:105,0
DA:106,0
DA:108,0
DA:109,0
DA:110,0
DA:112,0
DA:113,0
DA:114,0
DA:115,0
DA:116,0
DA:117,0
DA:119,119
DA:120,119
DA:121,119
DA:122,0
DA:123,0
DA:124,0
DA:125,0
DA:126,0
DA:128,119
DA:130,100
DA:131,100
DA:132,100
DA:134,2
DA:135,2
DA:136,2
DA:138,3
DA:139,3
DA:140,3
DA:142,1
DA:143,1
DA:144,1
DA:146,2
DA:147,2
DA:148,2
DA:149,2
DA:150,2
DA:151,2
DA:152,2
DA:155,2
DA:157,4
DA:158,4
DA:159,4
DA:160,4
DA:161,4
DA:162,4
DA:163,2
DA:164,2
DA:165,2
DA:167,2
DA:168,2
DA:169,2
DA:171,4
DA:173,2
DA:174,2
DA:175,2
DA:176,2
DA:177,2
DA:178,2
DA:179,2
DA:181,0
DA:182,0
DA:183,0
DA:185,0
DA:186,0
DA:187,0
DA:189,0
DA:190,0
DA:191,0
DA:192,0
DA:194,0
DA:195,0
DA:196,0
DA:197,0
DA:210,0
DA:211,0
DA:212,0
DA:213,0
DA:214,0
DA:215,0
DA:216,0
DA:217,0
DA:218,0
DA:219,0
DA:220,0
DA:221,0
DA:222,0
DA:223,0
DA:224,0
DA:225,0
DA:226,0
DA:227,0
DA:228,0
DA:229,0
DA:230,0
DA:231,0
DA:232,0
DA:233,0
DA:234,0
DA:235,0
DA:236,0
DA:237,0
DA:239,0
DA:240,0
DA:243,201
DA:244,201
DA:245,201
DA:247,100
DA:248,100
DA:249,100
DA:251,201
DA:252,201
DA:253,201
DA:255,1
DA:256,1
DA:257,1
DA:258,1
DA:259,1
DA:260,1
DA:261,1
DA:263,1
DA:264,1
DA:265,1
DA:266,1
DA:267,1
DA:268,1
DA:270,0
DA:271,0
DA:272,0
DA:273,0
DA:275,1
DA:276,1
DA:277,1
DA:278,1
DA:279,1
DA:280,1
DA:281,1
DA:283,0
DA:284,0
DA:285,0
DA:286,0
DA:287,0
DA:289,0
DA:291,0
DA:293,0
DA:294,0
DA:295,0
DA:297,0
DA:298,0
DA:299,0
DA:301,0
DA:302,0
DA:303,0
DA:305,0
DA:306,0
DA:307,0
DA:309,0
DA:310,0
DA:311,0
DA:312,0
DA:313,0
DA:314,0
DA:316,0
DA:317,0
DA:318,0
DA:320,0
DA:321,0
DA:322,0
DA:324,0
DA:325,0
DA:326,0
DA:328,0
DA:329,0
DA:330,0
DA:332,0
DA:333,0
DA:334,0
DA:336,0
DA:337,0
DA:338,0
DA:340,0
DA:341,0
DA:342,0
DA:344,0
DA:345,0
DA:346,0
DA:351,0
DA:352,0
DA:353,0
DA:357,0
DA:358,0
DA:359,0
DA:360,0
DA:361,0
DA:364,3
DA:365,3
DA:366,1
DA:367,0
DA:368,0
DA:369,0
DA:370,1
DA:371,0
DA:372,1
DA:374,3
DA:379,0
DA:380,0
DA:381,0
DA:382,0
DA:383,0
DA:384,0
DA:385,0
DA:386,0
DA:387,0
DA:388,0
DA:389,0
DA:390,0
DA:391,0
DA:392,0
DA:397,2
DA:398,2
DA:399,2
DA:400,2
DA:401,2
DA:402,2
DA:403,2
DA:404,2
DA:405,2
DA:406,2
DA:407,2
DA:408,2
DA:409,2
DA:410,2
DA:412,1
DA:413,1
DA:414,1
DA:415,1
DA:416,1
DA:417,1
DA:419,6
DA:420,6
DA:421,6
DA:422,6
DA:423,6
DA:424,6
DA:427,0
DA:428,0
DA:429,0
DA:431,6
DA:432,6
DA:433,6
DA:434,6
DA:435,6
DA:436,6
DA:438,0
DA:439,0
DA:440,0
DA:441,0
DA:442,0
DA:443,0
DA:445,4
DA:446,4
DA:447,4
DA:451,1
DA:452,1
DA:453,1
DA:454,1
DA:455,1
DA:456,1
DA:457,1
DA:459,1
DA:463,430
DA:464,430
DA:465,430
BRF:0
BRH:0
LF:320
LH:162
end_of_record
SF:/home/jesse/ry/crates/ryo3-jiff/src/ry_date_difference.rs
FN:77,_RNvMs_NtCs8WYW6vAPwZd_9ryo3_jiff18ry_date_differenceNtB4_17DateDifferenceArg5build
FN:56,_RNvMsb_NtCs8WYW6vAPwZd_9ryo3_jiff18ry_date_differenceNtB5_16RyDateDifference4mode
FN:25,_RNvMsb_NtCs8WYW6vAPwZd_9ryo3_jiff18ry_date_differenceNtB5_16RyDateDifference6py_new
FN:52,_RNvMsb_NtCs8WYW6vAPwZd_9ryo3_jiff18ry_date_differenceNtB5_16RyDateDifference7largest
FN:48,_RNvMsb_NtCs8WYW6vAPwZd_9ryo3_jiff18ry_date_differenceNtB5_16RyDateDifference8smallest
FN:60,_RNvMsb_NtCs8WYW6vAPwZd_9ryo3_jiff18ry_date_differenceNtB5_16RyDateDifference9increment
FN:13,_RNvXNtCs8WYW6vAPwZd_9ryo3_jiff18ry_date_differenceNtB2_16RyDateDifferenceINtNtCs66KPHxksi63_4core7convert4FromNtNtNtCs3tnJ9lKo9L6_4jiff5civil4date14DateDifferenceE4from
FNDA:2,_RNvMs_NtCs8WYW6vAPwZd_9ryo3_jiff18ry_date_differenceNtB4_17DateDifferenceArg5build
FNDA:7,_RNvMsb_NtCs8WYW6vAPwZd_9ryo3_jiff18ry_date_differenceNtB5_16RyDateDifference4mode
FNDA:7,_RNvMsb_NtCs8WYW6vAPwZd_9ryo3_jiff18ry_date_differenceNtB5_16RyDateDifference6py_new
FNDA:1,_RNvMsb_NtCs8WYW6vAPwZd_9ryo3_jiff18ry_date_differenceNtB5_16RyDateDifference7largest
FNDA:7,_RNvMsb_NtCs8WYW6vAPwZd_9ryo3_jiff18ry_date_differenceNtB5_16RyDateDifference8smallest
FNDA:2,_RNvMsb_NtCs8WYW6vAPwZd_9ryo3_jiff18ry_date_differenceNtB5_16RyDateDifference9increment
FNDA:0,_RNvXNtCs8WYW6vAPwZd_9ryo3_jiff18ry_date_differenceNtB2_16RyDateDifferenceINtNtCs66KPHxksi63_4core7convert4FromNtNtNtCs3tnJ9lKo9L6_4jiff5civil4date14DateDifferenceE4from
FNF:7
FNH:6
DA:13,0
DA:14,0
DA:15,0
DA:25,7
DA:26,7
DA:27,7
DA:28,7
DA:29,7
DA:30,7
DA:31,7
DA:32,7
DA:33,7
DA:34,0
DA:35,7
DA:36,7
DA:37,0
DA:38,7
DA:39,7
DA:40,0
DA:41,7
DA:42,7
DA:43,0
DA:44,7
DA:45,7
DA:46,7
DA:48,7
DA:49,7
DA:50,7
DA:52,1
DA:53,1
DA:54,1
DA:56,7
DA:57,7
DA:58,7
DA:60,2
DA:61,2
DA:62,2
DA:77,2
DA:78,2
DA:79,2
DA:80,2
DA:81,2
DA:82,2
DA:83,2
DA:84,2
DA:85,0
DA:86,2
DA:87,0
DA:89,2
DA:90,0
DA:91,2
DA:92,2
DA:93,0
DA:94,2
DA:95,2
DA:96,0
DA:97,2
DA:98,2
DA:99,0
DA:100,2
DA:101,2
DA:102,2
BRF:0
BRH:0
LF:62
LH:49
end_of_record
SF:/home/jesse/ry/crates/ryo3-jiff/src/ry_datetime.rs
FN:494,_RNvMse_NtCs8WYW6vAPwZd_9ryo3_jiff11ry_datetimeNtB5_10RyDateTime10end_of_day
FN:510,_RNvMse_NtCs8WYW6vAPwZd_9ryo3_jiff11ry_datetimeNtB5_10RyDateTime10from_parts
FN:165,_RNvMse_NtCs8WYW6vAPwZd_9ryo3_jiff11ry_datetimeNtB5_10RyDateTime10nanosecond
FN:113,_RNvMse_NtCs8WYW6vAPwZd_9ryo3_jiff11ry_datetimeNtB5_10RyDateTime11___richcmp__
FN:469,_RNvMse_NtCs8WYW6vAPwZd_9ryo3_jiff11ry_datetimeNtB5_10RyDateTime11day_of_year
FN:160,_RNvMse_NtCs8WYW6vAPwZd_9ryo3_jiff11ry_datetimeNtB5_10RyDateTime11microsecond
FN:155,_RNvMse_NtCs8WYW6vAPwZd_9ryo3_jiff11ry_datetimeNtB5_10RyDateTime11millisecond
FN:595,_RNvMse_NtCs8WYW6vAPwZd_9ryo3_jiff11ry_datetimeNtB5_10RyDateTime11nth_weekday
FN:481,_RNvMse_NtCs8WYW6vAPwZd_9ryo3_jiff11ry_datetimeNtB5_10RyDateTime12days_in_year
FN:514,_RNvMse_NtCs8WYW6vAPwZd_9ryo3_jiff11ry_datetimeNtB5_10RyDateTime12in_leap_year
FN:518,_RNvMse_NtCs8WYW6vAPwZd_9ryo3_jiff11ry_datetimeNtB5_10RyDateTime12last_of_year
FN:522,_RNvMse_NtCs8WYW6vAPwZd_9ryo3_jiff11ry_datetimeNtB5_10RyDateTime12start_of_day
FN:477,_RNvMse_NtCs8WYW6vAPwZd_9ryo3_jiff11ry_datetimeNtB5_10RyDateTime13days_in_month
FN:505,_RNvMse_NtCs8WYW6vAPwZd_9ryo3_jiff11ry_datetimeNtB5_10RyDateTime13first_of_year
FN:272,_RNvMse_NtCs8WYW6vAPwZd_9ryo3_jiff11ry_datetimeNtB5_10RyDateTime13iso_week_date
FN:286,_RNvMse_NtCs8WYW6vAPwZd_9ryo3_jiff11ry_datetimeNtB5_10RyDateTime13last_of_month
FN:294,_RNvMse_NtCs8WYW6vAPwZd_9ryo3_jiff11ry_datetimeNtB5_10RyDateTime13to_pydatetime
FN:63,_RNvMse_NtCs8WYW6vAPwZd_9ryo3_jiff11ry_datetimeNtB5_10RyDateTime14___getnewargs__
FN:485,_RNvMse_NtCs8WYW6vAPwZd_9ryo3_jiff11ry_datetimeNtB5_10RyDateTime14duration_since
FN:489,_RNvMse_NtCs8WYW6vAPwZd_9ryo3_jiff11ry_datetimeNtB5_10RyDateTime14duration_until
FN:283,_RNvMse_NtCs8WYW6vAPwZd_9ryo3_jiff11ry_datetimeNtB5_10RyDateTime14first_of_month
FN:233,_RNvMse_NtCs8WYW6vAPwZd_9ryo3_jiff11ry_datetimeNtB5_10RyDateTime14saturating_add
FN:238,_RNvMse_NtCs8WYW6vAPwZd_9ryo3_jiff11ry_datetimeNtB5_10RyDateTime14saturating_sub
FN:307,_RNvMse_NtCs8WYW6vAPwZd_9ryo3_jiff11ry_datetimeNtB5_10RyDateTime15from_pydatetime
FN:170,_RNvMse_NtCs8WYW6vAPwZd_9ryo3_jiff11ry_datetimeNtB5_10RyDateTime17subsec_nanosecond
FN:473,_RNvMse_NtCs8WYW6vAPwZd_9ryo3_jiff11ry_datetimeNtB5_10RyDateTime19day_of_year_no_leap
FN:602,_RNvMse_NtCs8WYW6vAPwZd_9ryo3_jiff11ry_datetimeNtB5_10RyDateTime20nth_weekday_of_month
FN:86,_RNvMse_NtCs8WYW6vAPwZd_9ryo3_jiff11ry_datetimeNtB5_10RyDateTime3MAX
FN:80,_RNvMse_NtCs8WYW6vAPwZd_9ryo3_jiff11ry_datetimeNtB5_10RyDateTime3MIN
FN:225,_RNvMse_NtCs8WYW6vAPwZd_9ryo3_jiff11ry_datetimeNtB5_10RyDateTime3add
FN:135,_RNvMse_NtCs8WYW6vAPwZd_9ryo3_jiff11ry_datetimeNtB5_10RyDateTime3day
FN:97,_RNvMse_NtCs8WYW6vAPwZd_9ryo3_jiff11ry_datetimeNtB5_10RyDateTime3now
FN:229,_RNvMse_NtCs8WYW6vAPwZd_9ryo3_jiff11ry_datetimeNtB5_10RyDateTime3sub
FN:92,_RNvMse_NtCs8WYW6vAPwZd_9ryo3_jiff11ry_datetimeNtB5_10RyDateTime4ZERO
FN:247,_RNvMse_NtCs8WYW6vAPwZd_9ryo3_jiff11ry_datetimeNtB5_10RyDateTime4date
FN:140,_RNvMse_NtCs8WYW6vAPwZd_9ryo3_jiff11ry_datetimeNtB5_10RyDateTime4hour
FN:258,_RNvMse_NtCs8WYW6vAPwZd_9ryo3_jiff11ry_datetimeNtB5_10RyDateTime4intz
FN:243,_RNvMse_NtCs8WYW6vAPwZd_9ryo3_jiff11ry_datetimeNtB5_10RyDateTime4time
FN:125,_RNvMse_NtCs8WYW6vAPwZd_9ryo3_jiff11ry_datetimeNtB5_10RyDateTime4year
FN:251,_RNvMse_NtCs8WYW6vAPwZd_9ryo3_jiff11ry_datetimeNtB5_10RyDateTime5in_tz
FN:130,_RNvMse_NtCs8WYW6vAPwZd_9ryo3_jiff11ry_datetimeNtB5_10RyDateTime5month
FN:109,_RNvMse_NtCs8WYW6vAPwZd_9ryo3_jiff11ry_datetimeNtB5_10RyDateTime5parse
FN:440,_RNvMse_NtCs8WYW6vAPwZd_9ryo3_jiff11ry_datetimeNtB5_10RyDateTime5round
FN:541,_RNvMse_NtCs8WYW6vAPwZd_9ryo3_jiff11ry_datetimeNtB5_10RyDateTime5since
FN:290,_RNvMse_NtCs8WYW6vAPwZd_9ryo3_jiff11ry_datetimeNtB5_10RyDateTime5to_py
FN:558,_RNvMse_NtCs8WYW6vAPwZd_9ryo3_jiff11ry_datetimeNtB5_10RyDateTime5until
FN:462,_RNvMse_NtCs8WYW6vAPwZd_9ryo3_jiff11ry_datetimeNtB5_10RyDateTime6__round
FN:573,_RNvMse_NtCs8WYW6vAPwZd_9ryo3_jiff11ry_datetimeNtB5_10RyDateTime6__since
FN:580,_RNvMse_NtCs8WYW6vAPwZd_9ryo3_jiff11ry_datetimeNtB5_10RyDateTime6__until
FN:317,_RNvMse_NtCs8WYW6vAPwZd_9ryo3_jiff11ry_datetimeNtB5_10RyDateTime6asdict
FN:145,_RNvMse_NtCs8WYW6vAPwZd_9ryo3_jiff11ry_datetimeNtB5_10RyDateTime6minute
FN:41,_RNvMse_NtCs8WYW6vAPwZd_9ryo3_jiff11ry_datetimeNtB5_10RyDateTime6py_new
FN:150,_RNvMse_NtCs8WYW6vAPwZd_9ryo3_jiff11ry_datetimeNtB5_10RyDateTime6second
FN:311,_RNvMse_NtCs8WYW6vAPwZd_9ryo3_jiff11ry_datetimeNtB5_10RyDateTime6series
FN:178,_RNvMse_NtCs8WYW6vAPwZd_9ryo3_jiff11ry_datetimeNtB5_10RyDateTime6string
FN:201,_RNvMse_NtCs8WYW6vAPwZd_9ryo3_jiff11ry_datetimeNtB5_10RyDateTime7___add__
FN:174,_RNvMse_NtCs8WYW6vAPwZd_9ryo3_jiff11ry_datetimeNtB5_10RyDateTime7___str__
FN:209,_RNvMse_NtCs8WYW6vAPwZd_9ryo3_jiff11ry_datetimeNtB5_10RyDateTime7___sub__
FN:351,_RNvMse_NtCs8WYW6vAPwZd_9ryo3_jiff11ry_datetimeNtB5_10RyDateTime7replace
FN:610,_RNvMse_NtCs8WYW6vAPwZd_9ryo3_jiff11ry_datetimeNtB5_10RyDateTime7weekday
FN:195,_RNvMse_NtCs8WYW6vAPwZd_9ryo3_jiff11ry_datetimeNtB5_10RyDateTime8___hash__
FN:182,_RNvMse_NtCs8WYW6vAPwZd_9ryo3_jiff11ry_datetimeNtB5_10RyDateTime8___repr__
FN:499,_RNvMse_NtCs8WYW6vAPwZd_9ryo3_jiff11ry_datetimeNtB5_10RyDateTime8era_year
FN:102,_RNvMse_NtCs8WYW6vAPwZd_9ryo3_jiff11ry_datetimeNtB5_10RyDateTime8from_str
FN:526,_RNvMse_NtCs8WYW6vAPwZd_9ryo3_jiff11ry_datetimeNtB5_10RyDateTime8strftime
FN:532,_RNvMse_NtCs8WYW6vAPwZd_9ryo3_jiff11ry_datetimeNtB5_10RyDateTime8strptime
FN:276,_RNvMse_NtCs8WYW6vAPwZd_9ryo3_jiff11ry_datetimeNtB5_10RyDateTime8to_zoned
FN:587,_RNvMse_NtCs8WYW6vAPwZd_9ryo3_jiff11ry_datetimeNtB5_10RyDateTime8tomorrow
FN:264,_RNvMse_NtCs8WYW6vAPwZd_9ryo3_jiff11ry_datetimeNtB5_10RyDateTime9isoformat
FN:298,_RNvMse_NtCs8WYW6vAPwZd_9ryo3_jiff11ry_datetimeNtB5_10RyDateTime9to_pydate
FN:302,_RNvMse_NtCs8WYW6vAPwZd_9ryo3_jiff11ry_datetimeNtB5_10RyDateTime9to_pytime
FN:591,_RNvMse_NtCs8WYW6vAPwZd_9ryo3_jiff11ry_datetimeNtB5_10RyDateTime9yesterday
FN:37,_RNvMsk_NtCs8WYW6vAPwZd_9ryo3_jiff11ry_datetimeNtB5_10RyDateTime17___pymethod_date__
FN:37,_RNvMsk_NtCs8WYW6vAPwZd_9ryo3_jiff11ry_datetimeNtB5_10RyDateTime17___pymethod_time__
FN:37,_RNvMsk_NtCs8WYW6vAPwZd_9ryo3_jiff11ry_datetimeNtB5_10RyDateTime18___pymethod_to_py__
FN:37,_RNvMsk_NtCs8WYW6vAPwZd_9ryo3_jiff11ry_datetimeNtB5_10RyDateTime19___pymethod_asdict__
FN:37,_RNvMsk_NtCs8WYW6vAPwZd_9ryo3_jiff11ry_datetimeNtB5_10RyDateTime19___pymethod_string__
FN:37,_RNvMsk_NtCs8WYW6vAPwZd_9ryo3_jiff11ry_datetimeNtB5_10RyDateTime20___pymethod___str____
FN:37,_RNvMsk_NtCs8WYW6vAPwZd_9ryo3_jiff11ry_datetimeNtB5_10RyDateTime20___pymethod_get_day__
FN:37,_RNvMsk_NtCs8WYW6vAPwZd_9ryo3_jiff11ry_datetimeNtB5_10RyDateTime21___pymethod___hash____
FN:37,_RNvMsk_NtCs8WYW6vAPwZd_9ryo3_jiff11ry_datetimeNtB5_10RyDateTime21___pymethod___repr____
FN:37,_RNvMsk_NtCs8WYW6vAPwZd_9ryo3_jiff11ry_datetimeNtB5_10RyDateTime21___pymethod_era_year__
FN:37,_RNvMsk_NtCs8WYW6vAPwZd_9ryo3_jiff11ry_datetimeNtB5_10RyDateTime21___pymethod_get_hour__
FN:37,_RNvMsk_NtCs8WYW6vAPwZd_9ryo3_jiff11ry_datetimeNtB5_10RyDateTime21___pymethod_get_year__
FN:37,_RNvMsk_NtCs8WYW6vAPwZd_9ryo3_jiff11ry_datetimeNtB5_10RyDateTime21___pymethod_tomorrow__
FN:37,_RNvMsk_NtCs8WYW6vAPwZd_9ryo3_jiff11ry_datetimeNtB5_10RyDateTime22___pymethod_get_month__
FN:37,_RNvMsk_NtCs8WYW6vAPwZd_9ryo3_jiff11ry_datetimeNtB5_10RyDateTime22___pymethod_isoformat__
FN:37,_RNvMsk_NtCs8WYW6vAPwZd_9ryo3_jiff11ry_datetimeNtB5_10RyDateTime22___pymethod_to_pydate__
FN:37,_RNvMsk_NtCs8WYW6vAPwZd_9ryo3_jiff11ry_datetimeNtB5_10RyDateTime22___pymethod_to_pytime__
FN:37,_RNvMsk_NtCs8WYW6vAPwZd_9ryo3_jiff11ry_datetimeNtB5_10RyDateTime22___pymethod_yesterday__
FN:37,_RNvMsk_NtCs8WYW6vAPwZd_9ryo3_jiff11ry_datetimeNtB5_10RyDateTime23___pymethod_end_of_day__
FN:37,_RNvMsk_NtCs8WYW6vAPwZd_9ryo3_jiff11ry_datetimeNtB5_10RyDateTime23___pymethod_get_minute__
FN:37,_RNvMsk_NtCs8WYW6vAPwZd_9ryo3_jiff11ry_datetimeNtB5_10RyDateTime23___pymethod_get_second__
FN:37,_RNvMsk_NtCs8WYW6vAPwZd_9ryo3_jiff11ry_datetimeNtB5_10RyDateTime24___pymethod_day_of_year__
FN:37,_RNvMsk_NtCs8WYW6vAPwZd_9ryo3_jiff11ry_datetimeNtB5_10RyDateTime24___pymethod_get_weekday__
FN:37,_RNvMsk_NtCs8WYW6vAPwZd_9ryo3_jiff11ry_datetimeNtB5_10RyDateTime25___pymethod_days_in_year__
FN:37,_RNvMsk_NtCs8WYW6vAPwZd_9ryo3_jiff11ry_datetimeNtB5_10RyDateTime25___pymethod_in_leap_year__
FN:37,_RNvMsk_NtCs8WYW6vAPwZd_9ryo3_jiff11ry_datetimeNtB5_10RyDateTime25___pymethod_last_of_year__
FN:37,_RNvMsk_NtCs8WYW6vAPwZd_9ryo3_jiff11ry_datetimeNtB5_10RyDateTime25___pymethod_start_of_day__
FN:37,_RNvMsk_NtCs8WYW6vAPwZd_9ryo3_jiff11ry_datetimeNtB5_10RyDateTime26___pymethod_days_in_month__
FN:37,_RNvMsk_NtCs8WYW6vAPwZd_9ryo3_jiff11ry_datetimeNtB5_10RyDateTime26___pymethod_first_of_year__
FN:37,_RNvMsk_NtCs8WYW6vAPwZd_9ryo3_jiff11ry_datetimeNtB5_10RyDateTime26___pymethod_iso_week_date__
FN:37,_RNvMsk_NtCs8WYW6vAPwZd_9ryo3_jiff11ry_datetimeNtB5_10RyDateTime26___pymethod_last_of_month__
FN:37,_RNvMsk_NtCs8WYW6vAPwZd_9ryo3_jiff11ry_datetimeNtB5_10RyDateTime26___pymethod_to_pydatetime__
FN:37,_RNvMsk_NtCs8WYW6vAPwZd_9ryo3_jiff11ry_datetimeNtB5_10RyDateTime27___pymethod___getnewargs____
FN:37,_RNvMsk_NtCs8WYW6vAPwZd_9ryo3_jiff11ry_datetimeNtB5_10RyDateTime27___pymethod_first_of_month__
FN:37,_RNvMsk_NtCs8WYW6vAPwZd_9ryo3_jiff11ry_datetimeNtB5_10RyDateTime27___pymethod_get_nanosecond__
FN:37,_RNvMsk_NtCs8WYW6vAPwZd_9ryo3_jiff11ry_datetimeNtB5_10RyDateTime28___pymethod_get_microsecond__
FN:37,_RNvMsk_NtCs8WYW6vAPwZd_9ryo3_jiff11ry_datetimeNtB5_10RyDateTime28___pymethod_get_millisecond__
FN:37,_RNvMsk_NtCs8WYW6vAPwZd_9ryo3_jiff11ry_datetimeNtB5_10RyDateTime32___pymethod_day_of_year_no_leap__
FN:37,_RNvMsk_NtCs8WYW6vAPwZd_9ryo3_jiff11ry_datetimeNtB5_10RyDateTime34___pymethod_get_subsec_nanosecond__
FN:32,_RNvXNtCs8WYW6vAPwZd_9ryo3_jiff11ry_datetimeNtB2_10RyDateTimeINtNtCs66KPHxksi63_4core7convert4FromNtNtNtCs3tnJ9lKo9L6_4jiff5civil8datetime8DateTimeE4from
FN:624,_RNvXs_NtCs8WYW6vAPwZd_9ryo3_jiff11ry_datetimeNtB4_10RyDateTimeNtNtCs66KPHxksi63_4core3fmt7Display3fmt
FN:255,_RNCNvMse_NtCs8WYW6vAPwZd_9ryo3_jiff11ry_datetimeNtB7_10RyDateTime5in_tz0B9_
FN:459,_RNCNvMse_NtCs8WYW6vAPwZd_9ryo3_jiff11ry_datetimeNtB7_10RyDateTime5round0B9_
FN:466,_RNCNvMse_NtCs8WYW6vAPwZd_9ryo3_jiff11ry_datetimeNtB7_10RyDateTime6__round0B9_
FN:60,_RNCNvMse_NtCs8WYW6vAPwZd_9ryo3_jiff11ry_datetimeNtB7_10RyDateTime6py_new0B9_
FN:105,_RNCNvMse_NtCs8WYW6vAPwZd_9ryo3_jiff11ry_datetimeNtB7_10RyDateTime8from_str0B9_
FN:535,_RNCNvMse_NtCs8WYW6vAPwZd_9ryo3_jiff11ry_datetimeNtB7_10RyDateTime8strptime0B9_
FN:280,_RNCNvMse_NtCs8WYW6vAPwZd_9ryo3_jiff11ry_datetimeNtB7_10RyDateTime8to_zoned0B9_
FNDA:0,_RNvMse_NtCs8WYW6vAPwZd_9ryo3_jiff11ry_datetimeNtB5_10RyDateTime10end_of_day
FNDA:0,_RNvMse_NtCs8WYW6vAPwZd_9ryo3_jiff11ry_datetimeNtB5_10RyDateTime10from_parts
FNDA:1,_RNvMse_NtCs8WYW6vAPwZd_9ryo3_jiff11ry_datetimeNtB5_10RyDateTime10nanosecond
FNDA:604,_RNvMse_NtCs8WYW6vAPwZd_9ryo3_jiff11ry_datetimeNtB5_10RyDateTime11___richcmp__
FNDA:0,_RNvMse_NtCs8WYW6vAPwZd_9ryo3_jiff11ry_datetimeNtB5_10RyDateTime11day_of_year
FNDA:0,_RNvMse_NtCs8WYW6vAPwZd_9ryo3_jiff11ry_datetimeNtB5_10RyDateTime11microsecond
FNDA:0,_RNvMse_NtCs8WYW6vAPwZd_9ryo3_jiff11ry_datetimeNtB5_10RyDateTime11millisecond
FNDA:0,_RNvMse_NtCs8WYW6vAPwZd_9ryo3_jiff11ry_datetimeNtB5_10RyDateTime11nth_weekday
FNDA:0,_RNvMse_NtCs8WYW6vAPwZd_9ryo3_jiff11ry_datetimeNtB5_10RyDateTime12days_in_year
FNDA:0,_RNvMse_NtCs8WYW6vAPwZd_9ryo3_jiff11ry_datetimeNtB5_10RyDateTime12in_leap_year
FNDA:0,_RNvMse_NtCs8WYW6vAPwZd_9ryo3_jiff11ry_datetimeNtB5_10RyDateTime12last_of_year
FNDA:0,_RNvMse_NtCs8WYW6vAPwZd_9ryo3_jiff11ry_datetimeNtB5_10RyDateTime12start_of_day
FNDA:0,_RNvMse_NtCs8WYW6vAPwZd_9ryo3_jiff11ry_datetimeNtB5_10RyDateTime13days_in_month
FNDA:0,_RNvMse_NtCs8WYW6vAPwZd_9ryo3_jiff11ry_datetimeNtB5_10RyDateTime13first_of_year
FNDA:1,_RNvMse_NtCs8WYW6vAPwZd_9ryo3_jiff11ry_datetimeNtB5_10RyDateTime13iso_week_date
FNDA:0,_RNvMse_NtCs8WYW6vAPwZd_9ryo3_jiff11ry_datetimeNtB5_10RyDateTime13last_of_month
FNDA:100,_RNvMse_NtCs8WYW6vAPwZd_9ryo3_jiff11ry_datetimeNtB5_10RyDateTime13to_pydatetime
FNDA:2,_RNvMse_NtCs8WYW6vAPwZd_9ryo3_jiff11ry_datetimeNtB5_10RyDateTime14___getnewargs__
FNDA:0,_RNvMse_NtCs8WYW6vAPwZd_9ryo3_jiff11ry_datetimeNtB5_10RyDateTime14duration_since
FNDA:0,_RNvMse_NtCs8WYW6vAPwZd_9ryo3_jiff11ry_datetimeNtB5_10RyDateTime14duration_until
FNDA:0,_RNvMse_NtCs8WYW6vAPwZd_9ryo3_jiff11ry_datetimeNtB5_10RyDateTime14first_of_month
FNDA:0,_RNvMse_NtCs8WYW6vAPwZd_9ryo3_jiff11ry_datetimeNtB5_10RyDateTime14saturating_add
FNDA:0,_RNvMse_NtCs8WYW6vAPwZd_9ryo3_jiff11ry_datetimeNtB5_10RyDateTime14saturating_sub
FNDA:201,_RNvMse_NtCs8WYW6vAPwZd_9ryo3_jiff11ry_datetimeNtB5_10RyDateTime15from_pydatetime
FNDA:103,_RNvMse_NtCs8WYW6vAPwZd_9ryo3_jiff11ry_datetimeNtB5_10RyDateTime17subsec_nanosecond
FNDA:0,_RNvMse_NtCs8WYW6vAPwZd_9ryo3_jiff11ry_datetimeNtB5_10RyDateTime19day_of_year_no_leap
FNDA:0,_RNvMse_NtCs8WYW6vAPwZd_9ryo3_jiff11ry_datetimeNtB5_10RyDateTime20nth_weekday_of_month
FNDA:8,_RNvMse_NtCs8WYW6vAPwZd_9ryo3_jiff11ry_datetimeNtB5_10RyDateTime3MAX
FNDA:8,_RNvMse_NtCs8WYW6vAPwZd_9ryo3_jiff11ry_datetimeNtB5_10RyDateTime3MIN
FNDA:0,_RNvMse_NtCs8WYW6vAPwZd_9ryo3_jiff11ry_datetimeNtB5_10RyDateTime3add
FNDA:105,_RNvMse_NtCs8WYW6vAPwZd_9ryo3_jiff11ry_datetimeNtB5_10RyDateTime3day
FNDA:0,_RNvMse_NtCs8WYW6vAPwZd_9ryo3_jiff11ry_datetimeNtB5_10RyDateTime3now
FNDA:0,_RNvMse_NtCs8WYW6vAPwZd_9ryo3_jiff11ry_datetimeNtB5_10RyDateTime3sub
FNDA:8,_RNvMse_NtCs8WYW6vAPwZd_9ryo3_jiff11ry_datetimeNtB5_10RyDateTime4ZERO
FNDA:0,_RNvMse_NtCs8WYW6vAPwZd_9ryo3_jiff11ry_datetimeNtB5_10RyDateTime4date
FNDA:105,_RNvMse_NtCs8WYW6vAPwZd_9ryo3_jiff11ry_datetimeNtB5_10RyDateTime4hour
FNDA:0,_RNvMse_NtCs8WYW6vAPwZd_9ryo3_jiff11ry_datetimeNtB5_10RyDateTime4intz
FNDA:0,_RNvMse_NtCs8WYW6vAPwZd_9ryo3_jiff11ry_datetimeNtB5_10RyDateTime4time
FNDA:105,_RNvMse_NtCs8WYW6vAPwZd_9ryo3_jiff11ry_datetimeNtB5_10RyDateTime4year
FNDA:409,_RNvMse_NtCs8WYW6vAPwZd_9ryo3_jiff11ry_datetimeNtB5_10RyDateTime5in_tz
FNDA:105,_RNvMse_NtCs8WYW6vAPwZd_9ryo3_jiff11ry_datetimeNtB5_10RyDateTime5month
FNDA:309,_RNvMse_NtCs8WYW6vAPwZd_9ryo3_jiff11ry_datetimeNtB5_10RyDateTime5parse
FNDA:11,_RNvMse_NtCs8WYW6vAPwZd_9ryo3_jiff11ry_datetimeNtB5_10RyDateTime5round
FNDA:0,_RNvMse_NtCs8WYW6vAPwZd_9ryo3_jiff11ry_datetimeNtB5_10RyDateTime5since
FNDA:100,_RNvMse_NtCs8WYW6vAPwZd_9ryo3_jiff11ry_datetimeNtB5_10RyDateTime5to_py
FNDA:1,_RNvMse_NtCs8WYW6vAPwZd_9ryo3_jiff11ry_datetimeNtB5_10RyDateTime5until
FNDA:289,_RNvMse_NtCs8WYW6vAPwZd_9ryo3_jiff11ry_datetimeNtB5_10RyDateTime6__round
FNDA:1,_RNvMse_NtCs8WYW6vAPwZd_9ryo3_jiff11ry_datetimeNtB5_10RyDateTime6__since
FNDA:4,_RNvMse_NtCs8WYW6vAPwZd_9ryo3_jiff11ry_datetimeNtB5_10RyDateTime6__until
FNDA:2,_RNvMse_NtCs8WYW6vAPwZd_9ryo3_jiff11ry_datetimeNtB5_10RyDateTime6asdict
FNDA:105,_RNvMse_NtCs8WYW6vAPwZd_9ryo3_jiff11ry_datetimeNtB5_10RyDateTime6minute
FNDA:1671,_RNvMse_NtCs8WYW6vAPwZd_9ryo3_jiff11ry_datetimeNtB5_10RyDateTime6py_new
FNDA:105,_RNvMse_NtCs8WYW6vAPwZd_9ryo3_jiff11ry_datetimeNtB5_10RyDateTime6second
FNDA:0,_RNvMse_NtCs8WYW6vAPwZd_9ryo3_jiff11ry_datetimeNtB5_10RyDateTime6series
FNDA:202,_RNvMse_NtCs8WYW6vAPwZd_9ryo3_jiff11ry_datetimeNtB5_10RyDateTime6string
FNDA:402,_RNvMse_NtCs8WYW6vAPwZd_9ryo3_jiff11ry_datetimeNtB5_10RyDateTime7___add__
FNDA:1,_RNvMse_NtCs8WYW6vAPwZd_9ryo3_jiff11ry_datetimeNtB5_10RyDateTime7___str__
FNDA:504,_RNvMse_NtCs8WYW6vAPwZd_9ryo3_jiff11ry_datetimeNtB5_10RyDateTime7___sub__
FNDA:0,_RNvMse_NtCs8WYW6vAPwZd_9ryo3_jiff11ry_datetimeNtB5_10RyDateTime7replace
FNDA:0,_RNvMse_NtCs8WYW6vAPwZd_9ryo3_jiff11ry_datetimeNtB5_10RyDateTime7weekday
FNDA:0,_RNvMse_NtCs8WYW6vAPwZd_9ryo3_jiff11ry_datetimeNtB5_10RyDateTime8___hash__
FNDA:101,_RNvMse_NtCs8WYW6vAPwZd_9ryo3_jiff11ry_datetimeNtB5_10RyDateTime8___repr__
FNDA:0,_RNvMse_NtCs8WYW6vAPwZd_9ryo3_jiff11ry_datetimeNtB5_10RyDateTime8era_year
FNDA:311,_RNvMse_NtCs8WYW6vAPwZd_9ryo3_jiff11ry_datetimeNtB5_10RyDateTime8from_str
FNDA:0,_RNvMse_NtCs8WYW6vAPwZd_9ryo3_jiff11ry_datetimeNtB5_10RyDateTime8strftime
FNDA:0,_RNvMse_NtCs8WYW6vAPwZd_9ryo3_jiff11ry_datetimeNtB5_10RyDateTime8strptime
FNDA:0,_RNvMse_NtCs8WYW6vAPwZd_9ryo3_jiff11ry_datetimeNtB5_10RyDateTime8to_zoned
FNDA:0,_RNvMse_NtCs8WYW6vAPwZd_9ryo3_jiff11ry_datetimeNtB5_10RyDateTime8tomorrow
FNDA:100,_RNvMse_NtCs8WYW6vAPwZd_9ryo3_jiff11ry_datetimeNtB5_10RyDateTime9isoformat
FNDA:0,_RNvMse_NtCs8WYW6vAPwZd_9ryo3_jiff11ry_datetimeNtB5_10RyDateTime9to_pydate
FNDA:0,_RNvMse_NtCs8WYW6vAPwZd_9ryo3_jiff11ry_datetimeNtB5_10RyDateTime9to_pytime
FNDA:0,_RNvMse_NtCs8WYW6vAPwZd_9ryo3_jiff11ry_datetimeNtB5_10RyDateTime9yesterday
FNDA:0,_RNvMsk_NtCs8WYW6vAPwZd_9ryo3_jiff11ry_datetimeNtB5_10RyDateTime17___pymethod_date__
FNDA:0,_RNvMsk_NtCs8WYW6vAPwZd_9ryo3_jiff11ry_datetimeNtB5_10RyDateTime17___pymethod_time__
FNDA:0,_RNvMsk_NtCs8WYW6vAPwZd_9ryo3_jiff11ry_datetimeNtB5_10RyDateTime18___pymethod_to_py__
FNDA:0,_RNvMsk_NtCs8WYW6vAPwZd_9ryo3_jiff11ry_datetimeNtB5_10RyDateTime19___pymethod_asdict__
FNDA:0,_RNvMsk_NtCs8WYW6vAPwZd_9ryo3_jiff11ry_datetimeNtB5_10RyDateTime19___pymethod_string__
FNDA:0,_RNvMsk_NtCs8WYW6vAPwZd_9ryo3_jiff11ry_datetimeNtB5_10RyDateTime20___pymethod___str____
FNDA:0,_RNvMsk_NtCs8WYW6vAPwZd_9ryo3_jiff11ry_datetimeNtB5_10RyDateTime20___pymethod_get_day__
FNDA:0,_RNvMsk_NtCs8WYW6vAPwZd_9ryo3_jiff11ry_datetimeNtB5_10RyDateTime21___pymethod___hash____
FNDA:0,_RNvMsk_NtCs8WYW6vAPwZd_9ryo3_jiff11ry_datetimeNtB5_10RyDateTime21___pymethod___repr____
FNDA:0,_RNvMsk_NtCs8WYW6vAPwZd_9ryo3_jiff11ry_datetimeNtB5_10RyDateTime21___pymethod_era_year__
FNDA:0,_RNvMsk_NtCs8WYW6vAPwZd_9ryo3_jiff11ry_datetimeNtB5_10RyDateTime21___pymethod_get_hour__
FNDA:0,_RNvMsk_NtCs8WYW6vAPwZd_9ryo3_jiff11ry_datetimeNtB5_10RyDateTime21___pymethod_get_year__
FNDA:0,_RNvMsk_NtCs8WYW6vAPwZd_9ryo3_jiff11ry_datetimeNtB5_10RyDateTime21___pymethod_tomorrow__
FNDA:0,_RNvMsk_NtCs8WYW6vAPwZd_9ryo3_jiff11ry_datetimeNtB5_10RyDateTime22___pymethod_get_month__
FNDA:0,_RNvMsk_NtCs8WYW6vAPwZd_9ryo3_jiff11ry_datetimeNtB5_10RyDateTime22___pymethod_isoformat__
FNDA:0,_RNvMsk_NtCs8WYW6vAPwZd_9ryo3_jiff11ry_datetimeNtB5_10RyDateTime22___pymethod_to_pydate__
FNDA:0,_RNvMsk_NtCs8WYW6vAPwZd_9ryo3_jiff11ry_datetimeNtB5_10RyDateTime22___pymethod_to_pytime__
FNDA:0,_RNvMsk_NtCs8WYW6vAPwZd_9ryo3_jiff11ry_datetimeNtB5_10RyDateTime22___pymethod_yesterday__
FNDA:0,_RNvMsk_NtCs8WYW6vAPwZd_9ryo3_jiff11ry_datetimeNtB5_10RyDateTime23___pymethod_end_of_day__
FNDA:0,_RNvMsk_NtCs8WYW6vAPwZd_9ryo3_jiff11ry_datetimeNtB5_10RyDateTime23___pymethod_get_minute__
FNDA:0,_RNvMsk_NtCs8WYW6vAPwZd_9ryo3_jiff11ry_datetimeNtB5_10RyDateTime23___pymethod_get_second__
FNDA:0,_RNvMsk_NtCs8WYW6vAPwZd_9ryo3_jiff11ry_datetimeNtB5_10RyDateTime24___pymethod_day_of_year__
FNDA:0,_RNvMsk_NtCs8WYW6vAPwZd_9ryo3_jiff11ry_datetimeNtB5_10RyDateTime24___pymethod_get_weekday__
FNDA:0,_RNvMsk_NtCs8WYW6vAPwZd_9ryo3_jiff11ry_datetimeNtB5_10RyDateTime25___pymethod_days_in_year__
FNDA:0,_RNvMsk_NtCs8WYW6vAPwZd_9ryo3_jiff11ry_datetimeNtB5_10RyDateTime25___pymethod_in_leap_year__
FNDA:0,_RNvMsk_NtCs8WYW6vAPwZd_9ryo3_jiff11ry_datetimeNtB5_10RyDateTime25___pymethod_last_of_year__
FNDA:0,_RNvMsk_NtCs8WYW6vAPwZd_9ryo3_jiff11ry_datetimeNtB5_10RyDateTime25___pymethod_start_of_day__
FNDA:0,_RNvMsk_NtCs8WYW6vAPwZd_9ryo3_jiff11ry_datetimeNtB5_10RyDateTime26___pymethod_days_in_month__
FNDA:0,_RNvMsk_NtCs8WYW6vAPwZd_9ryo3_jiff11ry_datetimeNtB5_10RyDateTime26___pymethod_first_of_year__
FNDA:0,_RNvMsk_NtCs8WYW6vAPwZd_9ryo3_jiff11ry_datetimeNtB5_10RyDateTime26___pymethod_iso_week_date__
FNDA:0,_RNvMsk_NtCs8WYW6vAPwZd_9ryo3_jiff11ry_datetimeNtB5_10RyDateTime26___pymethod_last_of_month__
FNDA:0,_RNvMsk_NtCs8WYW6vAPwZd_9ryo3_jiff11ry_datetimeNtB5_10RyDateTime26___pymethod_to_pydatetime__
FNDA:0,_RNvMsk_NtCs8WYW6vAPwZd_9ryo3_jiff11ry_datetimeNtB5_10RyDateTime27___pymethod___getnewargs____
FNDA:0,_RNvMsk_NtCs8WYW6vAPwZd_9ryo3_jiff11ry_datetimeNtB5_10RyDateTime27___pymethod_first_of_month__
FNDA:0,_RNvMsk_NtCs8WYW6vAPwZd_9ryo3_jiff11ry_datetimeNtB5_10RyDateTime27___pymethod_get_nanosecond__
FNDA:0,_RNvMsk_NtCs8WYW6vAPwZd_9ryo3_jiff11ry_datetimeNtB5_10RyDateTime28___pymethod_get_microsecond__
FNDA:0,_RNvMsk_NtCs8WYW6vAPwZd_9ryo3_jiff11ry_datetimeNtB5_10RyDateTime28___pymethod_get_millisecond__
FNDA:0,_RNvMsk_NtCs8WYW6vAPwZd_9ryo3_jiff11ry_datetimeNtB5_10RyDateTime32___pymethod_day_of_year_no_leap__
FNDA:0,_RNvMsk_NtCs8WYW6vAPwZd_9ryo3_jiff11ry_datetimeNtB5_10RyDateTime34___pymethod_get_subsec_nanosecond__
FNDA:2642,_RNvXNtCs8WYW6vAPwZd_9ryo3_jiff11ry_datetimeNtB2_10RyDateTimeINtNtCs66KPHxksi63_4core7convert4FromNtNtNtCs3tnJ9lKo9L6_4jiff5civil8datetime8DateTimeE4from
FNDA:203,_RNvXs_NtCs8WYW6vAPwZd_9ryo3_jiff11ry_datetimeNtB4_10RyDateTimeNtNtCs66KPHxksi63_4core3fmt7Display3fmt
FNDA:0,_RNCNvMse_NtCs8WYW6vAPwZd_9ryo3_jiff11ry_datetimeNtB7_10RyDateTime5in_tz0B9_
FNDA:0,_RNCNvMse_NtCs8WYW6vAPwZd_9ryo3_jiff11ry_datetimeNtB7_10RyDateTime5round0B9_
FNDA:269,_RNCNvMse_NtCs8WYW6vAPwZd_9ryo3_jiff11ry_datetimeNtB7_10RyDateTime6__round0B9_
FNDA:0,_RNCNvMse_NtCs8WYW6vAPwZd_9ryo3_jiff11ry_datetimeNtB7_10RyDateTime6py_new0B9_
FNDA:0,_RNCNvMse_NtCs8WYW6vAPwZd_9ryo3_jiff11ry_datetimeNtB7_10RyDateTime8from_str0B9_
FNDA:0,_RNCNvMse_NtCs8WYW6vAPwZd_9ryo3_jiff11ry_datetimeNtB7_10RyDateTime8strptime0B9_
FNDA:0,_RNCNvMse_NtCs8WYW6vAPwZd_9ryo3_jiff11ry_datetimeNtB7_10RyDateTime8to_zoned0B9_
FNF:82
FNH:36
DA:32,2642
DA:33,2642
DA:34,2642
DA:37,0
DA:41,1671
DA:42,1671
DA:43,1671
DA:44,1671
DA:45,1671
DA:46,1671
DA:47,1671
DA:48,1671
DA:49,1671
DA:50,1671
DA:51,1671
DA:52,1671
DA:53,1671
DA:54,1671
DA:55,1671
DA:56,1671
DA:57,1671
DA:59,1671
DA:60,1671
DA:61,1671
DA:63,2
DA:64,2
DA:65,2
DA:66,2
DA:67,2
DA:68,2
DA:69,2
DA:70,2
DA:71,2
DA:72,2
DA:73,2
DA:76,2
DA:80,8
DA:81,8
DA:82,8
DA:86,8
DA:87,8
DA:88,8
DA:92,8
DA:93,8
DA:94,8
DA:97,0
DA:98,0
DA:99,0
DA:102,311
DA:103,311
DA:104,311
DA:105,311
DA:106,311
DA:109,309
DA:110,309
DA:111,309
DA:113,604
DA:114,604
DA:115,604
DA:116,0
DA:117,0
DA:118,0
DA:119,0
DA:120,0
DA:122,604
DA:125,105
DA:126,105
DA:127,105
DA:130,105
DA:131,105
DA:132,105
DA:135,105
DA:136,105
DA:137,105
DA:140,105
DA:141,105
DA:142,105
DA:145,105
DA:146,105
DA:147,105
DA:150,105
DA:151,105
DA:152,105
DA:155,0
DA:156,0
DA:157,0
DA:160,0
DA:161,0
DA:162,0
DA:165,1
DA:166,1
DA:167,1
DA:170,103
DA:171,103
DA:172,103
DA:174,1
DA:175,1
DA:176,1
DA:178,202
DA:179,202
DA:180,202
DA:182,101
DA:183,101
DA:184,101
DA:185,101
DA:186,101
DA:187,101
DA:188,101
DA:189,101
DA:190,101
DA:191,101
DA:193,101
DA:195,0
DA:196,0
DA:197,0
DA:198,0
DA:199,0
DA:201,402
DA:202,402
DA:203,402
DA:204,402
DA:205,402
DA:206,402
DA:207,402
DA:209,504
DA:210,504
DA:211,504
DA:212,504
DA:213,504
DA:214,504
DA:215,302
DA:216,302
DA:217,302
DA:219,202
DA:220,202
DA:221,84
DA:223,504
DA:225,0
DA:226,0
DA:227,0
DA:229,0
DA:230,0
DA:231,0
DA:233,0
DA:234,0
DA:235,0
DA:236,0
DA:238,0
DA:239,0
DA:240,0
DA:241,0
DA:243,0
DA:244,0
DA:245,0
DA:247,0
DA:248,0
DA:249,0
DA:251,409
DA:252,409
DA:253,409
DA:254,409
DA:255,409
DA:256,409
DA:258,0
DA:259,0
DA:260,0
DA:261,0
DA:264,100
DA:265,100
DA:266,6
DA:268,94
DA:270,100
DA:272,1
DA:273,1
DA:274,1
DA:276,0
DA:277,0
DA:278,0
DA:279,0
DA:280,0
DA:281,0
DA:283,0
DA:284,0
DA:285,0
DA:286,0
DA:287,0
DA:288,0
DA:290,100
DA:291,100
DA:292,100
DA:294,100
DA:295,100
DA:296,100
DA:298,0
DA:299,0
DA:300,0
DA:302,0
DA:303,0
DA:304,0
DA:307,201
DA:308,201
DA:309,201
DA:311,0
DA:312,0
DA:313,0
DA:314,0
DA:315,0
DA:317,2
DA:318,2
DA:319,2
DA:320,2
DA:321,2
DA:322,2
DA:323,2
DA:324,2
DA:325,2
DA:326,2
DA:327,2
DA:351,0
DA:352,0
DA:353,0
DA:354,0
DA:355,0
DA:356,0
DA:357,0
DA:358,0
DA:359,0
DA:360,0
DA:361,0
DA:362,0
DA:363,0
DA:364,0
DA:365,0
DA:366,0
DA:367,0
DA:368,0
DA:369,0
DA:371,0
DA:372,0
DA:374,0
DA:376,0
DA:377,0
DA:378,0
DA:380,0
DA:381,0
DA:383,0
DA:384,0
DA:385,0
DA:387,0
DA:389,0
DA:390,0
DA:391,0
DA:392,0
DA:393,0
DA:394,0
DA:395,0
DA:396,0
DA:397,0
DA:398,0
DA:399,0
DA:400,0
DA:401,0
DA:402,0
DA:403,0
DA:404,0
DA:405,0
DA:406,0
DA:407,0
DA:408,0
DA:409,0
DA:410,0
DA:411,0
DA:412,0
DA:413,0
DA:414,0
DA:415,0
DA:416,0
DA:417,0
DA:418,0
DA:419,0
DA:420,0
DA:421,0
DA:422,0
DA:423,0
DA:424,0
DA:425,0
DA:426,0
DA:427,0
DA:428,0
DA:429,0
DA:430,0
DA:431,0
DA:432,0
DA:433,0
DA:434,0
DA:435,0
DA:440,11
DA:441,11
DA:442,11
DA:443,11
DA:444,11
DA:445,11
DA:446,11
DA:447,11
DA:448,11
DA:449,11
DA:450,11
DA:451,11
DA:452,11
DA:453,11
DA:454,11
DA:455,11
DA:456,11
DA:457,11
DA:458,11
DA:459,11
DA:460,11
DA:462,289
DA:463,289
DA:464,289
DA:465,289
DA:466,289
DA:467,289
DA:469,0
DA:470,0
DA:471,0
DA:473,0
DA:474,0
DA:475,0
DA:477,0
DA:478,0
DA:479,0
DA:481,0
DA:482,0
DA:483,0
DA:485,0
DA:486,0
DA:487,0
DA:489,0
DA:490,0
DA:491,0
DA:494,0
DA:495,0
DA:496,0
DA:499,0
DA:500,0
DA:501,0
DA:502,0
DA:503,0
DA:505,0
DA:506,0
DA:507,0
DA:510,0
DA:511,0
DA:512,0
DA:514,0
DA:515,0
DA:516,0
DA:518,0
DA:519,0
DA:520,0
DA:522,0
DA:523,0
DA:524,0
DA:526,0
DA:527,0
DA:528,0
DA:532,0
DA:533,0
DA:534,0
DA:535,0
DA:536,0
DA:541,0
DA:542,0
DA:543,0
DA:544,0
DA:545,0
DA:546,0
DA:547,0
DA:548,0
DA:549,0
DA:550,0
DA:551,0
DA:552,0
DA:553,0
DA:554,0
DA:558,1
DA:559,1
DA:560,1
DA:561,1
DA:562,1
DA:563,1
DA:564,1
DA:565,1
DA:566,1
DA:567,1
DA:568,1
DA:569,1
DA:570,1
DA:571,1
DA:573,1
DA:574,1
DA:575,1
DA:576,1
DA:577,1
DA:578,1
DA:580,4
DA:581,4
DA:582,4
DA:583,4
DA:584,4
DA:585,4
DA:587,0
DA:588,0
DA:589,0
DA:591,0
DA:592,0
DA:593,0
DA:595,0
DA:596,0
DA:597,0
DA:598,0
DA:599,0
DA:600,0
DA:602,0
DA:603,0
DA:604,0
DA:605,0
DA:606,0
DA:607,0
DA:610,0
DA:611,0
DA:612,0
DA:613,0
DA:614,0
DA:615,0
DA:616,0
DA:617,0
DA:618,0
DA:620,0
DA:624,203
DA:625,203
DA:626,203
BRF:0
BRH:0
LF:450
LH:208
end_of_record
SF:/home/jesse/ry/crates/ryo3-jiff/src/ry_datetime_difference.rs
FN:76,_RNvMs_NtCs8WYW6vAPwZd_9ryo3_jiff22ry_datetime_differenceNtB4_21DateTimeDifferenceArg5build
FN:56,_RNvMsb_NtCs8WYW6vAPwZd_9ryo3_jiff22ry_datetime_differenceNtB5_20RyDateTimeDifference4mode
FN:25,_RNvMsb_NtCs8WYW6vAPwZd_9ryo3_jiff22ry_datetime_differenceNtB5_20RyDateTimeDifference6py_new
FN:52,_RNvMsb_NtCs8WYW6vAPwZd_9ryo3_jiff22ry_datetime_differenceNtB5_20RyDateTimeDifference7largest
FN:48,_RNvMsb_NtCs8WYW6vAPwZd_9ryo3_jiff22ry_datetime_differenceNtB5_20RyDateTimeDifference8smallest
FN:60,_RNvMsb_NtCs8WYW6vAPwZd_9ryo3_jiff22ry_datetime_differenceNtB5_20RyDateTimeDifference9increment
FN:13,_RNvXNtCs8WYW6vAPwZd_9ryo3_jiff22ry_datetime_differenceNtB2_20RyDateTimeDifferenceINtNtCs66KPHxksi63_4core7convert4FromNtNtNtCs3tnJ9lKo9L6_4jiff5civil8datetime18DateTimeDifferenceE4from
FNDA:1,_RNvMs_NtCs8WYW6vAPwZd_9ryo3_jiff22ry_datetime_differenceNtB4_21DateTimeDifferenceArg5build
FNDA:4,_RNvMsb_NtCs8WYW6vAPwZd_9ryo3_jiff22ry_datetime_differenceNtB5_20RyDateTimeDifference4mode
FNDA:5,_RNvMsb_NtCs8WYW6vAPwZd_9ryo3_jiff22ry_datetime_differenceNtB5_20RyDateTimeDifference6py_new
FNDA:3,_RNvMsb_NtCs8WYW6vAPwZd_9ryo3_jiff22ry_datetime_differenceNtB5_20RyDateTimeDifference7largest
FNDA:4,_RNvMsb_NtCs8WYW6vAPwZd_9ryo3_jiff22ry_datetime_differenceNtB5_20RyDateTimeDifference8smallest
FNDA:1,_RNvMsb_NtCs8WYW6vAPwZd_9ryo3_jiff22ry_datetime_differenceNtB5_20RyDateTimeDifference9increment
FNDA:0,_RNvXNtCs8WYW6vAPwZd_9ryo3_jiff22ry_datetime_differenceNtB2_20RyDateTimeDifferenceINtNtCs66KPHxksi63_4core7convert4FromNtNtNtCs3tnJ9lKo9L6_4jiff5civil8datetime18DateTimeDifferenceE4from
FNF:7
FNH:6
DA:13,0
DA:14,0
DA:15,0
DA:25,5
DA:26,5
DA:27,5
DA:28,5
DA:29,5
DA:30,5
DA:31,5
DA:32,5
DA:33,5
DA:34,0
DA:35,5
DA:36,5
DA:37,0
DA:38,5
DA:39,5
DA:40,0
DA:41,5
DA:42,5
DA:43,0
DA:44,5
DA:45,5
DA:46,5
DA:48,4
DA:49,4
DA:50,4
DA:52,3
DA:53,3
DA:54,3
DA:56,4
DA:57,4
DA:58,4
DA:60,1
DA:61,1
DA:62,1
DA:76,1
DA:77,1
DA:78,1
DA:79,1
DA:80,1
DA:81,1
DA:82,1
DA:83,1
DA:84,0
DA:85,1
DA:86,0
DA:88,1
DA:89,1
DA:90,1
DA:91,1
DA:92,1
DA:93,1
DA:94,1
DA:95,1
DA:96,1
DA:97,1
DA:98,1
DA:99,1
DA:100,1
DA:101,1
BRF:0
BRH:0
LF:62
LH:53
end_of_record
SF:/home/jesse/ry/crates/ryo3-jiff/src/ry_datetime_round.rs
FN:93,_RNvMs9_NtCs8WYW6vAPwZd_9ryo3_jiff17ry_datetime_roundNtB5_15RyDateTimeRound10__increment
FN:77,_RNvMs9_NtCs8WYW6vAPwZd_9ryo3_jiff17ry_datetime_roundNtB5_15RyDateTimeRound4mode
FN:89,_RNvMs9_NtCs8WYW6vAPwZd_9ryo3_jiff17ry_datetime_roundNtB5_15RyDateTimeRound5__mode
FN:45,_RNvMs9_NtCs8WYW6vAPwZd_9ryo3_jiff17ry_datetime_roundNtB5_15RyDateTimeRound6___eq__
FN:19,_RNvMs9_NtCs8WYW6vAPwZd_9ryo3_jiff17ry_datetime_roundNtB5_15RyDateTimeRound6py_new
FN:34,_RNvMs9_NtCs8WYW6vAPwZd_9ryo3_jiff17ry_datetime_roundNtB5_15RyDateTimeRound7___str__
FN:52,_RNvMs9_NtCs8WYW6vAPwZd_9ryo3_jiff17ry_datetime_roundNtB5_15RyDateTimeRound7replace
FN:38,_RNvMs9_NtCs8WYW6vAPwZd_9ryo3_jiff17ry_datetime_roundNtB5_15RyDateTimeRound8___repr__
FN:73,_RNvMs9_NtCs8WYW6vAPwZd_9ryo3_jiff17ry_datetime_roundNtB5_15RyDateTimeRound8smallest
FN:85,_RNvMs9_NtCs8WYW6vAPwZd_9ryo3_jiff17ry_datetime_roundNtB5_15RyDateTimeRound9__smallest
FN:81,_RNvMs9_NtCs8WYW6vAPwZd_9ryo3_jiff17ry_datetime_roundNtB5_15RyDateTimeRound9increment
FN:15,_RNvMsd_NtCs8WYW6vAPwZd_9ryo3_jiff17ry_datetime_roundNtB5_15RyDateTimeRound18___pymethod__mode__
FN:15,_RNvMsd_NtCs8WYW6vAPwZd_9ryo3_jiff17ry_datetime_roundNtB5_15RyDateTimeRound20___pymethod___str____
FN:15,_RNvMsd_NtCs8WYW6vAPwZd_9ryo3_jiff17ry_datetime_roundNtB5_15RyDateTimeRound21___pymethod___repr____
FN:15,_RNvMsd_NtCs8WYW6vAPwZd_9ryo3_jiff17ry_datetime_roundNtB5_15RyDateTimeRound22___pymethod__smallest__
FN:15,_RNvMsd_NtCs8WYW6vAPwZd_9ryo3_jiff17ry_datetime_roundNtB5_15RyDateTimeRound23___pymethod__increment__
FNDA:0,_RNvMs9_NtCs8WYW6vAPwZd_9ryo3_jiff17ry_datetime_roundNtB5_15RyDateTimeRound10__increment
FNDA:81,_RNvMs9_NtCs8WYW6vAPwZd_9ryo3_jiff17ry_datetime_roundNtB5_15RyDateTimeRound4mode
FNDA:0,_RNvMs9_NtCs8WYW6vAPwZd_9ryo3_jiff17ry_datetime_roundNtB5_15RyDateTimeRound5__mode
FNDA:81,_RNvMs9_NtCs8WYW6vAPwZd_9ryo3_jiff17ry_datetime_roundNtB5_15RyDateTimeRound6___eq__
FNDA:363,_RNvMs9_NtCs8WYW6vAPwZd_9ryo3_jiff17ry_datetime_roundNtB5_15RyDateTimeRound6py_new
FNDA:82,_RNvMs9_NtCs8WYW6vAPwZd_9ryo3_jiff17ry_datetime_roundNtB5_15RyDateTimeRound7___str__
FNDA:243,_RNvMs9_NtCs8WYW6vAPwZd_9ryo3_jiff17ry_datetime_roundNtB5_15RyDateTimeRound7replace
FNDA:82,_RNvMs9_NtCs8WYW6vAPwZd_9ryo3_jiff17ry_datetime_roundNtB5_15RyDateTimeRound8___repr__
FNDA:81,_RNvMs9_NtCs8WYW6vAPwZd_9ryo3_jiff17ry_datetime_roundNtB5_15RyDateTimeRound8smallest
FNDA:0,_RNvMs9_NtCs8WYW6vAPwZd_9ryo3_jiff17ry_datetime_roundNtB5_15RyDateTimeRound9__smallest
FNDA:81,_RNvMs9_NtCs8WYW6vAPwZd_9ryo3_jiff17ry_datetime_roundNtB5_15RyDateTimeRound9increment
FNDA:0,_RNvMsd_NtCs8WYW6vAPwZd_9ryo3_jiff17ry_datetime_roundNtB5_15RyDateTimeRound18___pymethod__mode__
FNDA:0,_RNvMsd_NtCs8WYW6vAPwZd_9ryo3_jiff17ry_datetime_roundNtB5_15RyDateTimeRound20___pymethod___str____
FNDA:0,_RNvMsd_NtCs8WYW6vAPwZd_9ryo3_jiff17ry_datetime_roundNtB5_15RyDateTimeRound21___pymethod___repr____
FNDA:0,_RNvMsd_NtCs8WYW6vAPwZd_9ryo3_jiff17ry_datetime_roundNtB5_15RyDateTimeRound22___pymethod__smallest__
FNDA:0,_RNvMsd_NtCs8WYW6vAPwZd_9ryo3_jiff17ry_datetime_roundNtB5_15RyDateTimeRound23___pymethod__increment__
FNF:12
FNH:8
DA:15,0
DA:19,363
DA:20,363
DA:21,363
DA:22,363
DA:23,363
DA:24,363
DA:25,363
DA:26,363
DA:27,363
DA:28,363
DA:29,363
DA:30,363
DA:31,363
DA:32,363
DA:34,82
DA:35,82
DA:36,82
DA:38,82
DA:39,82
DA:40,82
DA:43,82
DA:45,81
DA:46,81
DA:47,81
DA:48,81
DA:49,81
DA:52,243
DA:53,243
DA:54,243
DA:55,243
DA:56,243
DA:57,243
DA:58,243
DA:59,243
DA:60,243
DA:61,243
DA:62,243
DA:63,243
DA:64,243
DA:65,243
DA:66,243
DA:67,243
DA:68,243
DA:69,243
DA:70,243
DA:71,243
DA:73,81
DA:74,81
DA:75,81
DA:77,81
DA:78,81
DA:79,81
DA:81,81
DA:82,81
DA:83,81
DA:85,0
DA:86,0
DA:87,0
DA:89,0
DA:90,0
DA:91,0
DA:93,0
DA:94,0
DA:95,0
BRF:0
BRH:0
LF:65
LH:55
end_of_record
SF:/home/jesse/ry/crates/ryo3-jiff/src/ry_iso_week_date.rs
FN:22,_RNvMsa_NtCs8WYW6vAPwZd_9ryo3_jiff16ry_iso_week_dateNtB5_13RyISOWeekDate14___getnewargs__
FN:47,_RNvMsa_NtCs8WYW6vAPwZd_9ryo3_jiff16ry_iso_week_dateNtB5_13RyISOWeekDate3MAX
FN:40,_RNvMsa_NtCs8WYW6vAPwZd_9ryo3_jiff16ry_iso_week_dateNtB5_13RyISOWeekDate3MIN
FN:54,_RNvMsa_NtCs8WYW6vAPwZd_9ryo3_jiff16ry_iso_week_dateNtB5_13RyISOWeekDate4ZERO
FN:101,_RNvMsa_NtCs8WYW6vAPwZd_9ryo3_jiff16ry_iso_week_dateNtB5_13RyISOWeekDate4date
FN:87,_RNvMsa_NtCs8WYW6vAPwZd_9ryo3_jiff16ry_iso_week_dateNtB5_13RyISOWeekDate4week
FN:81,_RNvMsa_NtCs8WYW6vAPwZd_9ryo3_jiff16ry_iso_week_dateNtB5_13RyISOWeekDate4year
FN:70,_RNvMsa_NtCs8WYW6vAPwZd_9ryo3_jiff16ry_iso_week_dateNtB5_13RyISOWeekDate5today
FN:118,_RNvMsa_NtCs8WYW6vAPwZd_9ryo3_jiff16ry_iso_week_dateNtB5_13RyISOWeekDate6___eq__
FN:138,_RNvMsa_NtCs8WYW6vAPwZd_9ryo3_jiff16ry_iso_week_dateNtB5_13RyISOWeekDate6___ge__
FN:134,_RNvMsa_NtCs8WYW6vAPwZd_9ryo3_jiff16ry_iso_week_dateNtB5_13RyISOWeekDate6___gt__
FN:130,_RNvMsa_NtCs8WYW6vAPwZd_9ryo3_jiff16ry_iso_week_dateNtB5_13RyISOWeekDate6___le__
FN:126,_RNvMsa_NtCs8WYW6vAPwZd_9ryo3_jiff16ry_iso_week_dateNtB5_13RyISOWeekDate6___lt__
FN:122,_RNvMsa_NtCs8WYW6vAPwZd_9ryo3_jiff16ry_iso_week_dateNtB5_13RyISOWeekDate6___ne__
FN:16,_RNvMsa_NtCs8WYW6vAPwZd_9ryo3_jiff16ry_iso_week_dateNtB5_13RyISOWeekDate6py_new
FN:93,_RNvMsa_NtCs8WYW6vAPwZd_9ryo3_jiff16ry_iso_week_dateNtB5_13RyISOWeekDate7weekday
FN:142,_RNvMsa_NtCs8WYW6vAPwZd_9ryo3_jiff16ry_iso_week_dateNtB5_13RyISOWeekDate8___hash__
FN:105,_RNvMsa_NtCs8WYW6vAPwZd_9ryo3_jiff16ry_iso_week_dateNtB5_13RyISOWeekDate8___repr__
FN:64,_RNvMsa_NtCs8WYW6vAPwZd_9ryo3_jiff16ry_iso_week_dateNtB5_13RyISOWeekDate9from_date
FN:13,_RNvMso_NtCs8WYW6vAPwZd_9ryo3_jiff16ry_iso_week_dateNtB5_13RyISOWeekDate17___pymethod_date__
FN:13,_RNvMso_NtCs8WYW6vAPwZd_9ryo3_jiff16ry_iso_week_dateNtB5_13RyISOWeekDate21___pymethod___hash____
FN:13,_RNvMso_NtCs8WYW6vAPwZd_9ryo3_jiff16ry_iso_week_dateNtB5_13RyISOWeekDate21___pymethod___repr____
FN:13,_RNvMso_NtCs8WYW6vAPwZd_9ryo3_jiff16ry_iso_week_dateNtB5_13RyISOWeekDate21___pymethod_get_week__
FN:13,_RNvMso_NtCs8WYW6vAPwZd_9ryo3_jiff16ry_iso_week_dateNtB5_13RyISOWeekDate21___pymethod_get_year__
FN:13,_RNvMso_NtCs8WYW6vAPwZd_9ryo3_jiff16ry_iso_week_dateNtB5_13RyISOWeekDate24___pymethod_get_weekday__
FN:13,_RNvMso_NtCs8WYW6vAPwZd_9ryo3_jiff16ry_iso_week_dateNtB5_13RyISOWeekDate27___pymethod___getnewargs____
FN:150,_RNvXNtCs8WYW6vAPwZd_9ryo3_jiff16ry_iso_week_dateNtB2_13RyISOWeekDateINtNtCs66KPHxksi63_4core7convert4FromNtNtNtCs3tnJ9lKo9L6_4jiff5civil13iso_week_date11ISOWeekDateE4from
FNDA:2,_RNvMsa_NtCs8WYW6vAPwZd_9ryo3_jiff16ry_iso_week_dateNtB5_13RyISOWeekDate14___getnewargs__
FNDA:8,_RNvMsa_NtCs8WYW6vAPwZd_9ryo3_jiff16ry_iso_week_dateNtB5_13RyISOWeekDate3MAX
FNDA:8,_RNvMsa_NtCs8WYW6vAPwZd_9ryo3_jiff16ry_iso_week_dateNtB5_13RyISOWeekDate3MIN
FNDA:8,_RNvMsa_NtCs8WYW6vAPwZd_9ryo3_jiff16ry_iso_week_dateNtB5_13RyISOWeekDate4ZERO
FNDA:1,_RNvMsa_NtCs8WYW6vAPwZd_9ryo3_jiff16ry_iso_week_dateNtB5_13RyISOWeekDate4date
FNDA:4,_RNvMsa_NtCs8WYW6vAPwZd_9ryo3_jiff16ry_iso_week_dateNtB5_13RyISOWeekDate4week
FNDA:4,_RNvMsa_NtCs8WYW6vAPwZd_9ryo3_jiff16ry_iso_week_dateNtB5_13RyISOWeekDate4year
FNDA:0,_RNvMsa_NtCs8WYW6vAPwZd_9ryo3_jiff16ry_iso_week_dateNtB5_13RyISOWeekDate5today
FNDA:8,_RNvMsa_NtCs8WYW6vAPwZd_9ryo3_jiff16ry_iso_week_dateNtB5_13RyISOWeekDate6___eq__
FNDA:0,_RNvMsa_NtCs8WYW6vAPwZd_9ryo3_jiff16ry_iso_week_dateNtB5_13RyISOWeekDate6___ge__
FNDA:0,_RNvMsa_NtCs8WYW6vAPwZd_9ryo3_jiff16ry_iso_week_dateNtB5_13RyISOWeekDate6___gt__
FNDA:0,_RNvMsa_NtCs8WYW6vAPwZd_9ryo3_jiff16ry_iso_week_dateNtB5_13RyISOWeekDate6___le__
FNDA:0,_RNvMsa_NtCs8WYW6vAPwZd_9ryo3_jiff16ry_iso_week_dateNtB5_13RyISOWeekDate6___lt__
FNDA:1,_RNvMsa_NtCs8WYW6vAPwZd_9ryo3_jiff16ry_iso_week_dateNtB5_13RyISOWeekDate6___ne__
FNDA:16,_RNvMsa_NtCs8WYW6vAPwZd_9ryo3_jiff16ry_iso_week_dateNtB5_13RyISOWeekDate6py_new
FNDA:4,_RNvMsa_NtCs8WYW6vAPwZd_9ryo3_jiff16ry_iso_week_dateNtB5_13RyISOWeekDate7weekday
FNDA:4,_RNvMsa_NtCs8WYW6vAPwZd_9ryo3_jiff16ry_iso_week_dateNtB5_13RyISOWeekDate8___hash__
FNDA:1,_RNvMsa_NtCs8WYW6vAPwZd_9ryo3_jiff16ry_iso_week_dateNtB5_13RyISOWeekDate8___repr__
FNDA:1,_RNvMsa_NtCs8WYW6vAPwZd_9ryo3_jiff16ry_iso_week_dateNtB5_13RyISOWeekDate9from_date
FNDA:0,_RNvMso_NtCs8WYW6vAPwZd_9ryo3_jiff16ry_iso_week_dateNtB5_13RyISOWeekDate17___pymethod_date__
FNDA:0,_RNvMso_NtCs8WYW6vAPwZd_9ryo3_jiff16ry_iso_week_dateNtB5_13RyISOWeekDate21___pymethod___hash____
FNDA:0,_RNvMso_NtCs8WYW6vAPwZd_9ryo3_jiff16ry_iso_week_dateNtB5_13RyISOWeekDate21___pymethod___repr____
FNDA:0,_RNvMso_NtCs8WYW6vAPwZd_9ryo3_jiff16ry_iso_week_dateNtB5_13RyISOWeekDate21___pymethod_get_week__
FNDA:0,_RNvMso_NtCs8WYW6vAPwZd_9ryo3_jiff16ry_iso_week_dateNtB5_13RyISOWeekDate21___pymethod_get_year__
FNDA:0,_RNvMso_NtCs8WYW6vAPwZd_9ryo3_jiff16ry_iso_week_dateNtB5_13RyISOWeekDate24___pymethod_get_weekday__
FNDA:0,_RNvMso_NtCs8WYW6vAPwZd_9ryo3_jiff16ry_iso_week_dateNtB5_13RyISOWeekDate27___pymethod___getnewargs____
FNDA:22,_RNvXNtCs8WYW6vAPwZd_9ryo3_jiff16ry_iso_week_dateNtB2_13RyISOWeekDateINtNtCs66KPHxksi63_4core7convert4FromNtNtNtCs3tnJ9lKo9L6_4jiff5civil13iso_week_date11ISOWeekDateE4from
FNF:21
FNH:15
DA:13,0
DA:16,16
DA:17,16
DA:18,16
DA:19,16
DA:20,16
DA:22,2
DA:23,2
DA:24,2
DA:25,2
DA:26,2
DA:27,2
DA:28,2
DA:31,2
DA:40,8
DA:41,8
DA:42,8
DA:47,8
DA:48,8
DA:49,8
DA:54,8
DA:55,8
DA:56,8
DA:64,1
DA:65,1
DA:66,1
DA:70,0
DA:71,0
DA:72,0
DA:73,0
DA:81,4
DA:82,4
DA:83,4
DA:87,4
DA:88,4
DA:89,4
DA:93,4
DA:94,4
DA:95,4
DA:101,1
DA:102,1
DA:103,1
DA:105,1
DA:106,1
DA:107,1
DA:108,1
DA:109,1
DA:110,1
DA:112,1
DA:118,8
DA:119,8
DA:120,8
DA:122,1
DA:123,1
DA:124,1
DA:126,0
DA:127,0
DA:128,0
DA:130,0
DA:131,0
DA:132,0
DA:134,0
DA:135,0
DA:136,0
DA:138,0
DA:139,0
DA:140,0
DA:142,4
DA:143,4
DA:144,4
DA:145,4
DA:146,4
DA:150,22
DA:151,22
DA:152,22
BRF:0
BRH:0
LF:75
LH:58
end_of_record
SF:/home/jesse/ry/crates/ryo3-jiff/src/ry_offset.rs
FN:78,_RNvMsb_NtCs8WYW6vAPwZd_9ryo3_jiff9ry_offsetNtB5_8RyOffset10from_hours
FN:195,_RNvMsb_NtCs8WYW6vAPwZd_9ryo3_jiff9ry_offsetNtB5_8RyOffset11___richcmp__
FN:143,_RNvMsb_NtCs8WYW6vAPwZd_9ryo3_jiff9ry_offsetNtB5_8RyOffset11is_negative
FN:149,_RNvMsb_NtCs8WYW6vAPwZd_9ryo3_jiff9ry_offsetNtB5_8RyOffset11is_positive
FN:154,_RNvMsb_NtCs8WYW6vAPwZd_9ryo3_jiff9ry_offsetNtB5_8RyOffset11to_datetime
FN:95,_RNvMsb_NtCs8WYW6vAPwZd_9ryo3_jiff9ry_offsetNtB5_8RyOffset11to_pytzinfo
FN:229,_RNvMsb_NtCs8WYW6vAPwZd_9ryo3_jiff9ry_offsetNtB5_8RyOffset11to_timezone
FN:85,_RNvMsb_NtCs8WYW6vAPwZd_9ryo3_jiff9ry_offsetNtB5_8RyOffset12from_seconds
FN:158,_RNvMsb_NtCs8WYW6vAPwZd_9ryo3_jiff9ry_offsetNtB5_8RyOffset12to_timestamp
FN:101,_RNvMsb_NtCs8WYW6vAPwZd_9ryo3_jiff9ry_offsetNtB5_8RyOffset13from_pytzinfo
FN:38,_RNvMsb_NtCs8WYW6vAPwZd_9ryo3_jiff9ry_offsetNtB5_8RyOffset14___getnewargs__
FN:184,_RNvMsb_NtCs8WYW6vAPwZd_9ryo3_jiff9ry_offsetNtB5_8RyOffset14duration_since
FN:178,_RNvMsb_NtCs8WYW6vAPwZd_9ryo3_jiff9ry_offsetNtB5_8RyOffset14duration_until
FN:233,_RNvMsb_NtCs8WYW6vAPwZd_9ryo3_jiff9ry_offsetNtB5_8RyOffset14saturating_add
FN:238,_RNvMsb_NtCs8WYW6vAPwZd_9ryo3_jiff9ry_offsetNtB5_8RyOffset14saturating_sub
FN:56,_RNvMsb_NtCs8WYW6vAPwZd_9ryo3_jiff9ry_offsetNtB5_8RyOffset3MAX
FN:50,_RNvMsb_NtCs8WYW6vAPwZd_9ryo3_jiff9ry_offsetNtB5_8RyOffset3MIN
FN:68,_RNvMsb_NtCs8WYW6vAPwZd_9ryo3_jiff9ry_offsetNtB5_8RyOffset3UTC
FN:221,_RNvMsb_NtCs8WYW6vAPwZd_9ryo3_jiff9ry_offsetNtB5_8RyOffset3add
FN:225,_RNvMsb_NtCs8WYW6vAPwZd_9ryo3_jiff9ry_offsetNtB5_8RyOffset3sub
FN:73,_RNvMsb_NtCs8WYW6vAPwZd_9ryo3_jiff9ry_offsetNtB5_8RyOffset3utc
FN:62,_RNvMsb_NtCs8WYW6vAPwZd_9ryo3_jiff9ry_offsetNtB5_8RyOffset4ZERO
FN:172,_RNvMsb_NtCs8WYW6vAPwZd_9ryo3_jiff9ry_offsetNtB5_8RyOffset5since
FN:91,_RNvMsb_NtCs8WYW6vAPwZd_9ryo3_jiff9ry_offsetNtB5_8RyOffset5to_py
FN:166,_RNvMsb_NtCs8WYW6vAPwZd_9ryo3_jiff9ry_offsetNtB5_8RyOffset5until
FN:133,_RNvMsb_NtCs8WYW6vAPwZd_9ryo3_jiff9ry_offsetNtB5_8RyOffset6negate
FN:24,_RNvMsb_NtCs8WYW6vAPwZd_9ryo3_jiff9ry_offsetNtB5_8RyOffset6py_new
FN:106,_RNvMsb_NtCs8WYW6vAPwZd_9ryo3_jiff9ry_offsetNtB5_8RyOffset6string
FN:205,_RNvMsb_NtCs8WYW6vAPwZd_9ryo3_jiff9ry_offsetNtB5_8RyOffset7___add__
FN:137,_RNvMsb_NtCs8WYW6vAPwZd_9ryo3_jiff9ry_offsetNtB5_8RyOffset7___neg__
FN:111,_RNvMsb_NtCs8WYW6vAPwZd_9ryo3_jiff9ry_offsetNtB5_8RyOffset7___str__
FN:213,_RNvMsb_NtCs8WYW6vAPwZd_9ryo3_jiff9ry_offsetNtB5_8RyOffset7___sub__
FN:128,_RNvMsb_NtCs8WYW6vAPwZd_9ryo3_jiff9ry_offsetNtB5_8RyOffset7seconds
FN:189,_RNvMsb_NtCs8WYW6vAPwZd_9ryo3_jiff9ry_offsetNtB5_8RyOffset8___hash__
FN:116,_RNvMsb_NtCs8WYW6vAPwZd_9ryo3_jiff9ry_offsetNtB5_8RyOffset8___repr__
FN:20,_RNvMsh_NtCs8WYW6vAPwZd_9ryo3_jiff9ry_offsetNtB5_8RyOffset18___pymethod_to_py__
FN:20,_RNvMsh_NtCs8WYW6vAPwZd_9ryo3_jiff9ry_offsetNtB5_8RyOffset19___pymethod_negate__
FN:20,_RNvMsh_NtCs8WYW6vAPwZd_9ryo3_jiff9ry_offsetNtB5_8RyOffset19___pymethod_string__
FN:20,_RNvMsh_NtCs8WYW6vAPwZd_9ryo3_jiff9ry_offsetNtB5_8RyOffset20___pymethod___neg____
FN:20,_RNvMsh_NtCs8WYW6vAPwZd_9ryo3_jiff9ry_offsetNtB5_8RyOffset20___pymethod___str____
FN:20,_RNvMsh_NtCs8WYW6vAPwZd_9ryo3_jiff9ry_offsetNtB5_8RyOffset21___pymethod___hash____
FN:20,_RNvMsh_NtCs8WYW6vAPwZd_9ryo3_jiff9ry_offsetNtB5_8RyOffset21___pymethod___repr____
FN:20,_RNvMsh_NtCs8WYW6vAPwZd_9ryo3_jiff9ry_offsetNtB5_8RyOffset24___pymethod_get_seconds__
FN:20,_RNvMsh_NtCs8WYW6vAPwZd_9ryo3_jiff9ry_offsetNtB5_8RyOffset24___pymethod_to_pytzinfo__
FN:20,_RNvMsh_NtCs8WYW6vAPwZd_9ryo3_jiff9ry_offsetNtB5_8RyOffset24___pymethod_to_timezone__
FN:20,_RNvMsh_NtCs8WYW6vAPwZd_9ryo3_jiff9ry_offsetNtB5_8RyOffset27___pymethod___getnewargs____
FN:20,_RNvMsh_NtCs8WYW6vAPwZd_9ryo3_jiff9ry_offsetNtB5_8RyOffset28___pymethod_get_is_negative__
FN:20,_RNvMsh_NtCs8WYW6vAPwZd_9ryo3_jiff9ry_offsetNtB5_8RyOffset28___pymethod_get_is_positive__
FN:245,_RNvXNtCs8WYW6vAPwZd_9ryo3_jiff9ry_offsetNtB2_8RyOffsetINtNtCs66KPHxksi63_4core7convert4FromNtNtNtCs3tnJ9lKo9L6_4jiff2tz6offset6OffsetE4from
FN:251,_RNvXs_NtCs8WYW6vAPwZd_9ryo3_jiff9ry_offsetNtB4_8RyOffsetINtNtCs66KPHxksi63_4core7convert4FromNtNtB6_10jiff_types10JiffOffsetE4from
FN:256,_RINvNtCs8WYW6vAPwZd_9ryo3_jiff9ry_offset22print_isoformat_offsetNtNtCs8Ty2CzGA6U3_5alloc6string6StringEB4_
FN:162,_RNCNvMsb_NtCs8WYW6vAPwZd_9ryo3_jiff9ry_offsetNtB7_8RyOffset12to_timestamp0B9_
FN:31,_RNCNvMsb_NtCs8WYW6vAPwZd_9ryo3_jiff9ry_offsetNtB7_8RyOffset6py_new0B9_
FNDA:16,_RNvMsb_NtCs8WYW6vAPwZd_9ryo3_jiff9ry_offsetNtB5_8RyOffset10from_hours
FNDA:29,_RNvMsb_NtCs8WYW6vAPwZd_9ryo3_jiff9ry_offsetNtB5_8RyOffset11___richcmp__
FNDA:2,_RNvMsb_NtCs8WYW6vAPwZd_9ryo3_jiff9ry_offsetNtB5_8RyOffset11is_negative
FNDA:2,_RNvMsb_NtCs8WYW6vAPwZd_9ryo3_jiff9ry_offsetNtB5_8RyOffset11is_positive
FNDA:0,_RNvMsb_NtCs8WYW6vAPwZd_9ryo3_jiff9ry_offsetNtB5_8RyOffset11to_datetime
FNDA:0,_RNvMsb_NtCs8WYW6vAPwZd_9ryo3_jiff9ry_offsetNtB5_8RyOffset11to_pytzinfo
FNDA:1,_RNvMsb_NtCs8WYW6vAPwZd_9ryo3_jiff9ry_offsetNtB5_8RyOffset11to_timezone
FNDA:16,_RNvMsb_NtCs8WYW6vAPwZd_9ryo3_jiff9ry_offsetNtB5_8RyOffset12from_seconds
FNDA:0,_RNvMsb_NtCs8WYW6vAPwZd_9ryo3_jiff9ry_offsetNtB5_8RyOffset12to_timestamp
FNDA:0,_RNvMsb_NtCs8WYW6vAPwZd_9ryo3_jiff9ry_offsetNtB5_8RyOffset13from_pytzinfo
FNDA:2,_RNvMsb_NtCs8WYW6vAPwZd_9ryo3_jiff9ry_offsetNtB5_8RyOffset14___getnewargs__
FNDA:0,_RNvMsb_NtCs8WYW6vAPwZd_9ryo3_jiff9ry_offsetNtB5_8RyOffset14duration_since
FNDA:0,_RNvMsb_NtCs8WYW6vAPwZd_9ryo3_jiff9ry_offsetNtB5_8RyOffset14duration_until
FNDA:3,_RNvMsb_NtCs8WYW6vAPwZd_9ryo3_jiff9ry_offsetNtB5_8RyOffset14saturating_add
FNDA:3,_RNvMsb_NtCs8WYW6vAPwZd_9ryo3_jiff9ry_offsetNtB5_8RyOffset14saturating_sub
FNDA:8,_RNvMsb_NtCs8WYW6vAPwZd_9ryo3_jiff9ry_offsetNtB5_8RyOffset3MAX
FNDA:8,_RNvMsb_NtCs8WYW6vAPwZd_9ryo3_jiff9ry_offsetNtB5_8RyOffset3MIN
FNDA:8,_RNvMsb_NtCs8WYW6vAPwZd_9ryo3_jiff9ry_offsetNtB5_8RyOffset3UTC
FNDA:3,_RNvMsb_NtCs8WYW6vAPwZd_9ryo3_jiff9ry_offsetNtB5_8RyOffset3add
FNDA:3,_RNvMsb_NtCs8WYW6vAPwZd_9ryo3_jiff9ry_offsetNtB5_8RyOffset3sub
FNDA:0,_RNvMsb_NtCs8WYW6vAPwZd_9ryo3_jiff9ry_offsetNtB5_8RyOffset3utc
FNDA:8,_RNvMsb_NtCs8WYW6vAPwZd_9ryo3_jiff9ry_offsetNtB5_8RyOffset4ZERO
FNDA:2,_RNvMsb_NtCs8WYW6vAPwZd_9ryo3_jiff9ry_offsetNtB5_8RyOffset5since
FNDA:0,_RNvMsb_NtCs8WYW6vAPwZd_9ryo3_jiff9ry_offsetNtB5_8RyOffset5to_py
FNDA:2,_RNvMsb_NtCs8WYW6vAPwZd_9ryo3_jiff9ry_offsetNtB5_8RyOffset5until
FNDA:2,_RNvMsb_NtCs8WYW6vAPwZd_9ryo3_jiff9ry_offsetNtB5_8RyOffset6negate
FNDA:18,_RNvMsb_NtCs8WYW6vAPwZd_9ryo3_jiff9ry_offsetNtB5_8RyOffset6py_new
FNDA:0,_RNvMsb_NtCs8WYW6vAPwZd_9ryo3_jiff9ry_offsetNtB5_8RyOffset6string
FNDA:3,_RNvMsb_NtCs8WYW6vAPwZd_9ryo3_jiff9ry_offsetNtB5_8RyOffset7___add__
FNDA:2,_RNvMsb_NtCs8WYW6vAPwZd_9ryo3_jiff9ry_offsetNtB5_8RyOffset7___neg__
FNDA:0,_RNvMsb_NtCs8WYW6vAPwZd_9ryo3_jiff9ry_offsetNtB5_8RyOffset7___str__
FNDA:3,_RNvMsb_NtCs8WYW6vAPwZd_9ryo3_jiff9ry_offsetNtB5_8RyOffset7___sub__
FNDA:2,_RNvMsb_NtCs8WYW6vAPwZd_9ryo3_jiff9ry_offsetNtB5_8RyOffset7seconds
FNDA:0,_RNvMsb_NtCs8WYW6vAPwZd_9ryo3_jiff9ry_offsetNtB5_8RyOffset8___hash__
FNDA:1,_RNvMsb_NtCs8WYW6vAPwZd_9ryo3_jiff9ry_offsetNtB5_8RyOffset8___repr__
FNDA:0,_RNvMsh_NtCs8WYW6vAPwZd_9ryo3_jiff9ry_offsetNtB5_8RyOffset18___pymethod_to_py__
FNDA:0,_RNvMsh_NtCs8WYW6vAPwZd_9ryo3_jiff9ry_offsetNtB5_8RyOffset19___pymethod_negate__
FNDA:0,_RNvMsh_NtCs8WYW6vAPwZd_9ryo3_jiff9ry_offsetNtB5_8RyOffset19___pymethod_string__
FNDA:0,_RNvMsh_NtCs8WYW6vAPwZd_9ryo3_jiff9ry_offsetNtB5_8RyOffset20___pymethod___neg____
FNDA:0,_RNvMsh_NtCs8WYW6vAPwZd_9ryo3_jiff9ry_offsetNtB5_8RyOffset20___pymethod___str____
FNDA:0,_RNvMsh_NtCs8WYW6vAPwZd_9ryo3_jiff9ry_offsetNtB5_8RyOffset21___pymethod___hash____
FNDA:0,_RNvMsh_NtCs8WYW6vAPwZd_9ryo3_jiff9ry_offsetNtB5_8RyOffset21___pymethod___repr____
FNDA:0,_RNvMsh_NtCs8WYW6vAPwZd_9ryo3_jiff9ry_offsetNtB5_8RyOffset24___pymethod_get_seconds__
FNDA:0,_RNvMsh_NtCs8WYW6vAPwZd_9ryo3_jiff9ry_offsetNtB5_8RyOffset24___pymethod_to_pytzinfo__
FNDA:0,_RNvMsh_NtCs8WYW6vAPwZd_9ryo3_jiff9ry_offsetNtB5_8RyOffset24___pymethod_to_timezone__
FNDA:0,_RNvMsh_NtCs8WYW6vAPwZd_9ryo3_jiff9ry_offsetNtB5_8RyOffset27___pymethod___getnewargs____
FNDA:0,_RNvMsh_NtCs8WYW6vAPwZd_9ryo3_jiff9ry_offsetNtB5_8RyOffset28___pymethod_get_is_negative__
FNDA:0,_RNvMsh_NtCs8WYW6vAPwZd_9ryo3_jiff9ry_offsetNtB5_8RyOffset28___pymethod_get_is_positive__
FNDA:94,_RNvXNtCs8WYW6vAPwZd_9ryo3_jiff9ry_offsetNtB2_8RyOffsetINtNtCs66KPHxksi63_4core7convert4FromNtNtNtCs3tnJ9lKo9L6_4jiff2tz6offset6OffsetE4from
FNDA:0,_RNvXs_NtCs8WYW6vAPwZd_9ryo3_jiff9ry_offsetNtB4_8RyOffsetINtNtCs66KPHxksi63_4core7convert4FromNtNtB6_10jiff_types10JiffOffsetE4from
FNDA:300,_RINvNtCs8WYW6vAPwZd_9ryo3_jiff9ry_offset22print_isoformat_offsetNtNtCs8Ty2CzGA6U3_5alloc6string6StringEB4_
FNDA:0,_RNCNvMsb_NtCs8WYW6vAPwZd_9ryo3_jiff9ry_offsetNtB7_8RyOffset12to_timestamp0B9_
FNDA:0,_RNCNvMsb_NtCs8WYW6vAPwZd_9ryo3_jiff9ry_offsetNtB7_8RyOffset6py_new0B9_
FNF:41
FNH:26
DA:20,0
DA:24,18
DA:25,18
DA:26,8
DA:27,8
DA:28,8
DA:29,8
DA:30,8
DA:31,8
DA:32,2
DA:33,2
DA:34,2
DA:36,18
DA:38,2
DA:39,2
DA:40,2
DA:41,2
DA:42,2
DA:43,2
DA:46,2
DA:50,8
DA:51,8
DA:52,8
DA:56,8
DA:57,8
DA:58,8
DA:62,8
DA:63,8
DA:64,8
DA:68,8
DA:69,8
DA:70,8
DA:73,0
DA:74,0
DA:75,0
DA:78,16
DA:79,16
DA:80,16
DA:81,16
DA:82,16
DA:85,16
DA:86,16
DA:87,16
DA:88,16
DA:89,16
DA:91,0
DA:92,0
DA:93,0
DA:95,0
DA:96,0
DA:97,0
DA:101,0
DA:102,0
DA:103,0
DA:106,0
DA:107,0
DA:108,0
DA:111,0
DA:112,0
DA:113,0
DA:116,1
DA:117,1
DA:119,1
DA:120,1
DA:122,0
DA:124,1
DA:128,2
DA:129,2
DA:130,2
DA:133,2
DA:134,2
DA:135,2
DA:137,2
DA:138,2
DA:139,2
DA:143,2
DA:144,2
DA:145,2
DA:149,2
DA:150,2
DA:151,2
DA:154,0
DA:155,0
DA:156,0
DA:158,0
DA:159,0
DA:160,0
DA:161,0
DA:162,0
DA:163,0
DA:166,2
DA:167,2
DA:168,2
DA:169,2
DA:172,2
DA:173,2
DA:174,2
DA:175,2
DA:178,0
DA:179,0
DA:180,0
DA:181,0
DA:184,0
DA:185,0
DA:186,0
DA:187,0
DA:189,0
DA:190,0
DA:191,0
DA:192,0
DA:193,0
DA:195,29
DA:196,29
DA:197,29
DA:198,0
DA:199,0
DA:200,0
DA:201,0
DA:202,0
DA:204,29
DA:205,3
DA:206,3
DA:207,3
DA:208,3
DA:209,3
DA:210,3
DA:211,3
DA:213,3
DA:214,3
DA:215,3
DA:216,3
DA:217,3
DA:218,3
DA:219,3
DA:221,3
DA:222,3
DA:223,3
DA:225,3
DA:226,3
DA:227,3
DA:229,1
DA:230,1
DA:231,1
DA:233,3
DA:234,3
DA:235,3
DA:236,3
DA:238,3
DA:239,3
DA:240,3
DA:241,3
DA:245,94
DA:246,94
DA:247,94
DA:251,0
DA:252,0
DA:253,0
DA:256,300
DA:257,300
DA:258,300
DA:259,300
DA:260,300
DA:261,18
DA:262,282
DA:264,282
DA:265,282
DA:267,282
DA:268,282
DA:269,282
DA:272,282
DA:273,201
DA:275,81
DA:277,300
BRF:0
BRH:0
LF:175
LH:123
end_of_record
SF:/home/jesse/ry/crates/ryo3-jiff/src/ry_signed_duration.rs
FN:134,_RNCNvMsf_NtCs8WYW6vAPwZd_9ryo3_jiff18ry_signed_durationNtB7_16RySignedDuration11to_timespan0B9_
FN:47,_RNCNvMsf_NtCs8WYW6vAPwZd_9ryo3_jiff18ry_signed_durationNtB7_16RySignedDuration6py_new0B9_
FN:225,_RNCNvMsf_NtCs8WYW6vAPwZd_9ryo3_jiff18ry_signed_durationNtB7_16RySignedDuration7___neg__0B9_
FN:96,_RNCNvMsf_NtCs8WYW6vAPwZd_9ryo3_jiff18ry_signed_durationNtB7_16RySignedDuration8from_str0B9_
FN:26,_RNvMNtCs8WYW6vAPwZd_9ryo3_jiff18ry_signed_durationNtB2_16RySignedDuration20py_try_from_secs_f32
FN:32,_RNvMNtCs8WYW6vAPwZd_9ryo3_jiff18ry_signed_durationNtB2_16RySignedDuration20py_try_from_secs_f64
FN:273,_RNvMsf_NtCs8WYW6vAPwZd_9ryo3_jiff18ry_signed_durationNtB5_16RySignedDuration10from_hours
FN:293,_RNvMsf_NtCs8WYW6vAPwZd_9ryo3_jiff18ry_signed_durationNtB5_16RySignedDuration10from_nanos
FN:245,_RNvMsf_NtCs8WYW6vAPwZd_9ryo3_jiff18ry_signed_durationNtB5_16RySignedDuration11___richcmp__
FN:351,_RNvMsf_NtCs8WYW6vAPwZd_9ryo3_jiff18ry_signed_durationNtB5_16RySignedDuration11as_secs_f32
FN:355,_RNvMsf_NtCs8WYW6vAPwZd_9ryo3_jiff18ry_signed_durationNtB5_16RySignedDuration11as_secs_f64
FN:359,_RNvMsf_NtCs8WYW6vAPwZd_9ryo3_jiff18ry_signed_durationNtB5_16RySignedDuration11checked_add
FN:363,_RNvMsf_NtCs8WYW6vAPwZd_9ryo3_jiff18ry_signed_durationNtB5_16RySignedDuration11checked_div
FN:367,_RNvMsf_NtCs8WYW6vAPwZd_9ryo3_jiff18ry_signed_durationNtB5_16RySignedDuration11checked_mul
FN:410,_RNvMsf_NtCs8WYW6vAPwZd_9ryo3_jiff18ry_signed_durationNtB5_16RySignedDuration11checked_neg
FN:371,_RNvMsf_NtCs8WYW6vAPwZd_9ryo3_jiff18ry_signed_durationNtB5_16RySignedDuration11checked_sub
FN:278,_RNvMsf_NtCs8WYW6vAPwZd_9ryo3_jiff18ry_signed_durationNtB5_16RySignedDuration11from_micros
FN:283,_RNvMsf_NtCs8WYW6vAPwZd_9ryo3_jiff18ry_signed_durationNtB5_16RySignedDuration11from_millis
FN:110,_RNvMsf_NtCs8WYW6vAPwZd_9ryo3_jiff18ry_signed_durationNtB5_16RySignedDuration11is_negative
FN:105,_RNvMsf_NtCs8WYW6vAPwZd_9ryo3_jiff18ry_signed_durationNtB5_16RySignedDuration11is_positive
FN:131,_RNvMsf_NtCs8WYW6vAPwZd_9ryo3_jiff18ry_signed_durationNtB5_16RySignedDuration11to_timespan
FN:241,_RNvMsf_NtCs8WYW6vAPwZd_9ryo3_jiff18ry_signed_durationNtB5_16RySignedDuration12microseconds
FN:423,_RNvMsf_NtCs8WYW6vAPwZd_9ryo3_jiff18ry_signed_durationNtB5_16RySignedDuration12subsec_nanos
FN:145,_RNvMsf_NtCs8WYW6vAPwZd_9ryo3_jiff18ry_signed_durationNtB5_16RySignedDuration12unsigned_abs
FN:332,_RNvMsf_NtCs8WYW6vAPwZd_9ryo3_jiff18ry_signed_durationNtB5_16RySignedDuration13as_millis_f32
FN:335,_RNvMsf_NtCs8WYW6vAPwZd_9ryo3_jiff18ry_signed_durationNtB5_16RySignedDuration13as_millis_f64
FN:311,_RNvMsf_NtCs8WYW6vAPwZd_9ryo3_jiff18ry_signed_durationNtB5_16RySignedDuration13from_secs_f32
FN:316,_RNvMsf_NtCs8WYW6vAPwZd_9ryo3_jiff18ry_signed_durationNtB5_16RySignedDuration13from_secs_f64
FN:417,_RNvMsf_NtCs8WYW6vAPwZd_9ryo3_jiff18ry_signed_durationNtB5_16RySignedDuration13subsec_micros
FN:420,_RNvMsf_NtCs8WYW6vAPwZd_9ryo3_jiff18ry_signed_durationNtB5_16RySignedDuration13subsec_millis
FN:54,_RNvMsf_NtCs8WYW6vAPwZd_9ryo3_jiff18ry_signed_durationNtB5_16RySignedDuration14___getnewargs__
FN:399,_RNvMsf_NtCs8WYW6vAPwZd_9ryo3_jiff18ry_signed_durationNtB5_16RySignedDuration14saturating_add
FN:402,_RNvMsf_NtCs8WYW6vAPwZd_9ryo3_jiff18ry_signed_durationNtB5_16RySignedDuration14saturating_mul
FN:406,_RNvMsf_NtCs8WYW6vAPwZd_9ryo3_jiff18ry_signed_durationNtB5_16RySignedDuration14saturating_sub
FN:127,_RNvMsf_NtCs8WYW6vAPwZd_9ryo3_jiff18ry_signed_durationNtB5_16RySignedDuration14to_pytimedelta
FN:375,_RNvMsf_NtCs8WYW6vAPwZd_9ryo3_jiff18ry_signed_durationNtB5_16RySignedDuration16div_duration_f32
FN:379,_RNvMsf_NtCs8WYW6vAPwZd_9ryo3_jiff18ry_signed_durationNtB5_16RySignedDuration16div_duration_f64
FN:119,_RNvMsf_NtCs8WYW6vAPwZd_9ryo3_jiff18ry_signed_durationNtB5_16RySignedDuration16from_pytimedelta
FN:72,_RNvMsf_NtCs8WYW6vAPwZd_9ryo3_jiff18ry_signed_durationNtB5_16RySignedDuration3MAX
FN:66,_RNvMsf_NtCs8WYW6vAPwZd_9ryo3_jiff18ry_signed_durationNtB5_16RySignedDuration3MIN
FN:141,_RNvMsf_NtCs8WYW6vAPwZd_9ryo3_jiff18ry_signed_durationNtB5_16RySignedDuration3abs
FN:78,_RNvMsf_NtCs8WYW6vAPwZd_9ryo3_jiff18ry_signed_durationNtB5_16RySignedDuration4ZERO
FN:231,_RNvMsf_NtCs8WYW6vAPwZd_9ryo3_jiff18ry_signed_durationNtB5_16RySignedDuration4days
FN:83,_RNvMsf_NtCs8WYW6vAPwZd_9ryo3_jiff18ry_signed_durationNtB5_16RySignedDuration4secs
FN:88,_RNvMsf_NtCs8WYW6vAPwZd_9ryo3_jiff18ry_signed_durationNtB5_16RySignedDuration5nanos
FN:100,_RNvMsf_NtCs8WYW6vAPwZd_9ryo3_jiff18ry_signed_durationNtB5_16RySignedDuration5parse
FN:123,_RNvMsf_NtCs8WYW6vAPwZd_9ryo3_jiff18ry_signed_durationNtB5_16RySignedDuration5to_py
FN:43,_RNvMsf_NtCs8WYW6vAPwZd_9ryo3_jiff18ry_signed_durationNtB5_16RySignedDuration6py_new
FN:414,_RNvMsf_NtCs8WYW6vAPwZd_9ryo3_jiff18ry_signed_durationNtB5_16RySignedDuration6signum
FN:150,_RNvMsf_NtCs8WYW6vAPwZd_9ryo3_jiff18ry_signed_durationNtB5_16RySignedDuration6string
FN:137,_RNvMsf_NtCs8WYW6vAPwZd_9ryo3_jiff18ry_signed_durationNtB5_16RySignedDuration7___abs__
FN:188,_RNvMsf_NtCs8WYW6vAPwZd_9ryo3_jiff18ry_signed_durationNtB5_16RySignedDuration7___add__
FN:216,_RNvMsf_NtCs8WYW6vAPwZd_9ryo3_jiff18ry_signed_durationNtB5_16RySignedDuration7___div__
FN:166,_RNvMsf_NtCs8WYW6vAPwZd_9ryo3_jiff18ry_signed_durationNtB5_16RySignedDuration7___int__
FN:204,_RNvMsf_NtCs8WYW6vAPwZd_9ryo3_jiff18ry_signed_durationNtB5_16RySignedDuration7___mul__
FN:224,_RNvMsf_NtCs8WYW6vAPwZd_9ryo3_jiff18ry_signed_durationNtB5_16RySignedDuration7___neg__
FN:196,_RNvMsf_NtCs8WYW6vAPwZd_9ryo3_jiff18ry_signed_durationNtB5_16RySignedDuration7___sub__
FN:339,_RNvMsf_NtCs8WYW6vAPwZd_9ryo3_jiff18ry_signed_durationNtB5_16RySignedDuration7as_mins
FN:347,_RNvMsf_NtCs8WYW6vAPwZd_9ryo3_jiff18ry_signed_durationNtB5_16RySignedDuration7as_secs
FN:383,_RNvMsf_NtCs8WYW6vAPwZd_9ryo3_jiff18ry_signed_durationNtB5_16RySignedDuration7div_f32
FN:388,_RNvMsf_NtCs8WYW6vAPwZd_9ryo3_jiff18ry_signed_durationNtB5_16RySignedDuration7div_f64
FN:114,_RNvMsf_NtCs8WYW6vAPwZd_9ryo3_jiff18ry_signed_durationNtB5_16RySignedDuration7is_zero
FN:393,_RNvMsf_NtCs8WYW6vAPwZd_9ryo3_jiff18ry_signed_durationNtB5_16RySignedDuration7mul_f32
FN:396,_RNvMsf_NtCs8WYW6vAPwZd_9ryo3_jiff18ry_signed_durationNtB5_16RySignedDuration7mul_f64
FN:236,_RNvMsf_NtCs8WYW6vAPwZd_9ryo3_jiff18ry_signed_durationNtB5_16RySignedDuration7seconds
FN:170,_RNvMsf_NtCs8WYW6vAPwZd_9ryo3_jiff18ry_signed_durationNtB5_16RySignedDuration8___bool__
FN:182,_RNvMsf_NtCs8WYW6vAPwZd_9ryo3_jiff18ry_signed_durationNtB5_16RySignedDuration8___hash__
FN:174,_RNvMsf_NtCs8WYW6vAPwZd_9ryo3_jiff18ry_signed_durationNtB5_16RySignedDuration8___repr__
FN:212,_RNvMsf_NtCs8WYW6vAPwZd_9ryo3_jiff18ry_signed_durationNtB5_16RySignedDuration8___rmul__
FN:323,_RNvMsf_NtCs8WYW6vAPwZd_9ryo3_jiff18ry_signed_durationNtB5_16RySignedDuration8as_hours
FN:343,_RNvMsf_NtCs8WYW6vAPwZd_9ryo3_jiff18ry_signed_durationNtB5_16RySignedDuration8as_nanos
FN:158,_RNvMsf_NtCs8WYW6vAPwZd_9ryo3_jiff18ry_signed_durationNtB5_16RySignedDuration8friendly
FN:93,_RNvMsf_NtCs8WYW6vAPwZd_9ryo3_jiff18ry_signed_durationNtB5_16RySignedDuration8from_str
FN:162,_RNvMsf_NtCs8WYW6vAPwZd_9ryo3_jiff18ry_signed_durationNtB5_16RySignedDuration9___float__
FN:326,_RNvMsf_NtCs8WYW6vAPwZd_9ryo3_jiff18ry_signed_durationNtB5_16RySignedDuration9as_micros
FN:329,_RNvMsf_NtCs8WYW6vAPwZd_9ryo3_jiff18ry_signed_durationNtB5_16RySignedDuration9as_millis
FN:288,_RNvMsf_NtCs8WYW6vAPwZd_9ryo3_jiff18ry_signed_durationNtB5_16RySignedDuration9from_mins
FN:298,_RNvMsf_NtCs8WYW6vAPwZd_9ryo3_jiff18ry_signed_durationNtB5_16RySignedDuration9from_secs
FN:39,_RNvMsp_NtCs8WYW6vAPwZd_9ryo3_jiff18ry_signed_durationNtB5_16RySignedDuration16___pymethod_abs__
FN:39,_RNvMsp_NtCs8WYW6vAPwZd_9ryo3_jiff18ry_signed_durationNtB5_16RySignedDuration18___pymethod_to_py__
FN:39,_RNvMsp_NtCs8WYW6vAPwZd_9ryo3_jiff18ry_signed_durationNtB5_16RySignedDuration19___pymethod_signum__
FN:39,_RNvMsp_NtCs8WYW6vAPwZd_9ryo3_jiff18ry_signed_durationNtB5_16RySignedDuration20___pymethod___abs____
FN:39,_RNvMsp_NtCs8WYW6vAPwZd_9ryo3_jiff18ry_signed_durationNtB5_16RySignedDuration20___pymethod___int____
FN:39,_RNvMsp_NtCs8WYW6vAPwZd_9ryo3_jiff18ry_signed_durationNtB5_16RySignedDuration20___pymethod___neg____
FN:39,_RNvMsp_NtCs8WYW6vAPwZd_9ryo3_jiff18ry_signed_durationNtB5_16RySignedDuration20___pymethod_as_mins__
FN:39,_RNvMsp_NtCs8WYW6vAPwZd_9ryo3_jiff18ry_signed_durationNtB5_16RySignedDuration20___pymethod_as_secs__
FN:39,_RNvMsp_NtCs8WYW6vAPwZd_9ryo3_jiff18ry_signed_durationNtB5_16RySignedDuration21___pymethod___bool____
FN:39,_RNvMsp_NtCs8WYW6vAPwZd_9ryo3_jiff18ry_signed_durationNtB5_16RySignedDuration21___pymethod___hash____
FN:39,_RNvMsp_NtCs8WYW6vAPwZd_9ryo3_jiff18ry_signed_durationNtB5_16RySignedDuration21___pymethod___repr____
FN:39,_RNvMsp_NtCs8WYW6vAPwZd_9ryo3_jiff18ry_signed_durationNtB5_16RySignedDuration21___pymethod_as_hours__
FN:39,_RNvMsp_NtCs8WYW6vAPwZd_9ryo3_jiff18ry_signed_durationNtB5_16RySignedDuration21___pymethod_as_nanos__
FN:39,_RNvMsp_NtCs8WYW6vAPwZd_9ryo3_jiff18ry_signed_durationNtB5_16RySignedDuration21___pymethod_friendly__
FN:39,_RNvMsp_NtCs8WYW6vAPwZd_9ryo3_jiff18ry_signed_durationNtB5_16RySignedDuration21___pymethod_get_days__
FN:39,_RNvMsp_NtCs8WYW6vAPwZd_9ryo3_jiff18ry_signed_durationNtB5_16RySignedDuration21___pymethod_get_secs__
FN:39,_RNvMsp_NtCs8WYW6vAPwZd_9ryo3_jiff18ry_signed_durationNtB5_16RySignedDuration22___pymethod___float____
FN:39,_RNvMsp_NtCs8WYW6vAPwZd_9ryo3_jiff18ry_signed_durationNtB5_16RySignedDuration22___pymethod_as_micros__
FN:39,_RNvMsp_NtCs8WYW6vAPwZd_9ryo3_jiff18ry_signed_durationNtB5_16RySignedDuration22___pymethod_as_millis__
FN:39,_RNvMsp_NtCs8WYW6vAPwZd_9ryo3_jiff18ry_signed_durationNtB5_16RySignedDuration22___pymethod_get_nanos__
FN:39,_RNvMsp_NtCs8WYW6vAPwZd_9ryo3_jiff18ry_signed_durationNtB5_16RySignedDuration24___pymethod_as_secs_f32__
FN:39,_RNvMsp_NtCs8WYW6vAPwZd_9ryo3_jiff18ry_signed_durationNtB5_16RySignedDuration24___pymethod_as_secs_f64__
FN:39,_RNvMsp_NtCs8WYW6vAPwZd_9ryo3_jiff18ry_signed_durationNtB5_16RySignedDuration24___pymethod_checked_neg__
FN:39,_RNvMsp_NtCs8WYW6vAPwZd_9ryo3_jiff18ry_signed_durationNtB5_16RySignedDuration24___pymethod_get_is_zero__
FN:39,_RNvMsp_NtCs8WYW6vAPwZd_9ryo3_jiff18ry_signed_durationNtB5_16RySignedDuration24___pymethod_get_seconds__
FN:39,_RNvMsp_NtCs8WYW6vAPwZd_9ryo3_jiff18ry_signed_durationNtB5_16RySignedDuration24___pymethod_to_timespan__
FN:39,_RNvMsp_NtCs8WYW6vAPwZd_9ryo3_jiff18ry_signed_durationNtB5_16RySignedDuration25___pymethod_subsec_nanos__
FN:39,_RNvMsp_NtCs8WYW6vAPwZd_9ryo3_jiff18ry_signed_durationNtB5_16RySignedDuration25___pymethod_unsigned_abs__
FN:39,_RNvMsp_NtCs8WYW6vAPwZd_9ryo3_jiff18ry_signed_durationNtB5_16RySignedDuration26___pymethod_as_millis_f32__
FN:39,_RNvMsp_NtCs8WYW6vAPwZd_9ryo3_jiff18ry_signed_durationNtB5_16RySignedDuration26___pymethod_as_millis_f64__
FN:39,_RNvMsp_NtCs8WYW6vAPwZd_9ryo3_jiff18ry_signed_durationNtB5_16RySignedDuration26___pymethod_subsec_micros__
FN:39,_RNvMsp_NtCs8WYW6vAPwZd_9ryo3_jiff18ry_signed_durationNtB5_16RySignedDuration26___pymethod_subsec_millis__
FN:39,_RNvMsp_NtCs8WYW6vAPwZd_9ryo3_jiff18ry_signed_durationNtB5_16RySignedDuration27___pymethod___getnewargs____
FN:39,_RNvMsp_NtCs8WYW6vAPwZd_9ryo3_jiff18ry_signed_durationNtB5_16RySignedDuration27___pymethod_to_pytimedelta__
FN:39,_RNvMsp_NtCs8WYW6vAPwZd_9ryo3_jiff18ry_signed_durationNtB5_16RySignedDuration28___pymethod_get_is_negative__
FN:39,_RNvMsp_NtCs8WYW6vAPwZd_9ryo3_jiff18ry_signed_durationNtB5_16RySignedDuration28___pymethod_get_is_positive__
FN:39,_RNvMsp_NtCs8WYW6vAPwZd_9ryo3_jiff18ry_signed_durationNtB5_16RySignedDuration29___pymethod_get_microseconds__
FN:435,_RNvXs0_NtCs8WYW6vAPwZd_9ryo3_jiff18ry_signed_durationNtB5_16RySignedDurationINtNtCs66KPHxksi63_4core7convert4FromNtNtB7_10jiff_types18JiffSignedDurationE4from
FN:429,_RNvXs_NtCs8WYW6vAPwZd_9ryo3_jiff18ry_signed_durationNtB4_16RySignedDurationINtNtCs66KPHxksi63_4core7convert4FromNtNtCs3tnJ9lKo9L6_4jiff15signed_duration14SignedDurationE4from
FNDA:0,_RNCNvMsf_NtCs8WYW6vAPwZd_9ryo3_jiff18ry_signed_durationNtB7_16RySignedDuration11to_timespan0B9_
FNDA:2,_RNCNvMsf_NtCs8WYW6vAPwZd_9ryo3_jiff18ry_signed_durationNtB7_16RySignedDuration6py_new0B9_
FNDA:0,_RNCNvMsf_NtCs8WYW6vAPwZd_9ryo3_jiff18ry_signed_durationNtB7_16RySignedDuration7___neg__0B9_
FNDA:0,_RNCNvMsf_NtCs8WYW6vAPwZd_9ryo3_jiff18ry_signed_durationNtB7_16RySignedDuration8from_str0B9_
FNDA:0,_RNvMNtCs8WYW6vAPwZd_9ryo3_jiff18ry_signed_durationNtB2_16RySignedDuration20py_try_from_secs_f32
FNDA:0,_RNvMNtCs8WYW6vAPwZd_9ryo3_jiff18ry_signed_durationNtB2_16RySignedDuration20py_try_from_secs_f64
FNDA:0,_RNvMsf_NtCs8WYW6vAPwZd_9ryo3_jiff18ry_signed_durationNtB5_16RySignedDuration10from_hours
FNDA:0,_RNvMsf_NtCs8WYW6vAPwZd_9ryo3_jiff18ry_signed_durationNtB5_16RySignedDuration10from_nanos
FNDA:319,_RNvMsf_NtCs8WYW6vAPwZd_9ryo3_jiff18ry_signed_durationNtB5_16RySignedDuration11___richcmp__
FNDA:0,_RNvMsf_NtCs8WYW6vAPwZd_9ryo3_jiff18ry_signed_durationNtB5_16RySignedDuration11as_secs_f32
FNDA:0,_RNvMsf_NtCs8WYW6vAPwZd_9ryo3_jiff18ry_signed_durationNtB5_16RySignedDuration11as_secs_f64
FNDA:0,_RNvMsf_NtCs8WYW6vAPwZd_9ryo3_jiff18ry_signed_durationNtB5_16RySignedDuration11checked_add
FNDA:0,_RNvMsf_NtCs8WYW6vAPwZd_9ryo3_jiff18ry_signed_durationNtB5_16RySignedDuration11checked_div
FNDA:0,_RNvMsf_NtCs8WYW6vAPwZd_9ryo3_jiff18ry_signed_durationNtB5_16RySignedDuration11checked_mul
FNDA:0,_RNvMsf_NtCs8WYW6vAPwZd_9ryo3_jiff18ry_signed_durationNtB5_16RySignedDuration11checked_neg
FNDA:0,_RNvMsf_NtCs8WYW6vAPwZd_9ryo3_jiff18ry_signed_durationNtB5_16RySignedDuration11checked_sub
FNDA:0,_RNvMsf_NtCs8WYW6vAPwZd_9ryo3_jiff18ry_signed_durationNtB5_16RySignedDuration11from_micros
FNDA:0,_RNvMsf_NtCs8WYW6vAPwZd_9ryo3_jiff18ry_signed_durationNtB5_16RySignedDuration11from_millis
FNDA:0,_RNvMsf_NtCs8WYW6vAPwZd_9ryo3_jiff18ry_signed_durationNtB5_16RySignedDuration11is_negative
FNDA:0,_RNvMsf_NtCs8WYW6vAPwZd_9ryo3_jiff18ry_signed_durationNtB5_16RySignedDuration11is_positive
FNDA:0,_RNvMsf_NtCs8WYW6vAPwZd_9ryo3_jiff18ry_signed_durationNtB5_16RySignedDuration11to_timespan
FNDA:1,_RNvMsf_NtCs8WYW6vAPwZd_9ryo3_jiff18ry_signed_durationNtB5_16RySignedDuration12microseconds
FNDA:0,_RNvMsf_NtCs8WYW6vAPwZd_9ryo3_jiff18ry_signed_durationNtB5_16RySignedDuration12subsec_nanos
FNDA:1,_RNvMsf_NtCs8WYW6vAPwZd_9ryo3_jiff18ry_signed_durationNtB5_16RySignedDuration12unsigned_abs
FNDA:0,_RNvMsf_NtCs8WYW6vAPwZd_9ryo3_jiff18ry_signed_durationNtB5_16RySignedDuration13as_millis_f32
FNDA:0,_RNvMsf_NtCs8WYW6vAPwZd_9ryo3_jiff18ry_signed_durationNtB5_16RySignedDuration13as_millis_f64
FNDA:0,_RNvMsf_NtCs8WYW6vAPwZd_9ryo3_jiff18ry_signed_durationNtB5_16RySignedDuration13from_secs_f32
FNDA:0,_RNvMsf_NtCs8WYW6vAPwZd_9ryo3_jiff18ry_signed_durationNtB5_16RySignedDuration13from_secs_f64
FNDA:0,_RNvMsf_NtCs8WYW6vAPwZd_9ryo3_jiff18ry_signed_durationNtB5_16RySignedDuration13subsec_micros
FNDA:0,_RNvMsf_NtCs8WYW6vAPwZd_9ryo3_jiff18ry_signed_durationNtB5_16RySignedDuration13subsec_millis
FNDA:2,_RNvMsf_NtCs8WYW6vAPwZd_9ryo3_jiff18ry_signed_durationNtB5_16RySignedDuration14___getnewargs__
FNDA:0,_RNvMsf_NtCs8WYW6vAPwZd_9ryo3_jiff18ry_signed_durationNtB5_16RySignedDuration14saturating_add
FNDA:0,_RNvMsf_NtCs8WYW6vAPwZd_9ryo3_jiff18ry_signed_durationNtB5_16RySignedDuration14saturating_mul
FNDA:0,_RNvMsf_NtCs8WYW6vAPwZd_9ryo3_jiff18ry_signed_durationNtB5_16RySignedDuration14saturating_sub
FNDA:201,_RNvMsf_NtCs8WYW6vAPwZd_9ryo3_jiff18ry_signed_durationNtB5_16RySignedDuration14to_pytimedelta
FNDA:0,_RNvMsf_NtCs8WYW6vAPwZd_9ryo3_jiff18ry_signed_durationNtB5_16RySignedDuration16div_duration_f32
FNDA:0,_RNvMsf_NtCs8WYW6vAPwZd_9ryo3_jiff18ry_signed_durationNtB5_16RySignedDuration16div_duration_f64
FNDA:204,_RNvMsf_NtCs8WYW6vAPwZd_9ryo3_jiff18ry_signed_durationNtB5_16RySignedDuration16from_pytimedelta
FNDA:8,_RNvMsf_NtCs8WYW6vAPwZd_9ryo3_jiff18ry_signed_durationNtB5_16RySignedDuration3MAX
FNDA:8,_RNvMsf_NtCs8WYW6vAPwZd_9ryo3_jiff18ry_signed_durationNtB5_16RySignedDuration3MIN
FNDA:1,_RNvMsf_NtCs8WYW6vAPwZd_9ryo3_jiff18ry_signed_durationNtB5_16RySignedDuration3abs
FNDA:8,_RNvMsf_NtCs8WYW6vAPwZd_9ryo3_jiff18ry_signed_durationNtB5_16RySignedDuration4ZERO
FNDA:1,_RNvMsf_NtCs8WYW6vAPwZd_9ryo3_jiff18ry_signed_durationNtB5_16RySignedDuration4days
FNDA:102,_RNvMsf_NtCs8WYW6vAPwZd_9ryo3_jiff18ry_signed_durationNtB5_16RySignedDuration4secs
FNDA:102,_RNvMsf_NtCs8WYW6vAPwZd_9ryo3_jiff18ry_signed_durationNtB5_16RySignedDuration5nanos
FNDA:3,_RNvMsf_NtCs8WYW6vAPwZd_9ryo3_jiff18ry_signed_durationNtB5_16RySignedDuration5parse
FNDA:0,_RNvMsf_NtCs8WYW6vAPwZd_9ryo3_jiff18ry_signed_durationNtB5_16RySignedDuration5to_py
FNDA:1261,_RNvMsf_NtCs8WYW6vAPwZd_9ryo3_jiff18ry_signed_durationNtB5_16RySignedDuration6py_new
FNDA:0,_RNvMsf_NtCs8WYW6vAPwZd_9ryo3_jiff18ry_signed_durationNtB5_16RySignedDuration6signum
FNDA:104,_RNvMsf_NtCs8WYW6vAPwZd_9ryo3_jiff18ry_signed_durationNtB5_16RySignedDuration6string
FNDA:2,_RNvMsf_NtCs8WYW6vAPwZd_9ryo3_jiff18ry_signed_durationNtB5_16RySignedDuration7___abs__
FNDA:500,_RNvMsf_NtCs8WYW6vAPwZd_9ryo3_jiff18ry_signed_durationNtB5_16RySignedDuration7___add__
FNDA:0,_RNvMsf_NtCs8WYW6vAPwZd_9ryo3_jiff18ry_signed_durationNtB5_16RySignedDuration7___div__
FNDA:0,_RNvMsf_NtCs8WYW6vAPwZd_9ryo3_jiff18ry_signed_durationNtB5_16RySignedDuration7___int__
FNDA:0,_RNvMsf_NtCs8WYW6vAPwZd_9ryo3_jiff18ry_signed_durationNtB5_16RySignedDuration7___mul__
FNDA:343,_RNvMsf_NtCs8WYW6vAPwZd_9ryo3_jiff18ry_signed_durationNtB5_16RySignedDuration7___neg__
FNDA:0,_RNvMsf_NtCs8WYW6vAPwZd_9ryo3_jiff18ry_signed_durationNtB5_16RySignedDuration7___sub__
FNDA:0,_RNvMsf_NtCs8WYW6vAPwZd_9ryo3_jiff18ry_signed_durationNtB5_16RySignedDuration7as_mins
FNDA:0,_RNvMsf_NtCs8WYW6vAPwZd_9ryo3_jiff18ry_signed_durationNtB5_16RySignedDuration7as_secs
FNDA:0,_RNvMsf_NtCs8WYW6vAPwZd_9ryo3_jiff18ry_signed_durationNtB5_16RySignedDuration7div_f32
FNDA:0,_RNvMsf_NtCs8WYW6vAPwZd_9ryo3_jiff18ry_signed_durationNtB5_16RySignedDuration7div_f64
FNDA:100,_RNvMsf_NtCs8WYW6vAPwZd_9ryo3_jiff18ry_signed_durationNtB5_16RySignedDuration7is_zero
FNDA:0,_RNvMsf_NtCs8WYW6vAPwZd_9ryo3_jiff18ry_signed_durationNtB5_16RySignedDuration7mul_f32
FNDA:0,_RNvMsf_NtCs8WYW6vAPwZd_9ryo3_jiff18ry_signed_durationNtB5_16RySignedDuration7mul_f64
FNDA:1,_RNvMsf_NtCs8WYW6vAPwZd_9ryo3_jiff18ry_signed_durationNtB5_16RySignedDuration7seconds
FNDA:0,_RNvMsf_NtCs8WYW6vAPwZd_9ryo3_jiff18ry_signed_durationNtB5_16RySignedDuration8___bool__
FNDA:0,_RNvMsf_NtCs8WYW6vAPwZd_9ryo3_jiff18ry_signed_durationNtB5_16RySignedDuration8___hash__
FNDA:2,_RNvMsf_NtCs8WYW6vAPwZd_9ryo3_jiff18ry_signed_durationNtB5_16RySignedDuration8___repr__
FNDA:0,_RNvMsf_NtCs8WYW6vAPwZd_9ryo3_jiff18ry_signed_durationNtB5_16RySignedDuration8___rmul__
FNDA:0,_RNvMsf_NtCs8WYW6vAPwZd_9ryo3_jiff18ry_signed_durationNtB5_16RySignedDuration8as_hours
FNDA:0,_RNvMsf_NtCs8WYW6vAPwZd_9ryo3_jiff18ry_signed_durationNtB5_16RySignedDuration8as_nanos
FNDA:1,_RNvMsf_NtCs8WYW6vAPwZd_9ryo3_jiff18ry_signed_durationNtB5_16RySignedDuration8friendly
FNDA:4,_RNvMsf_NtCs8WYW6vAPwZd_9ryo3_jiff18ry_signed_durationNtB5_16RySignedDuration8from_str
FNDA:0,_RNvMsf_NtCs8WYW6vAPwZd_9ryo3_jiff18ry_signed_durationNtB5_16RySignedDuration9___float__
FNDA:0,_RNvMsf_NtCs8WYW6vAPwZd_9ryo3_jiff18ry_signed_durationNtB5_16RySignedDuration9as_micros
FNDA:0,_RNvMsf_NtCs8WYW6vAPwZd_9ryo3_jiff18ry_signed_durationNtB5_16RySignedDuration9as_millis
FNDA:0,_RNvMsf_NtCs8WYW6vAPwZd_9ryo3_jiff18ry_signed_durationNtB5_16RySignedDuration9from_mins
FNDA:0,_RNvMsf_NtCs8WYW6vAPwZd_9ryo3_jiff18ry_signed_durationNtB5_16RySignedDuration9from_secs
FNDA:0,_RNvMsp_NtCs8WYW6vAPwZd_9ryo3_jiff18ry_signed_durationNtB5_16RySignedDuration16___pymethod_abs__
FNDA:0,_RNvMsp_NtCs8WYW6vAPwZd_9ryo3_jiff18ry_signed_durationNtB5_16RySignedDuration18___pymethod_to_py__
FNDA:0,_RNvMsp_NtCs8WYW6vAPwZd_9ryo3_jiff18ry_signed_durationNtB5_16RySignedDuration19___pymethod_signum__
FNDA:0,_RNvMsp_NtCs8WYW6vAPwZd_9ryo3_jiff18ry_signed_durationNtB5_16RySignedDuration20___pymethod___abs____
FNDA:0,_RNvMsp_NtCs8WYW6vAPwZd_9ryo3_jiff18ry_signed_durationNtB5_16RySignedDuration20___pymethod___int____
FNDA:0,_RNvMsp_NtCs8WYW6vAPwZd_9ryo3_jiff18ry_signed_durationNtB5_16RySignedDuration20___pymethod___neg____
FNDA:0,_RNvMsp_NtCs8WYW6vAPwZd_9ryo3_jiff18ry_signed_durationNtB5_16RySignedDuration20___pymethod_as_mins__
FNDA:0,_RNvMsp_NtCs8WYW6vAPwZd_9ryo3_jiff18ry_signed_durationNtB5_16RySignedDuration20___pymethod_as_secs__
FNDA:0,_RNvMsp_NtCs8WYW6vAPwZd_9ryo3_jiff18ry_signed_durationNtB5_16RySignedDuration21___pymethod___bool____
FNDA:0,_RNvMsp_NtCs8WYW6vAPwZd_9ryo3_jiff18ry_signed_durationNtB5_16RySignedDuration21___pymethod___hash____
FNDA:0,_RNvMsp_NtCs8WYW6vAPwZd_9ryo3_jiff18ry_signed_durationNtB5_16RySignedDuration21___pymethod___repr____
FNDA:0,_RNvMsp_NtCs8WYW6vAPwZd_9ryo3_jiff18ry_signed_durationNtB5_16RySignedDuration21___pymethod_as_hours__
FNDA:0,_RNvMsp_NtCs8WYW6vAPwZd_9ryo3_jiff18ry_signed_durationNtB5_16RySignedDuration21___pymethod_as_nanos__
FNDA:0,_RNvMsp_NtCs8WYW6vAPwZd_9ryo3_jiff18ry_signed_durationNtB5_16RySignedDuration21___pymethod_friendly__
FNDA:0,_RNvMsp_NtCs8WYW6vAPwZd_9ryo3_jiff18ry_signed_durationNtB5_16RySignedDuration21___pymethod_get_days__
FNDA:0,_RNvMsp_NtCs8WYW6vAPwZd_9ryo3_jiff18ry_signed_durationNtB5_16RySignedDuration21___pymethod_get_secs__
FNDA:0,_RNvMsp_NtCs8WYW6vAPwZd_9ryo3_jiff18ry_signed_durationNtB5_16RySignedDuration22___pymethod___float____
FNDA:0,_RNvMsp_NtCs8WYW6vAPwZd_9ryo3_jiff18ry_signed_durationNtB5_16RySignedDuration22___pymethod_as_micros__
FNDA:0,_RNvMsp_NtCs8WYW6vAPwZd_9ryo3_jiff18ry_signed_durationNtB5_16RySignedDuration22___pymethod_as_millis__
FNDA:0,_RNvMsp_NtCs8WYW6vAPwZd_9ryo3_jiff18ry_signed_durationNtB5_16RySignedDuration22___pymethod_get_nanos__
FNDA:0,_RNvMsp_NtCs8WYW6vAPwZd_9ryo3_jiff18ry_signed_durationNtB5_16RySignedDuration24___pymethod_as_secs_f32__
FNDA:0,_RNvMsp_NtCs8WYW6vAPwZd_9ryo3_jiff18ry_signed_durationNtB5_16RySignedDuration24___pymethod_as_secs_f64__
FNDA:0,_RNvMsp_NtCs8WYW6vAPwZd_9ryo3_jiff18ry_signed_durationNtB5_16RySignedDuration24___pymethod_checked_neg__
FNDA:0,_RNvMsp_NtCs8WYW6vAPwZd_9ryo3_jiff18ry_signed_durationNtB5_16RySignedDuration24___pymethod_get_is_zero__
FNDA:0,_RNvMsp_NtCs8WYW6vAPwZd_9ryo3_jiff18ry_signed_durationNtB5_16RySignedDuration24___pymethod_get_seconds__
FNDA:0,_RNvMsp_NtCs8WYW6vAPwZd_9ryo3_jiff18ry_signed_durationNtB5_16RySignedDuration24___pymethod_to_timespan__
FNDA:0,_RNvMsp_NtCs8WYW6vAPwZd_9ryo3_jiff18ry_signed_durationNtB5_16RySignedDuration25___pymethod_subsec_nanos__
FNDA:0,_RNvMsp_NtCs8WYW6vAPwZd_9ryo3_jiff18ry_signed_durationNtB5_16RySignedDuration25___pymethod_unsigned_abs__
FNDA:0,_RNvMsp_NtCs8WYW6vAPwZd_9ryo3_jiff18ry_signed_durationNtB5_16RySignedDuration26___pymethod_as_millis_f32__
FNDA:0,_RNvMsp_NtCs8WYW6vAPwZd_9ryo3_jiff18ry_signed_durationNtB5_16RySignedDuration26___pymethod_as_millis_f64__
FNDA:0,_RNvMsp_NtCs8WYW6vAPwZd_9ryo3_jiff18ry_signed_durationNtB5_16RySignedDuration26___pymethod_subsec_micros__
FNDA:0,_RNvMsp_NtCs8WYW6vAPwZd_9ryo3_jiff18ry_signed_durationNtB5_16RySignedDuration26___pymethod_subsec_millis__
FNDA:0,_RNvMsp_NtCs8WYW6vAPwZd_9ryo3_jiff18ry_signed_durationNtB5_16RySignedDuration27___pymethod___getnewargs____
FNDA:0,_RNvMsp_NtCs8WYW6vAPwZd_9ryo3_jiff18ry_signed_durationNtB5_16RySignedDuration27___pymethod_to_pytimedelta__
FNDA:0,_RNvMsp_NtCs8WYW6vAPwZd_9ryo3_jiff18ry_signed_durationNtB5_16RySignedDuration28___pymethod_get_is_negative__
FNDA:0,_RNvMsp_NtCs8WYW6vAPwZd_9ryo3_jiff18ry_signed_durationNtB5_16RySignedDuration28___pymethod_get_is_positive__
FNDA:0,_RNvMsp_NtCs8WYW6vAPwZd_9ryo3_jiff18ry_signed_durationNtB5_16RySignedDuration29___pymethod_get_microseconds__
FNDA:0,_RNvXs0_NtCs8WYW6vAPwZd_9ryo3_jiff18ry_signed_durationNtB5_16RySignedDurationINtNtCs66KPHxksi63_4core7convert4FromNtNtB7_10jiff_types18JiffSignedDurationE4from
FNDA:1606,_RNvXs_NtCs8WYW6vAPwZd_9ryo3_jiff18ry_signed_durationNtB4_16RySignedDurationINtNtCs66KPHxksi63_4core7convert4FromNtNtCs3tnJ9lKo9L6_4jiff15signed_duration14SignedDurationE4from
FNF:81
FNH:26
DA:26,0
DA:27,0
DA:28,0
DA:29,0
DA:30,0
DA:32,0
DA:33,0
DA:34,0
DA:35,0
DA:36,0
DA:39,0
DA:43,1261
DA:45,1261
DA:46,70
DA:47,70
DA:48,2
DA:49,2
DA:50,1191
DA:51,1259
DA:52,1261
DA:54,2
DA:55,2
DA:56,2
DA:57,2
DA:58,2
DA:59,2
DA:62,2
DA:66,8
DA:67,8
DA:68,8
DA:72,8
DA:73,8
DA:74,8
DA:78,8
DA:79,8
DA:80,8
DA:83,102
DA:84,102
DA:85,102
DA:88,102
DA:89,102
DA:90,102
DA:93,4
DA:94,4
DA:95,4
DA:96,4
DA:97,4
DA:100,3
DA:101,3
DA:102,3
DA:105,0
DA:106,0
DA:107,0
DA:110,0
DA:111,0
DA:112,0
DA:114,100
DA:115,100
DA:116,100
DA:119,204
DA:120,204
DA:121,204
DA:123,0
DA:124,0
DA:125,0
DA:127,201
DA:128,201
DA:129,201
DA:131,0
DA:132,0
DA:133,0
DA:134,0
DA:135,0
DA:137,2
DA:138,2
DA:139,2
DA:141,1
DA:142,1
DA:143,1
DA:145,1
DA:146,1
DA:147,1
DA:150,104
DA:151,104
DA:152,1
DA:154,103
DA:156,104
DA:158,1
DA:159,1
DA:160,1
DA:162,0
DA:163,0
DA:164,0
DA:166,0
DA:167,0
DA:168,0
DA:170,0
DA:171,0
DA:172,0
DA:174,2
DA:175,2
DA:176,2
DA:177,2
DA:178,2
DA:180,2
DA:182,0
DA:183,0
DA:184,0
DA:185,0
DA:186,0
DA:188,500
DA:189,500
DA:190,500
DA:191,500
DA:192,0
DA:194,500
DA:196,0
DA:197,0
DA:198,0
DA:199,0
DA:200,0
DA:202,0
DA:204,0
DA:205,0
DA:206,0
DA:207,0
DA:208,0
DA:210,0
DA:212,0
DA:213,0
DA:214,0
DA:216,0
DA:217,0
DA:218,0
DA:219,0
DA:220,0
DA:222,0
DA:224,343
DA:225,343
DA:226,0
DA:227,0
DA:228,343
DA:231,1
DA:232,1
DA:233,1
DA:236,1
DA:237,1
DA:238,1
DA:241,1
DA:242,1
DA:243,1
DA:245,319
DA:246,319
DA:247,311
DA:248,210
DA:249,101
DA:250,0
DA:251,0
DA:252,0
DA:253,0
DA:255,8
DA:256,8
DA:257,8
DA:258,4
DA:259,4
DA:260,0
DA:261,0
DA:262,0
DA:263,0
DA:267,319
DA:273,0
DA:274,0
DA:275,0
DA:278,0
DA:279,0
DA:280,0
DA:283,0
DA:284,0
DA:285,0
DA:288,0
DA:289,0
DA:290,0
DA:293,0
DA:294,0
DA:295,0
DA:298,0
DA:299,0
DA:300,0
DA:301,0
DA:302,0
DA:304,0
DA:305,0
DA:306,0
DA:308,0
DA:311,0
DA:312,0
DA:313,0
DA:316,0
DA:317,0
DA:318,0
DA:323,0
DA:324,0
DA:325,0
DA:326,0
DA:327,0
DA:328,0
DA:329,0
DA:330,0
DA:331,0
DA:332,0
DA:333,0
DA:334,0
DA:335,0
DA:336,0
DA:337,0
DA:339,0
DA:340,0
DA:341,0
DA:343,0
DA:344,0
DA:345,0
DA:347,0
DA:348,0
DA:349,0
DA:351,0
DA:352,0
DA:353,0
DA:355,0
DA:356,0
DA:357,0
DA:359,0
DA:360,0
DA:361,0
DA:363,0
DA:364,0
DA:365,0
DA:367,0
DA:368,0
DA:369,0
DA:371,0
DA:372,0
DA:373,0
DA:375,0
DA:376,0
DA:377,0
DA:379,0
DA:380,0
DA:381,0
DA:383,0
DA:384,0
DA:385,0
DA:386,0
DA:388,0
DA:389,0
DA:390,0
DA:391,0
DA:393,0
DA:394,0
DA:395,0
DA:396,0
DA:397,0
DA:398,0
DA:399,0
DA:400,0
DA:401,0
DA:402,0
DA:403,0
DA:404,0
DA:406,0
DA:407,0
DA:408,0
DA:410,0
DA:411,0
DA:412,0
DA:414,0
DA:415,0
DA:416,0
DA:417,0
DA:418,0
DA:419,0
DA:420,0
DA:421,0
DA:422,0
DA:423,0
DA:424,0
DA:425,0
DA:429,1606
DA:430,1606
DA:431,1606
DA:435,0
DA:436,0
DA:437,0
BRF:0
BRH:0
LF:297
LH:104
end_of_record
SF:/home/jesse/ry/crates/ryo3-jiff/src/ry_span.rs
FN:22,_RNvMNtCs8WYW6vAPwZd_9ryo3_jiff7ry_spanNtB2_6RySpan15assert_non_zero
FN:137,_RNvMse_NtCs8WYW6vAPwZd_9ryo3_jiff7ry_spanNtB5_6RySpan10___invert__
FN:260,_RNvMse_NtCs8WYW6vAPwZd_9ryo3_jiff7ry_spanNtB5_6RySpan10try_months
FN:559,_RNvMse_NtCs8WYW6vAPwZd_9ryo3_jiff7ry_spanNtB5_6RySpan11is_negative
FN:564,_RNvMse_NtCs8WYW6vAPwZd_9ryo3_jiff7ry_spanNtB5_6RySpan11is_positive
FN:619,_RNvMse_NtCs8WYW6vAPwZd_9ryo3_jiff7ry_spanNtB5_6RySpan11nanoseconds
FN:284,_RNvMse_NtCs8WYW6vAPwZd_9ryo3_jiff7ry_spanNtB5_6RySpan11try_minutes
FN:292,_RNvMse_NtCs8WYW6vAPwZd_9ryo3_jiff7ry_spanNtB5_6RySpan11try_seconds
FN:211,_RNvMse_NtCs8WYW6vAPwZd_9ryo3_jiff7ry_spanNtB5_6RySpan12__nanoseconds
FN:614,_RNvMse_NtCs8WYW6vAPwZd_9ryo3_jiff7ry_spanNtB5_6RySpan12microseconds
FN:609,_RNvMse_NtCs8WYW6vAPwZd_9ryo3_jiff7ry_spanNtB5_6RySpan12milliseconds
FN:207,_RNvMse_NtCs8WYW6vAPwZd_9ryo3_jiff7ry_spanNtB5_6RySpan13__microseconds
FN:203,_RNvMse_NtCs8WYW6vAPwZd_9ryo3_jiff7ry_spanNtB5_6RySpan13__milliseconds
FN:409,_RNvMse_NtCs8WYW6vAPwZd_9ryo3_jiff7ry_spanNtB5_6RySpan13total_seconds
FN:150,_RNvMse_NtCs8WYW6vAPwZd_9ryo3_jiff7ry_spanNtB5_6RySpan14to_pytimedelta
FN:316,_RNvMse_NtCs8WYW6vAPwZd_9ryo3_jiff7ry_spanNtB5_6RySpan15try_nanoseconds
FN:142,_RNvMse_NtCs8WYW6vAPwZd_9ryo3_jiff7ry_spanNtB5_6RySpan16from_pytimedelta
FN:156,_RNvMse_NtCs8WYW6vAPwZd_9ryo3_jiff7ry_spanNtB5_6RySpan16parse_common_iso
FN:308,_RNvMse_NtCs8WYW6vAPwZd_9ryo3_jiff7ry_spanNtB5_6RySpan16try_microseconds
FN:300,_RNvMse_NtCs8WYW6vAPwZd_9ryo3_jiff7ry_spanNtB5_6RySpan16try_milliseconds
FN:89,_RNvMse_NtCs8WYW6vAPwZd_9ryo3_jiff7ry_spanNtB5_6RySpan17___getnewargs_ex__
FN:416,_RNvMse_NtCs8WYW6vAPwZd_9ryo3_jiff7ry_spanNtB5_6RySpan18to_signed_duration
FN:133,_RNvMse_NtCs8WYW6vAPwZd_9ryo3_jiff7ry_spanNtB5_6RySpan3abs
FN:454,_RNvMse_NtCs8WYW6vAPwZd_9ryo3_jiff7ry_spanNtB5_6RySpan3add
FN:488,_RNvMse_NtCs8WYW6vAPwZd_9ryo3_jiff7ry_spanNtB5_6RySpan3mul
FN:473,_RNvMse_NtCs8WYW6vAPwZd_9ryo3_jiff7ry_spanNtB5_6RySpan3sub
FN:589,_RNvMse_NtCs8WYW6vAPwZd_9ryo3_jiff7ry_spanNtB5_6RySpan4days
FN:187,_RNvMse_NtCs8WYW6vAPwZd_9ryo3_jiff7ry_spanNtB5_6RySpan5__days
FN:594,_RNvMse_NtCs8WYW6vAPwZd_9ryo3_jiff7ry_spanNtB5_6RySpan5hours
FN:171,_RNvMse_NtCs8WYW6vAPwZd_9ryo3_jiff7ry_spanNtB5_6RySpan5parse
FN:629,_RNvMse_NtCs8WYW6vAPwZd_9ryo3_jiff7ry_spanNtB5_6RySpan5round
FN:146,_RNvMse_NtCs8WYW6vAPwZd_9ryo3_jiff7ry_spanNtB5_6RySpan5to_py
FN:697,_RNvMse_NtCs8WYW6vAPwZd_9ryo3_jiff7ry_spanNtB5_6RySpan5total
FN:584,_RNvMse_NtCs8WYW6vAPwZd_9ryo3_jiff7ry_spanNtB5_6RySpan5weeks
FN:574,_RNvMse_NtCs8WYW6vAPwZd_9ryo3_jiff7ry_spanNtB5_6RySpan5years
FN:108,_RNvMse_NtCs8WYW6vAPwZd_9ryo3_jiff7ry_spanNtB5_6RySpan6___eq__
FN:114,_RNvMse_NtCs8WYW6vAPwZd_9ryo3_jiff7ry_spanNtB5_6RySpan6___ne__
FN:191,_RNvMse_NtCs8WYW6vAPwZd_9ryo3_jiff7ry_spanNtB5_6RySpan6__hours
FN:183,_RNvMse_NtCs8WYW6vAPwZd_9ryo3_jiff7ry_spanNtB5_6RySpan6__weeks
FN:175,_RNvMse_NtCs8WYW6vAPwZd_9ryo3_jiff7ry_spanNtB5_6RySpan6__years
FN:394,_RNvMse_NtCs8WYW6vAPwZd_9ryo3_jiff7ry_spanNtB5_6RySpan6asdict
FN:579,_RNvMse_NtCs8WYW6vAPwZd_9ryo3_jiff7ry_spanNtB5_6RySpan6months
FN:120,_RNvMse_NtCs8WYW6vAPwZd_9ryo3_jiff7ry_spanNtB5_6RySpan6negate
FN:59,_RNvMse_NtCs8WYW6vAPwZd_9ryo3_jiff7ry_spanNtB5_6RySpan6py_new
FN:692,_RNvMse_NtCs8WYW6vAPwZd_9ryo3_jiff7ry_spanNtB5_6RySpan6signum
FN:96,_RNvMse_NtCs8WYW6vAPwZd_9ryo3_jiff7ry_spanNtB5_6RySpan6string
FN:129,_RNvMse_NtCs8WYW6vAPwZd_9ryo3_jiff7ry_spanNtB5_6RySpan7___abs__B7_
FN:445,_RNvMse_NtCs8WYW6vAPwZd_9ryo3_jiff7ry_spanNtB5_6RySpan7___add__
FN:481,_RNvMse_NtCs8WYW6vAPwZd_9ryo3_jiff7ry_spanNtB5_6RySpan7___mul__
FN:124,_RNvMse_NtCs8WYW6vAPwZd_9ryo3_jiff7ry_spanNtB5_6RySpan7___neg__
FN:85,_RNvMse_NtCs8WYW6vAPwZd_9ryo3_jiff7ry_spanNtB5_6RySpan7___str__
FN:464,_RNvMse_NtCs8WYW6vAPwZd_9ryo3_jiff7ry_spanNtB5_6RySpan7___sub__
FN:179,_RNvMse_NtCs8WYW6vAPwZd_9ryo3_jiff7ry_spanNtB5_6RySpan7__months
FN:493,_RNvMse_NtCs8WYW6vAPwZd_9ryo3_jiff7ry_spanNtB5_6RySpan7compare
FN:569,_RNvMse_NtCs8WYW6vAPwZd_9ryo3_jiff7ry_spanNtB5_6RySpan7is_zero
FN:599,_RNvMse_NtCs8WYW6vAPwZd_9ryo3_jiff7ry_spanNtB5_6RySpan7minutes
FN:217,_RNvMse_NtCs8WYW6vAPwZd_9ryo3_jiff7ry_spanNtB5_6RySpan7replace
FN:604,_RNvMse_NtCs8WYW6vAPwZd_9ryo3_jiff7ry_spanNtB5_6RySpan7seconds
FN:388,_RNvMse_NtCs8WYW6vAPwZd_9ryo3_jiff7ry_spanNtB5_6RySpan8___hash__
FN:326,_RNvMse_NtCs8WYW6vAPwZd_9ryo3_jiff7ry_spanNtB5_6RySpan8___repr__
FN:195,_RNvMse_NtCs8WYW6vAPwZd_9ryo3_jiff7ry_spanNtB5_6RySpan8__minutes
FN:199,_RNvMse_NtCs8WYW6vAPwZd_9ryo3_jiff7ry_spanNtB5_6RySpan8__seconds
FN:104,_RNvMse_NtCs8WYW6vAPwZd_9ryo3_jiff7ry_spanNtB5_6RySpan8friendly
FN:164,_RNvMse_NtCs8WYW6vAPwZd_9ryo3_jiff7ry_spanNtB5_6RySpan8from_str
FN:272,_RNvMse_NtCs8WYW6vAPwZd_9ryo3_jiff7ry_spanNtB5_6RySpan8try_days
FN:373,_RNvMse_NtCs8WYW6vAPwZd_9ryo3_jiff7ry_spanNtB5_6RySpan9repr_full
FN:278,_RNvMse_NtCs8WYW6vAPwZd_9ryo3_jiff7ry_spanNtB5_6RySpan9try_hours
FN:266,_RNvMse_NtCs8WYW6vAPwZd_9ryo3_jiff7ry_spanNtB5_6RySpan9try_weeks
FN:254,_RNvMse_NtCs8WYW6vAPwZd_9ryo3_jiff7ry_spanNtB5_6RySpan9try_years
FN:40,_RNvMsq_NtCs8WYW6vAPwZd_9ryo3_jiff7ry_spanNtB5_6RySpan16___pymethod_abs__
FN:40,_RNvMsq_NtCs8WYW6vAPwZd_9ryo3_jiff7ry_spanNtB5_6RySpan18___pymethod_to_py__
FN:40,_RNvMsq_NtCs8WYW6vAPwZd_9ryo3_jiff7ry_spanNtB5_6RySpan19___pymethod_asdict__
FN:40,_RNvMsq_NtCs8WYW6vAPwZd_9ryo3_jiff7ry_spanNtB5_6RySpan19___pymethod_negate__
FN:40,_RNvMsq_NtCs8WYW6vAPwZd_9ryo3_jiff7ry_spanNtB5_6RySpan19___pymethod_signum__
FN:40,_RNvMsq_NtCs8WYW6vAPwZd_9ryo3_jiff7ry_spanNtB5_6RySpan20___pymethod___abs____
FN:40,_RNvMsq_NtCs8WYW6vAPwZd_9ryo3_jiff7ry_spanNtB5_6RySpan20___pymethod___neg____
FN:40,_RNvMsq_NtCs8WYW6vAPwZd_9ryo3_jiff7ry_spanNtB5_6RySpan20___pymethod___str____
FN:40,_RNvMsq_NtCs8WYW6vAPwZd_9ryo3_jiff7ry_spanNtB5_6RySpan21___pymethod___hash____
FN:40,_RNvMsq_NtCs8WYW6vAPwZd_9ryo3_jiff7ry_spanNtB5_6RySpan21___pymethod___repr____
FN:40,_RNvMsq_NtCs8WYW6vAPwZd_9ryo3_jiff7ry_spanNtB5_6RySpan21___pymethod_friendly__
FN:40,_RNvMsq_NtCs8WYW6vAPwZd_9ryo3_jiff7ry_spanNtB5_6RySpan21___pymethod_get_days__
FN:40,_RNvMsq_NtCs8WYW6vAPwZd_9ryo3_jiff7ry_spanNtB5_6RySpan22___pymethod_get_hours__
FN:40,_RNvMsq_NtCs8WYW6vAPwZd_9ryo3_jiff7ry_spanNtB5_6RySpan22___pymethod_get_weeks__
FN:40,_RNvMsq_NtCs8WYW6vAPwZd_9ryo3_jiff7ry_spanNtB5_6RySpan22___pymethod_get_years__
FN:40,_RNvMsq_NtCs8WYW6vAPwZd_9ryo3_jiff7ry_spanNtB5_6RySpan22___pymethod_repr_full__
FN:40,_RNvMsq_NtCs8WYW6vAPwZd_9ryo3_jiff7ry_spanNtB5_6RySpan23___pymethod___invert____
FN:40,_RNvMsq_NtCs8WYW6vAPwZd_9ryo3_jiff7ry_spanNtB5_6RySpan23___pymethod_get_months__
FN:40,_RNvMsq_NtCs8WYW6vAPwZd_9ryo3_jiff7ry_spanNtB5_6RySpan24___pymethod_get_is_zero__
FN:40,_RNvMsq_NtCs8WYW6vAPwZd_9ryo3_jiff7ry_spanNtB5_6RySpan24___pymethod_get_minutes__
FN:40,_RNvMsq_NtCs8WYW6vAPwZd_9ryo3_jiff7ry_spanNtB5_6RySpan24___pymethod_get_seconds__
FN:40,_RNvMsq_NtCs8WYW6vAPwZd_9ryo3_jiff7ry_spanNtB5_6RySpan26___pymethod_total_seconds__
FN:40,_RNvMsq_NtCs8WYW6vAPwZd_9ryo3_jiff7ry_spanNtB5_6RySpan27___pymethod_to_pytimedelta__
FN:40,_RNvMsq_NtCs8WYW6vAPwZd_9ryo3_jiff7ry_spanNtB5_6RySpan28___pymethod_get_is_negative__
FN:40,_RNvMsq_NtCs8WYW6vAPwZd_9ryo3_jiff7ry_spanNtB5_6RySpan28___pymethod_get_is_positive__
FN:40,_RNvMsq_NtCs8WYW6vAPwZd_9ryo3_jiff7ry_spanNtB5_6RySpan28___pymethod_get_nanoseconds__
FN:40,_RNvMsq_NtCs8WYW6vAPwZd_9ryo3_jiff7ry_spanNtB5_6RySpan29___pymethod_get_microseconds__
FN:40,_RNvMsq_NtCs8WYW6vAPwZd_9ryo3_jiff7ry_spanNtB5_6RySpan29___pymethod_get_milliseconds__
FN:40,_RNvMsq_NtCs8WYW6vAPwZd_9ryo3_jiff7ry_spanNtB5_6RySpan30___pymethod___getnewargs_ex____
FN:739,_RNvXs0_NtCs8WYW6vAPwZd_9ryo3_jiff7ry_spanNtB5_6RySpanNtNtCs66KPHxksi63_4core3fmt7Display3fmt
FN:745,_RNvXs1_NtCs8WYW6vAPwZd_9ryo3_jiff7ry_spanNtB5_6RySpanINtNtCs66KPHxksi63_4core7convert4FromNtNtCs3tnJ9lKo9L6_4jiff4span4SpanE4from
FN:751,_RNvXs2_NtCs8WYW6vAPwZd_9ryo3_jiff7ry_spanNtB5_6RySpanINtNtCs66KPHxksi63_4core7convert4FromNtNtB7_10jiff_types8JiffSpanE4from
FN:33,_RNvXs_NtCs8WYW6vAPwZd_9ryo3_jiff7ry_spanNtB4_6RySpanNtNtCs66KPHxksi63_4core3cmp9PartialEq2eq
FN:261,_RNCNvMse_NtCs8WYW6vAPwZd_9ryo3_jiff7ry_spanNtB7_6RySpan10try_months0B9_
FN:285,_RNCNvMse_NtCs8WYW6vAPwZd_9ryo3_jiff7ry_spanNtB7_6RySpan11try_minutes0B9_
FN:293,_RNCNvMse_NtCs8WYW6vAPwZd_9ryo3_jiff7ry_spanNtB7_6RySpan11try_seconds0B9_
FN:412,_RNCNvMse_NtCs8WYW6vAPwZd_9ryo3_jiff7ry_spanNtB7_6RySpan13total_seconds0B9_
FN:317,_RNCNvMse_NtCs8WYW6vAPwZd_9ryo3_jiff7ry_spanNtB7_6RySpan15try_nanoseconds0B9_
FN:160,_RNCNvMse_NtCs8WYW6vAPwZd_9ryo3_jiff7ry_spanNtB7_6RySpan16parse_common_iso0B9_
FN:309,_RNCNvMse_NtCs8WYW6vAPwZd_9ryo3_jiff7ry_spanNtB7_6RySpan16try_microseconds0B9_
FN:301,_RNCNvMse_NtCs8WYW6vAPwZd_9ryo3_jiff7ry_spanNtB7_6RySpan16try_milliseconds0B9_
FN:423,_RNCNvMse_NtCs8WYW6vAPwZd_9ryo3_jiff7ry_spanNtB7_6RySpan18to_signed_duration0B9_
FN:433,_RNCNvMse_NtCs8WYW6vAPwZd_9ryo3_jiff7ry_spanNtB7_6RySpan18to_signed_durations0_0B9_
FN:440,_RNCNvMse_NtCs8WYW6vAPwZd_9ryo3_jiff7ry_spanNtB7_6RySpan18to_signed_durations1_0B9_
FN:428,_RNCNvMse_NtCs8WYW6vAPwZd_9ryo3_jiff7ry_spanNtB7_6RySpan18to_signed_durations_0B9_
FN:167,_RNCNvMse_NtCs8WYW6vAPwZd_9ryo3_jiff7ry_spanNtB7_6RySpan8from_str0B9_
FN:273,_RNCNvMse_NtCs8WYW6vAPwZd_9ryo3_jiff7ry_spanNtB7_6RySpan8try_days0B9_
FN:279,_RNCNvMse_NtCs8WYW6vAPwZd_9ryo3_jiff7ry_spanNtB7_6RySpan9try_hours0B9_
FN:267,_RNCNvMse_NtCs8WYW6vAPwZd_9ryo3_jiff7ry_spanNtB7_6RySpan9try_weeks0B9_
FN:255,_RNCNvMse_NtCs8WYW6vAPwZd_9ryo3_jiff7ry_spanNtB7_6RySpan9try_years0B9_
FNDA:6,_RNvMNtCs8WYW6vAPwZd_9ryo3_jiff7ry_spanNtB2_6RySpan15assert_non_zero
FNDA:1,_RNvMse_NtCs8WYW6vAPwZd_9ryo3_jiff7ry_spanNtB5_6RySpan10___invert__
FNDA:3,_RNvMse_NtCs8WYW6vAPwZd_9ryo3_jiff7ry_spanNtB5_6RySpan10try_months
FNDA:1,_RNvMse_NtCs8WYW6vAPwZd_9ryo3_jiff7ry_spanNtB5_6RySpan11is_negative
FNDA:1,_RNvMse_NtCs8WYW6vAPwZd_9ryo3_jiff7ry_spanNtB5_6RySpan11is_positive
FNDA:1,_RNvMse_NtCs8WYW6vAPwZd_9ryo3_jiff7ry_spanNtB5_6RySpan11nanoseconds
FNDA:6,_RNvMse_NtCs8WYW6vAPwZd_9ryo3_jiff7ry_spanNtB5_6RySpan11try_minutes
FNDA:0,_RNvMse_NtCs8WYW6vAPwZd_9ryo3_jiff7ry_spanNtB5_6RySpan11try_seconds
FNDA:0,_RNvMse_NtCs8WYW6vAPwZd_9ryo3_jiff7ry_spanNtB5_6RySpan12__nanoseconds
FNDA:1,_RNvMse_NtCs8WYW6vAPwZd_9ryo3_jiff7ry_spanNtB5_6RySpan12microseconds
FNDA:1,_RNvMse_NtCs8WYW6vAPwZd_9ryo3_jiff7ry_spanNtB5_6RySpan12milliseconds
FNDA:0,_RNvMse_NtCs8WYW6vAPwZd_9ryo3_jiff7ry_spanNtB5_6RySpan13__microseconds
FNDA:0,_RNvMse_NtCs8WYW6vAPwZd_9ryo3_jiff7ry_spanNtB5_6RySpan13__milliseconds
FNDA:0,_RNvMse_NtCs8WYW6vAPwZd_9ryo3_jiff7ry_spanNtB5_6RySpan13total_seconds
FNDA:101,_RNvMse_NtCs8WYW6vAPwZd_9ryo3_jiff7ry_spanNtB5_6RySpan14to_pytimedelta
FNDA:0,_RNvMse_NtCs8WYW6vAPwZd_9ryo3_jiff7ry_spanNtB5_6RySpan15try_nanoseconds
FNDA:200,_RNvMse_NtCs8WYW6vAPwZd_9ryo3_jiff7ry_spanNtB5_6RySpan16from_pytimedelta
FNDA:0,_RNvMse_NtCs8WYW6vAPwZd_9ryo3_jiff7ry_spanNtB5_6RySpan16parse_common_iso
FNDA:0,_RNvMse_NtCs8WYW6vAPwZd_9ryo3_jiff7ry_spanNtB5_6RySpan16try_microseconds
FNDA:0,_RNvMse_NtCs8WYW6vAPwZd_9ryo3_jiff7ry_spanNtB5_6RySpan16try_milliseconds
FNDA:2,_RNvMse_NtCs8WYW6vAPwZd_9ryo3_jiff7ry_spanNtB5_6RySpan17___getnewargs_ex__
FNDA:5,_RNvMse_NtCs8WYW6vAPwZd_9ryo3_jiff7ry_spanNtB5_6RySpan18to_signed_duration
FNDA:0,_RNvMse_NtCs8WYW6vAPwZd_9ryo3_jiff7ry_spanNtB5_6RySpan3abs
FNDA:8,_RNvMse_NtCs8WYW6vAPwZd_9ryo3_jiff7ry_spanNtB5_6RySpan3add
FNDA:0,_RNvMse_NtCs8WYW6vAPwZd_9ryo3_jiff7ry_spanNtB5_6RySpan3mul
FNDA:0,_RNvMse_NtCs8WYW6vAPwZd_9ryo3_jiff7ry_spanNtB5_6RySpan3sub
FNDA:1,_RNvMse_NtCs8WYW6vAPwZd_9ryo3_jiff7ry_spanNtB5_6RySpan4days
FNDA:11,_RNvMse_NtCs8WYW6vAPwZd_9ryo3_jiff7ry_spanNtB5_6RySpan5__days
FNDA:1,_RNvMse_NtCs8WYW6vAPwZd_9ryo3_jiff7ry_spanNtB5_6RySpan5hours
FNDA:8,_RNvMse_NtCs8WYW6vAPwZd_9ryo3_jiff7ry_spanNtB5_6RySpan5parse
FNDA:1,_RNvMse_NtCs8WYW6vAPwZd_9ryo3_jiff7ry_spanNtB5_6RySpan5round
FNDA:0,_RNvMse_NtCs8WYW6vAPwZd_9ryo3_jiff7ry_spanNtB5_6RySpan5to_py
FNDA:9,_RNvMse_NtCs8WYW6vAPwZd_9ryo3_jiff7ry_spanNtB5_6RySpan5total
FNDA:1,_RNvMse_NtCs8WYW6vAPwZd_9ryo3_jiff7ry_spanNtB5_6RySpan5weeks
FNDA:1,_RNvMse_NtCs8WYW6vAPwZd_9ryo3_jiff7ry_spanNtB5_6RySpan5years
FNDA:157,_RNvMse_NtCs8WYW6vAPwZd_9ryo3_jiff7ry_spanNtB5_6RySpan6___eq__
FNDA:0,_RNvMse_NtCs8WYW6vAPwZd_9ryo3_jiff7ry_spanNtB5_6RySpan6___ne__
FNDA:9,_RNvMse_NtCs8WYW6vAPwZd_9ryo3_jiff7ry_spanNtB5_6RySpan6__hours
FNDA:3,_RNvMse_NtCs8WYW6vAPwZd_9ryo3_jiff7ry_spanNtB5_6RySpan6__weeks
FNDA:6,_RNvMse_NtCs8WYW6vAPwZd_9ryo3_jiff7ry_spanNtB5_6RySpan6__years
FNDA:3,_RNvMse_NtCs8WYW6vAPwZd_9ryo3_jiff7ry_spanNtB5_6RySpan6asdict
FNDA:1,_RNvMse_NtCs8WYW6vAPwZd_9ryo3_jiff7ry_spanNtB5_6RySpan6months
FNDA:2,_RNvMse_NtCs8WYW6vAPwZd_9ryo3_jiff7ry_spanNtB5_6RySpan6negate
FNDA:28,_RNvMse_NtCs8WYW6vAPwZd_9ryo3_jiff7ry_spanNtB5_6RySpan6py_new
FNDA:0,_RNvMse_NtCs8WYW6vAPwZd_9ryo3_jiff7ry_spanNtB5_6RySpan6signum
FNDA:26,_RNvMse_NtCs8WYW6vAPwZd_9ryo3_jiff7ry_spanNtB5_6RySpan6string
FNDA:0,_RNvMse_NtCs8WYW6vAPwZd_9ryo3_jiff7ry_spanNtB5_6RySpan7___abs__B7_
FNDA:0,_RNvMse_NtCs8WYW6vAPwZd_9ryo3_jiff7ry_spanNtB5_6RySpan7___add__
FNDA:0,_RNvMse_NtCs8WYW6vAPwZd_9ryo3_jiff7ry_spanNtB5_6RySpan7___mul__
FNDA:104,_RNvMse_NtCs8WYW6vAPwZd_9ryo3_jiff7ry_spanNtB5_6RySpan7___neg__
FNDA:14,_RNvMse_NtCs8WYW6vAPwZd_9ryo3_jiff7ry_spanNtB5_6RySpan7___str__
FNDA:0,_RNvMse_NtCs8WYW6vAPwZd_9ryo3_jiff7ry_spanNtB5_6RySpan7___sub__
FNDA:3,_RNvMse_NtCs8WYW6vAPwZd_9ryo3_jiff7ry_spanNtB5_6RySpan7__months
FNDA:15,_RNvMse_NtCs8WYW6vAPwZd_9ryo3_jiff7ry_spanNtB5_6RySpan7compare
FNDA:1,_RNvMse_NtCs8WYW6vAPwZd_9ryo3_jiff7ry_spanNtB5_6RySpan7is_zero
FNDA:1,_RNvMse_NtCs8WYW6vAPwZd_9ryo3_jiff7ry_spanNtB5_6RySpan7minutes
FNDA:0,_RNvMse_NtCs8WYW6vAPwZd_9ryo3_jiff7ry_spanNtB5_6RySpan7replace
FNDA:1,_RNvMse_NtCs8WYW6vAPwZd_9ryo3_jiff7ry_spanNtB5_6RySpan7seconds
FNDA:0,_RNvMse_NtCs8WYW6vAPwZd_9ryo3_jiff7ry_spanNtB5_6RySpan8___hash__
FNDA:2,_RNvMse_NtCs8WYW6vAPwZd_9ryo3_jiff7ry_spanNtB5_6RySpan8___repr__
FNDA:6,_RNvMse_NtCs8WYW6vAPwZd_9ryo3_jiff7ry_spanNtB5_6RySpan8__minutes
FNDA:0,_RNvMse_NtCs8WYW6vAPwZd_9ryo3_jiff7ry_spanNtB5_6RySpan8__seconds
FNDA:1,_RNvMse_NtCs8WYW6vAPwZd_9ryo3_jiff7ry_spanNtB5_6RySpan8friendly
FNDA:9,_RNvMse_NtCs8WYW6vAPwZd_9ryo3_jiff7ry_spanNtB5_6RySpan8from_str
FNDA:11,_RNvMse_NtCs8WYW6vAPwZd_9ryo3_jiff7ry_spanNtB5_6RySpan8try_days
FNDA:1,_RNvMse_NtCs8WYW6vAPwZd_9ryo3_jiff7ry_spanNtB5_6RySpan9repr_full
FNDA:9,_RNvMse_NtCs8WYW6vAPwZd_9ryo3_jiff7ry_spanNtB5_6RySpan9try_hours
FNDA:3,_RNvMse_NtCs8WYW6vAPwZd_9ryo3_jiff7ry_spanNtB5_6RySpan9try_weeks
FNDA:6,_RNvMse_NtCs8WYW6vAPwZd_9ryo3_jiff7ry_spanNtB5_6RySpan9try_years
FNDA:0,_RNvMsq_NtCs8WYW6vAPwZd_9ryo3_jiff7ry_spanNtB5_6RySpan16___pymethod_abs__
FNDA:0,_RNvMsq_NtCs8WYW6vAPwZd_9ryo3_jiff7ry_spanNtB5_6RySpan18___pymethod_to_py__
FNDA:0,_RNvMsq_NtCs8WYW6vAPwZd_9ryo3_jiff7ry_spanNtB5_6RySpan19___pymethod_asdict__
FNDA:0,_RNvMsq_NtCs8WYW6vAPwZd_9ryo3_jiff7ry_spanNtB5_6RySpan19___pymethod_negate__
FNDA:0,_RNvMsq_NtCs8WYW6vAPwZd_9ryo3_jiff7ry_spanNtB5_6RySpan19___pymethod_signum__
FNDA:0,_RNvMsq_NtCs8WYW6vAPwZd_9ryo3_jiff7ry_spanNtB5_6RySpan20___pymethod___abs____
FNDA:0,_RNvMsq_NtCs8WYW6vAPwZd_9ryo3_jiff7ry_spanNtB5_6RySpan20___pymethod___neg____
FNDA:0,_RNvMsq_NtCs8WYW6vAPwZd_9ryo3_jiff7ry_spanNtB5_6RySpan20___pymethod___str____
FNDA:0,_RNvMsq_NtCs8WYW6vAPwZd_9ryo3_jiff7ry_spanNtB5_6RySpan21___pymethod___hash____
FNDA:0,_RNvMsq_NtCs8WYW6vAPwZd_9ryo3_jiff7ry_spanNtB5_6RySpan21___pymethod___repr____
FNDA:0,_RNvMsq_NtCs8WYW6vAPwZd_9ryo3_jiff7ry_spanNtB5_6RySpan21___pymethod_friendly__
FNDA:0,_RNvMsq_NtCs8WYW6vAPwZd_9ryo3_jiff7ry_spanNtB5_6RySpan21___pymethod_get_days__
FNDA:0,_RNvMsq_NtCs8WYW6vAPwZd_9ryo3_jiff7ry_spanNtB5_6RySpan22___pymethod_get_hours__
FNDA:0,_RNvMsq_NtCs8WYW6vAPwZd_9ryo3_jiff7ry_spanNtB5_6RySpan22___pymethod_get_weeks__
FNDA:0,_RNvMsq_NtCs8WYW6vAPwZd_9ryo3_jiff7ry_spanNtB5_6RySpan22___pymethod_get_years__
FNDA:0,_RNvMsq_NtCs8WYW6vAPwZd_9ryo3_jiff7ry_spanNtB5_6RySpan22___pymethod_repr_full__
FNDA:0,_RNvMsq_NtCs8WYW6vAPwZd_9ryo3_jiff7ry_spanNtB5_6RySpan23___pymethod___invert____
FNDA:0,_RNvMsq_NtCs8WYW6vAPwZd_9ryo3_jiff7ry_spanNtB5_6RySpan23___pymethod_get_months__
FNDA:0,_RNvMsq_NtCs8WYW6vAPwZd_9ryo3_jiff7ry_spanNtB5_6RySpan24___pymethod_get_is_zero__
FNDA:0,_RNvMsq_NtCs8WYW6vAPwZd_9ryo3_jiff7ry_spanNtB5_6RySpan24___pymethod_get_minutes__
FNDA:0,_RNvMsq_NtCs8WYW6vAPwZd_9ryo3_jiff7ry_spanNtB5_6RySpan24___pymethod_get_seconds__
FNDA:0,_RNvMsq_NtCs8WYW6vAPwZd_9ryo3_jiff7ry_spanNtB5_6RySpan26___pymethod_total_seconds__
FNDA:0,_RNvMsq_NtCs8WYW6vAPwZd_9ryo3_jiff7ry_spanNtB5_6RySpan27___pymethod_to_pytimedelta__
FNDA:0,_RNvMsq_NtCs8WYW6vAPwZd_9ryo3_jiff7ry_spanNtB5_6RySpan28___pymethod_get_is_negative__
FNDA:0,_RNvMsq_NtCs8WYW6vAPwZd_9ryo3_jiff7ry_spanNtB5_6RySpan28___pymethod_get_is_positive__
FNDA:0,_RNvMsq_NtCs8WYW6vAPwZd_9ryo3_jiff7ry_spanNtB5_6RySpan28___pymethod_get_nanoseconds__
FNDA:0,_RNvMsq_NtCs8WYW6vAPwZd_9ryo3_jiff7ry_spanNtB5_6RySpan29___pymethod_get_microseconds__
FNDA:0,_RNvMsq_NtCs8WYW6vAPwZd_9ryo3_jiff7ry_spanNtB5_6RySpan29___pymethod_get_milliseconds__
FNDA:0,_RNvMsq_NtCs8WYW6vAPwZd_9ryo3_jiff7ry_spanNtB5_6RySpan30___pymethod___getnewargs_ex____
FNDA:0,_RNvXs0_NtCs8WYW6vAPwZd_9ryo3_jiff7ry_spanNtB5_6RySpanNtNtCs66KPHxksi63_4core3fmt7Display3fmt
FNDA:726,_RNvXs1_NtCs8WYW6vAPwZd_9ryo3_jiff7ry_spanNtB5_6RySpanINtNtCs66KPHxksi63_4core7convert4FromNtNtCs3tnJ9lKo9L6_4jiff4span4SpanE4from
FNDA:0,_RNvXs2_NtCs8WYW6vAPwZd_9ryo3_jiff7ry_spanNtB5_6RySpanINtNtCs66KPHxksi63_4core7convert4FromNtNtB7_10jiff_types8JiffSpanE4from
FNDA:0,_RNvXs_NtCs8WYW6vAPwZd_9ryo3_jiff7ry_spanNtB4_6RySpanNtNtCs66KPHxksi63_4core3cmp9PartialEq2eq
FNDA:0,_RNCNvMse_NtCs8WYW6vAPwZd_9ryo3_jiff7ry_spanNtB7_6RySpan10try_months0B9_
FNDA:0,_RNCNvMse_NtCs8WYW6vAPwZd_9ryo3_jiff7ry_spanNtB7_6RySpan11try_minutes0B9_
FNDA:0,_RNCNvMse_NtCs8WYW6vAPwZd_9ryo3_jiff7ry_spanNtB7_6RySpan11try_seconds0B9_
FNDA:0,_RNCNvMse_NtCs8WYW6vAPwZd_9ryo3_jiff7ry_spanNtB7_6RySpan13total_seconds0B9_
FNDA:0,_RNCNvMse_NtCs8WYW6vAPwZd_9ryo3_jiff7ry_spanNtB7_6RySpan15try_nanoseconds0B9_
FNDA:0,_RNCNvMse_NtCs8WYW6vAPwZd_9ryo3_jiff7ry_spanNtB7_6RySpan16parse_common_iso0B9_
FNDA:0,_RNCNvMse_NtCs8WYW6vAPwZd_9ryo3_jiff7ry_spanNtB7_6RySpan16try_microseconds0B9_
FNDA:0,_RNCNvMse_NtCs8WYW6vAPwZd_9ryo3_jiff7ry_spanNtB7_6RySpan16try_milliseconds0B9_
FNDA:0,_RNCNvMse_NtCs8WYW6vAPwZd_9ryo3_jiff7ry_spanNtB7_6RySpan18to_signed_duration0B9_
FNDA:0,_RNCNvMse_NtCs8WYW6vAPwZd_9ryo3_jiff7ry_spanNtB7_6RySpan18to_signed_durations0_0B9_
FNDA:0,_RNCNvMse_NtCs8WYW6vAPwZd_9ryo3_jiff7ry_spanNtB7_6RySpan18to_signed_durations1_0B9_
FNDA:0,_RNCNvMse_NtCs8WYW6vAPwZd_9ryo3_jiff7ry_spanNtB7_6RySpan18to_signed_durations_0B9_
FNDA:0,_RNCNvMse_NtCs8WYW6vAPwZd_9ryo3_jiff7ry_spanNtB7_6RySpan8from_str0B9_
FNDA:0,_RNCNvMse_NtCs8WYW6vAPwZd_9ryo3_jiff7ry_spanNtB7_6RySpan8try_days0B9_
FNDA:0,_RNCNvMse_NtCs8WYW6vAPwZd_9ryo3_jiff7ry_spanNtB7_6RySpan9try_hours0B9_
FNDA:0,_RNCNvMse_NtCs8WYW6vAPwZd_9ryo3_jiff7ry_spanNtB7_6RySpan9try_weeks0B9_
FNDA:0,_RNCNvMse_NtCs8WYW6vAPwZd_9ryo3_jiff7ry_spanNtB7_6RySpan9try_years0B9_
FNF:91
FNH:48
DA:22,6
DA:23,6
DA:24,0
DA:25,0
DA:26,0
DA:28,6
DA:30,6
DA:33,0
DA:34,0
DA:35,0
DA:36,0
DA:37,0
DA:40,0
DA:59,28
DA:60,28
DA:61,28
DA:62,28
DA:63,28
DA:64,28
DA:65,28
DA:66,28
DA:67,28
DA:68,28
DA:69,28
DA:70,28
DA:71,28
DA:72,28
DA:73,28
DA:74,28
DA:75,28
DA:76,28
DA:77,28
DA:78,28
DA:79,28
DA:80,28
DA:81,28
DA:83,28
DA:85,14
DA:86,14
DA:87,14
DA:89,2
DA:90,2
DA:91,2
DA:92,2
DA:93,2
DA:96,26
DA:97,26
DA:98,3
DA:100,23
DA:102,26
DA:104,1
DA:105,1
DA:106,1
DA:108,157
DA:109,157
DA:110,157
DA:111,157
DA:112,157
DA:114,0
DA:115,0
DA:116,0
DA:117,0
DA:118,0
DA:120,2
DA:121,2
DA:122,2
DA:124,104
DA:125,104
DA:126,104
DA:129,0
DA:130,0
DA:131,0
DA:133,0
DA:134,0
DA:135,0
DA:137,1
DA:138,1
DA:139,1
DA:142,200
DA:143,200
DA:144,200
DA:146,0
DA:147,0
DA:148,0
DA:150,101
DA:151,101
DA:152,101
DA:153,101
DA:156,0
DA:157,0
DA:158,0
DA:159,0
DA:160,0
DA:161,0
DA:164,9
DA:165,9
DA:166,9
DA:167,9
DA:168,9
DA:171,8
DA:172,8
DA:173,8
DA:175,6
DA:176,6
DA:177,6
DA:179,3
DA:180,3
DA:181,3
DA:183,3
DA:184,3
DA:185,3
DA:187,11
DA:188,11
DA:189,11
DA:191,9
DA:192,9
DA:193,9
DA:195,6
DA:196,6
DA:197,6
DA:199,0
DA:200,0
DA:201,0
DA:203,0
DA:204,0
DA:205,0
DA:207,0
DA:208,0
DA:209,0
DA:211,0
DA:212,0
DA:213,0
DA:217,0
DA:218,0
DA:219,0
DA:220,0
DA:221,0
DA:222,0
DA:223,0
DA:224,0
DA:225,0
DA:226,0
DA:227,0
DA:228,0
DA:229,0
DA:230,0
DA:231,0
DA:232,0
DA:233,0
DA:234,0
DA:235,0
DA:236,0
DA:237,0
DA:238,0
DA:239,0
DA:240,0
DA:241,0
DA:242,0
DA:243,0
DA:244,0
DA:245,0
DA:246,0
DA:247,0
DA:248,0
DA:249,0
DA:250,0
DA:252,0
DA:254,6
DA:255,6
DA:256,0
DA:257,0
DA:258,6
DA:260,3
DA:261,3
DA:262,0
DA:263,0
DA:264,3
DA:266,3
DA:267,3
DA:268,0
DA:269,0
DA:270,3
DA:272,11
DA:273,11
DA:274,0
DA:275,0
DA:276,11
DA:278,9
DA:279,9
DA:280,0
DA:281,0
DA:282,9
DA:284,6
DA:285,6
DA:286,0
DA:287,0
DA:289,0
DA:290,6
DA:292,0
DA:293,0
DA:294,0
DA:295,0
DA:297,0
DA:298,0
DA:300,0
DA:301,0
DA:302,0
DA:303,0
DA:305,0
DA:306,0
DA:308,0
DA:309,0
DA:310,0
DA:311,0
DA:313,0
DA:314,0
DA:316,0
DA:317,0
DA:318,0
DA:319,0
DA:321,0
DA:322,0
DA:326,2
DA:330,2
DA:331,2
DA:332,1
DA:333,1
DA:334,2
DA:335,0
DA:336,2
DA:338,2
DA:339,1
DA:340,1
DA:342,2
DA:343,0
DA:344,2
DA:346,2
DA:347,0
DA:348,2
DA:350,2
DA:351,0
DA:352,2
DA:354,2
DA:355,0
DA:356,2
DA:358,2
DA:359,0
DA:360,2
DA:362,2
DA:363,0
DA:364,2
DA:366,2
DA:367,0
DA:368,2
DA:370,2
DA:371,2
DA:373,1
DA:374,1
DA:375,1
DA:376,1
DA:377,1
DA:378,1
DA:379,1
DA:380,1
DA:381,1
DA:382,1
DA:383,1
DA:384,1
DA:385,1
DA:387,1
DA:388,0
DA:389,0
DA:390,0
DA:391,0
DA:392,0
DA:394,3
DA:395,3
DA:396,3
DA:397,3
DA:398,3
DA:399,3
DA:400,3
DA:401,3
DA:402,3
DA:403,3
DA:404,3
DA:405,3
DA:406,3
DA:407,3
DA:409,0
DA:410,0
DA:411,0
DA:412,0
DA:413,0
DA:416,5
DA:417,5
DA:418,5
DA:419,1
DA:420,1
DA:421,1
DA:422,1
DA:423,1
DA:424,4
DA:425,4
DA:426,4
DA:427,4
DA:428,4
DA:429,0
DA:430,0
DA:431,0
DA:432,0
DA:433,0
DA:436,0
DA:437,0
DA:438,0
DA:439,0
DA:440,0
DA:442,5
DA:445,0
DA:446,0
DA:447,0
DA:448,0
DA:449,0
DA:450,0
DA:451,0
DA:454,8
DA:455,8
DA:457,8
DA:458,8
DA:459,8
DA:460,8
DA:461,8
DA:464,0
DA:465,0
DA:466,0
DA:467,0
DA:468,0
DA:469,0
DA:470,0
DA:473,0
DA:474,0
DA:475,0
DA:476,0
DA:477,0
DA:478,0
DA:479,0
DA:481,0
DA:482,0
DA:483,0
DA:484,0
DA:485,0
DA:486,0
DA:488,0
DA:489,0
DA:490,0
DA:493,15
DA:494,15
DA:495,15
DA:496,15
DA:497,15
DA:498,15
DA:499,15
DA:500,0
DA:501,0
DA:502,0
DA:503,15
DA:504,15
DA:505,5
DA:506,5
DA:507,5
DA:508,5
DA:509,3
DA:510,0
DA:511,2
DA:514,0
DA:515,0
DA:516,0
DA:517,0
DA:518,0
DA:519,0
DA:522,0
DA:523,0
DA:524,0
DA:525,0
DA:526,0
DA:527,0
DA:532,10
DA:534,10
DA:535,8
DA:536,8
DA:537,8
DA:538,8
DA:539,8
DA:540,8
DA:541,4
DA:542,3
DA:543,1
DA:546,2
DA:547,2
DA:548,1
DA:549,1
DA:550,0
DA:554,15
DA:559,1
DA:560,1
DA:561,1
DA:564,1
DA:565,1
DA:566,1
DA:569,1
DA:570,1
DA:571,1
DA:574,1
DA:575,1
DA:576,1
DA:579,1
DA:580,1
DA:581,1
DA:584,1
DA:585,1
DA:586,1
DA:589,1
DA:590,1
DA:591,1
DA:594,1
DA:595,1
DA:596,1
DA:599,1
DA:600,1
DA:601,1
DA:604,1
DA:605,1
DA:606,1
DA:609,1
DA:610,1
DA:611,1
DA:614,1
DA:615,1
DA:616,1
DA:619,1
DA:620,1
DA:621,1
DA:629,1
DA:630,1
DA:631,1
DA:632,1
DA:633,1
DA:634,1
DA:635,1
DA:636,1
DA:637,1
DA:638,0
DA:639,0
DA:640,0
DA:641,0
DA:642,0
DA:643,0
DA:644,0
DA:645,0
DA:646,0
DA:647,0
DA:648,0
DA:649,0
DA:650,0
DA:651,0
DA:652,0
DA:653,0
DA:654,0
DA:655,0
DA:656,0
DA:657,0
DA:658,1
DA:659,1
DA:660,1
DA:661,1
DA:662,1
DA:663,1
DA:664,0
DA:665,1
DA:666,1
DA:667,0
DA:668,1
DA:669,1
DA:670,0
DA:671,1
DA:672,1
DA:673,0
DA:674,0
DA:675,0
DA:677,0
DA:678,0
DA:679,0
DA:680,0
DA:681,0
DA:682,0
DA:684,1
DA:686,1
DA:687,1
DA:688,1
DA:689,1
DA:690,1
DA:692,0
DA:693,0
DA:694,0
DA:697,9
DA:698,9
DA:699,9
DA:700,9
DA:701,9
DA:702,9
DA:704,9
DA:705,0
DA:706,0
DA:707,0
DA:708,9
DA:709,9
DA:710,4
DA:711,4
DA:712,4
DA:714,0
DA:715,0
DA:717,0
DA:718,0
DA:722,5
DA:724,5
DA:725,4
DA:726,4
DA:727,4
DA:728,4
DA:729,4
DA:730,4
DA:732,1
DA:735,9
DA:739,0
DA:740,0
DA:741,0
DA:745,726
DA:746,726
DA:747,726
DA:751,0
DA:752,0
DA:753,0
BRF:0
BRH:0
LF:559
LH:306
end_of_record
SF:/home/jesse/ry/crates/ryo3-jiff/src/ry_time.rs
FN:223,_RNvMsj_NtCs8WYW6vAPwZd_9ryo3_jiff7ry_timeNtB5_6RyTime10nanosecond
FN:146,_RNvMsj_NtCs8WYW6vAPwZd_9ryo3_jiff7ry_timeNtB5_6RyTime11___richcmp__
FN:247,_RNvMsj_NtCs8WYW6vAPwZd_9ryo3_jiff7ry_timeNtB5_6RyTime11from_pytime
FN:218,_RNvMsj_NtCs8WYW6vAPwZd_9ryo3_jiff7ry_timeNtB5_6RyTime11microsecond
FN:213,_RNvMsj_NtCs8WYW6vAPwZd_9ryo3_jiff7ry_timeNtB5_6RyTime11millisecond
FN:365,_RNvMsj_NtCs8WYW6vAPwZd_9ryo3_jiff7ry_timeNtB5_6RyTime11to_datetime
FN:354,_RNvMsj_NtCs8WYW6vAPwZd_9ryo3_jiff7ry_timeNtB5_6RyTime12wrapping_add
FN:359,_RNvMsj_NtCs8WYW6vAPwZd_9ryo3_jiff7ry_timeNtB5_6RyTime12wrapping_sub
FN:47,_RNvMsj_NtCs8WYW6vAPwZd_9ryo3_jiff7ry_timeNtB5_6RyTime14___getnewargs__
FN:336,_RNvMsj_NtCs8WYW6vAPwZd_9ryo3_jiff7ry_timeNtB5_6RyTime14duration_since
FN:340,_RNvMsj_NtCs8WYW6vAPwZd_9ryo3_jiff7ry_timeNtB5_6RyTime14duration_until
FN:344,_RNvMsj_NtCs8WYW6vAPwZd_9ryo3_jiff7ry_timeNtB5_6RyTime14saturating_add
FN:349,_RNvMsj_NtCs8WYW6vAPwZd_9ryo3_jiff7ry_timeNtB5_6RyTime14saturating_sub
FN:228,_RNvMsj_NtCs8WYW6vAPwZd_9ryo3_jiff7ry_timeNtB5_6RyTime17subsec_nanosecond
FN:255,_RNvMsj_NtCs8WYW6vAPwZd_9ryo3_jiff7ry_timeNtB5_6RyTime2on
FN:69,_RNvMsj_NtCs8WYW6vAPwZd_9ryo3_jiff7ry_timeNtB5_6RyTime3MAX
FN:63,_RNvMsj_NtCs8WYW6vAPwZd_9ryo3_jiff7ry_timeNtB5_6RyTime3MIN
FN:187,_RNvMsj_NtCs8WYW6vAPwZd_9ryo3_jiff7ry_timeNtB5_6RyTime3add
FN:77,_RNvMsj_NtCs8WYW6vAPwZd_9ryo3_jiff7ry_timeNtB5_6RyTime3now
FN:191,_RNvMsj_NtCs8WYW6vAPwZd_9ryo3_jiff7ry_timeNtB5_6RyTime3sub
FN:199,_RNvMsj_NtCs8WYW6vAPwZd_9ryo3_jiff7ry_timeNtB5_6RyTime4hour
FN:95,_RNvMsj_NtCs8WYW6vAPwZd_9ryo3_jiff7ry_timeNtB5_6RyTime5parse
FN:370,_RNvMsj_NtCs8WYW6vAPwZd_9ryo3_jiff7ry_timeNtB5_6RyTime5round
FN:398,_RNvMsj_NtCs8WYW6vAPwZd_9ryo3_jiff7ry_timeNtB5_6RyTime5since
FN:236,_RNvMsj_NtCs8WYW6vAPwZd_9ryo3_jiff7ry_timeNtB5_6RyTime5to_py
FN:416,_RNvMsj_NtCs8WYW6vAPwZd_9ryo3_jiff7ry_timeNtB5_6RyTime5until
FN:431,_RNvMsj_NtCs8WYW6vAPwZd_9ryo3_jiff7ry_timeNtB5_6RyTime6__since
FN:438,_RNvMsj_NtCs8WYW6vAPwZd_9ryo3_jiff7ry_timeNtB5_6RyTime6__until
FN:321,_RNvMsj_NtCs8WYW6vAPwZd_9ryo3_jiff7ry_timeNtB5_6RyTime6asdict
FN:204,_RNvMsj_NtCs8WYW6vAPwZd_9ryo3_jiff7ry_timeNtB5_6RyTime6minute
FN:31,_RNvMsj_NtCs8WYW6vAPwZd_9ryo3_jiff7ry_timeNtB5_6RyTime6py_new
FN:208,_RNvMsj_NtCs8WYW6vAPwZd_9ryo3_jiff7ry_timeNtB5_6RyTime6second
FN:330,_RNvMsj_NtCs8WYW6vAPwZd_9ryo3_jiff7ry_timeNtB5_6RyTime6series
FN:117,_RNvMsj_NtCs8WYW6vAPwZd_9ryo3_jiff7ry_timeNtB5_6RyTime6string
FN:179,_RNvMsj_NtCs8WYW6vAPwZd_9ryo3_jiff7ry_timeNtB5_6RyTime7___add__
FN:121,_RNvMsj_NtCs8WYW6vAPwZd_9ryo3_jiff7ry_timeNtB5_6RyTime7___str__
FN:163,_RNvMsj_NtCs8WYW6vAPwZd_9ryo3_jiff7ry_timeNtB5_6RyTime7___sub__
FN:309,_RNvMsj_NtCs8WYW6vAPwZd_9ryo3_jiff7ry_timeNtB5_6RyTime7astuple
FN:272,_RNvMsj_NtCs8WYW6vAPwZd_9ryo3_jiff7ry_timeNtB5_6RyTime7replace
FN:157,_RNvMsj_NtCs8WYW6vAPwZd_9ryo3_jiff7ry_timeNtB5_6RyTime8___hash__
FN:125,_RNvMsj_NtCs8WYW6vAPwZd_9ryo3_jiff7ry_timeNtB5_6RyTime8___repr__
FN:88,_RNvMsj_NtCs8WYW6vAPwZd_9ryo3_jiff7ry_timeNtB5_6RyTime8from_str
FN:83,_RNvMsj_NtCs8WYW6vAPwZd_9ryo3_jiff7ry_timeNtB5_6RyTime8midnight
FN:102,_RNvMsj_NtCs8WYW6vAPwZd_9ryo3_jiff7ry_timeNtB5_6RyTime8strftime
FN:108,_RNvMsj_NtCs8WYW6vAPwZd_9ryo3_jiff7ry_timeNtB5_6RyTime8strptime
FN:135,_RNvMsj_NtCs8WYW6vAPwZd_9ryo3_jiff7ry_timeNtB5_6RyTime9isoformat
FN:241,_RNvMsj_NtCs8WYW6vAPwZd_9ryo3_jiff7ry_timeNtB5_6RyTime9to_pytime
FN:27,_RNvMsp_NtCs8WYW6vAPwZd_9ryo3_jiff7ry_timeNtB5_6RyTime18___pymethod_to_py__
FN:27,_RNvMsp_NtCs8WYW6vAPwZd_9ryo3_jiff7ry_timeNtB5_6RyTime19___pymethod_asdict__
FN:27,_RNvMsp_NtCs8WYW6vAPwZd_9ryo3_jiff7ry_timeNtB5_6RyTime19___pymethod_string__
FN:27,_RNvMsp_NtCs8WYW6vAPwZd_9ryo3_jiff7ry_timeNtB5_6RyTime20___pymethod___str____
FN:27,_RNvMsp_NtCs8WYW6vAPwZd_9ryo3_jiff7ry_timeNtB5_6RyTime20___pymethod_astuple__
FN:27,_RNvMsp_NtCs8WYW6vAPwZd_9ryo3_jiff7ry_timeNtB5_6RyTime21___pymethod___hash____
FN:27,_RNvMsp_NtCs8WYW6vAPwZd_9ryo3_jiff7ry_timeNtB5_6RyTime21___pymethod___repr____
FN:27,_RNvMsp_NtCs8WYW6vAPwZd_9ryo3_jiff7ry_timeNtB5_6RyTime21___pymethod_get_hour__
FN:27,_RNvMsp_NtCs8WYW6vAPwZd_9ryo3_jiff7ry_timeNtB5_6RyTime22___pymethod_isoformat__
FN:27,_RNvMsp_NtCs8WYW6vAPwZd_9ryo3_jiff7ry_timeNtB5_6RyTime22___pymethod_to_pytime__
FN:27,_RNvMsp_NtCs8WYW6vAPwZd_9ryo3_jiff7ry_timeNtB5_6RyTime23___pymethod_get_minute__
FN:27,_RNvMsp_NtCs8WYW6vAPwZd_9ryo3_jiff7ry_timeNtB5_6RyTime23___pymethod_get_second__
FN:27,_RNvMsp_NtCs8WYW6vAPwZd_9ryo3_jiff7ry_timeNtB5_6RyTime27___pymethod___getnewargs____
FN:27,_RNvMsp_NtCs8WYW6vAPwZd_9ryo3_jiff7ry_timeNtB5_6RyTime27___pymethod_get_nanosecond__
FN:27,_RNvMsp_NtCs8WYW6vAPwZd_9ryo3_jiff7ry_timeNtB5_6RyTime28___pymethod_get_microsecond__
FN:27,_RNvMsp_NtCs8WYW6vAPwZd_9ryo3_jiff7ry_timeNtB5_6RyTime28___pymethod_get_millisecond__
FN:27,_RNvMsp_NtCs8WYW6vAPwZd_9ryo3_jiff7ry_timeNtB5_6RyTime34___pymethod_get_subsec_nanosecond__
FN:447,_RNvXNtCs8WYW6vAPwZd_9ryo3_jiff7ry_timeNtB2_6RyTimeNtNtCs66KPHxksi63_4core3fmt7Display3fmt
FN:458,_RNvXs0_NtCs8WYW6vAPwZd_9ryo3_jiff7ry_timeNtB5_6RyTimeINtNtCs66KPHxksi63_4core7convert4FromNtNtB7_10jiff_types8JiffTimeE4from
FN:452,_RNvXs_NtCs8WYW6vAPwZd_9ryo3_jiff7ry_timeNtB4_6RyTimeINtNtCs66KPHxksi63_4core7convert4FromNtNtNtCs3tnJ9lKo9L6_4jiff5civil4time4TimeE4from
FN:44,_RNCNvMsj_NtCs8WYW6vAPwZd_9ryo3_jiff7ry_timeNtB7_6RyTime6py_new0B9_
FN:91,_RNCNvMsj_NtCs8WYW6vAPwZd_9ryo3_jiff7ry_timeNtB7_6RyTime8from_str0B9_
FNDA:100,_RNvMsj_NtCs8WYW6vAPwZd_9ryo3_jiff7ry_timeNtB5_6RyTime10nanosecond
FNDA:255,_RNvMsj_NtCs8WYW6vAPwZd_9ryo3_jiff7ry_timeNtB5_6RyTime11___richcmp__
FNDA:201,_RNvMsj_NtCs8WYW6vAPwZd_9ryo3_jiff7ry_timeNtB5_6RyTime11from_pytime
FNDA:1,_RNvMsj_NtCs8WYW6vAPwZd_9ryo3_jiff7ry_timeNtB5_6RyTime11microsecond
FNDA:0,_RNvMsj_NtCs8WYW6vAPwZd_9ryo3_jiff7ry_timeNtB5_6RyTime11millisecond
FNDA:0,_RNvMsj_NtCs8WYW6vAPwZd_9ryo3_jiff7ry_timeNtB5_6RyTime11to_datetime
FNDA:0,_RNvMsj_NtCs8WYW6vAPwZd_9ryo3_jiff7ry_timeNtB5_6RyTime12wrapping_add
FNDA:0,_RNvMsj_NtCs8WYW6vAPwZd_9ryo3_jiff7ry_timeNtB5_6RyTime12wrapping_sub
FNDA:2,_RNvMsj_NtCs8WYW6vAPwZd_9ryo3_jiff7ry_timeNtB5_6RyTime14___getnewargs__
FNDA:0,_RNvMsj_NtCs8WYW6vAPwZd_9ryo3_jiff7ry_timeNtB5_6RyTime14duration_since
FNDA:0,_RNvMsj_NtCs8WYW6vAPwZd_9ryo3_jiff7ry_timeNtB5_6RyTime14duration_until
FNDA:0,_RNvMsj_NtCs8WYW6vAPwZd_9ryo3_jiff7ry_timeNtB5_6RyTime14saturating_add
FNDA:0,_RNvMsj_NtCs8WYW6vAPwZd_9ryo3_jiff7ry_timeNtB5_6RyTime14saturating_sub
FNDA:2,_RNvMsj_NtCs8WYW6vAPwZd_9ryo3_jiff7ry_timeNtB5_6RyTime17subsec_nanosecond
FNDA:0,_RNvMsj_NtCs8WYW6vAPwZd_9ryo3_jiff7ry_timeNtB5_6RyTime2on
FNDA:8,_RNvMsj_NtCs8WYW6vAPwZd_9ryo3_jiff7ry_timeNtB5_6RyTime3MAX
FNDA:8,_RNvMsj_NtCs8WYW6vAPwZd_9ryo3_jiff7ry_timeNtB5_6RyTime3MIN
FNDA:0,_RNvMsj_NtCs8WYW6vAPwZd_9ryo3_jiff7ry_timeNtB5_6RyTime3add
FNDA:0,_RNvMsj_NtCs8WYW6vAPwZd_9ryo3_jiff7ry_timeNtB5_6RyTime3now
FNDA:0,_RNvMsj_NtCs8WYW6vAPwZd_9ryo3_jiff7ry_timeNtB5_6RyTime3sub
FNDA:105,_RNvMsj_NtCs8WYW6vAPwZd_9ryo3_jiff7ry_timeNtB5_6RyTime4hour
FNDA:206,_RNvMsj_NtCs8WYW6vAPwZd_9ryo3_jiff7ry_timeNtB5_6RyTime5parse
FNDA:6,_RNvMsj_NtCs8WYW6vAPwZd_9ryo3_jiff7ry_timeNtB5_6RyTime5round
FNDA:0,_RNvMsj_NtCs8WYW6vAPwZd_9ryo3_jiff7ry_timeNtB5_6RyTime5since
FNDA:100,_RNvMsj_NtCs8WYW6vAPwZd_9ryo3_jiff7ry_timeNtB5_6RyTime5to_py
FNDA:3,_RNvMsj_NtCs8WYW6vAPwZd_9ryo3_jiff7ry_timeNtB5_6RyTime5until
FNDA:1,_RNvMsj_NtCs8WYW6vAPwZd_9ryo3_jiff7ry_timeNtB5_6RyTime6__since
FNDA:4,_RNvMsj_NtCs8WYW6vAPwZd_9ryo3_jiff7ry_timeNtB5_6RyTime6__until
FNDA:2,_RNvMsj_NtCs8WYW6vAPwZd_9ryo3_jiff7ry_timeNtB5_6RyTime6asdict
FNDA:105,_RNvMsj_NtCs8WYW6vAPwZd_9ryo3_jiff7ry_timeNtB5_6RyTime6minute
FNDA:462,_RNvMsj_NtCs8WYW6vAPwZd_9ryo3_jiff7ry_timeNtB5_6RyTime6py_new
FNDA:105,_RNvMsj_NtCs8WYW6vAPwZd_9ryo3_jiff7ry_timeNtB5_6RyTime6second
FNDA:5,_RNvMsj_NtCs8WYW6vAPwZd_9ryo3_jiff7ry_timeNtB5_6RyTime6series
FNDA:4,_RNvMsj_NtCs8WYW6vAPwZd_9ryo3_jiff7ry_timeNtB5_6RyTime6string
FNDA:206,_RNvMsj_NtCs8WYW6vAPwZd_9ryo3_jiff7ry_timeNtB5_6RyTime7___add__
FNDA:2,_RNvMsj_NtCs8WYW6vAPwZd_9ryo3_jiff7ry_timeNtB5_6RyTime7___str__
FNDA:104,_RNvMsj_NtCs8WYW6vAPwZd_9ryo3_jiff7ry_timeNtB5_6RyTime7___sub__
FNDA:1,_RNvMsj_NtCs8WYW6vAPwZd_9ryo3_jiff7ry_timeNtB5_6RyTime7astuple
FNDA:0,_RNvMsj_NtCs8WYW6vAPwZd_9ryo3_jiff7ry_timeNtB5_6RyTime7replace
FNDA:24,_RNvMsj_NtCs8WYW6vAPwZd_9ryo3_jiff7ry_timeNtB5_6RyTime8___hash__
FNDA:1,_RNvMsj_NtCs8WYW6vAPwZd_9ryo3_jiff7ry_timeNtB5_6RyTime8___repr__
FNDA:207,_RNvMsj_NtCs8WYW6vAPwZd_9ryo3_jiff7ry_timeNtB5_6RyTime8from_str
FNDA:0,_RNvMsj_NtCs8WYW6vAPwZd_9ryo3_jiff7ry_timeNtB5_6RyTime8midnight
FNDA:1,_RNvMsj_NtCs8WYW6vAPwZd_9ryo3_jiff7ry_timeNtB5_6RyTime8strftime
FNDA:1,_RNvMsj_NtCs8WYW6vAPwZd_9ryo3_jiff7ry_timeNtB5_6RyTime8strptime
FNDA:100,_RNvMsj_NtCs8WYW6vAPwZd_9ryo3_jiff7ry_timeNtB5_6RyTime9isoformat
FNDA:102,_RNvMsj_NtCs8WYW6vAPwZd_9ryo3_jiff7ry_timeNtB5_6RyTime9to_pytime
FNDA:0,_RNvMsp_NtCs8WYW6vAPwZd_9ryo3_jiff7ry_timeNtB5_6RyTime18___pymethod_to_py__
FNDA:0,_RNvMsp_NtCs8WYW6vAPwZd_9ryo3_jiff7ry_timeNtB5_6RyTime19___pymethod_asdict__
FNDA:0,_RNvMsp_NtCs8WYW6vAPwZd_9ryo3_jiff7ry_timeNtB5_6RyTime19___pymethod_string__
FNDA:0,_RNvMsp_NtCs8WYW6vAPwZd_9ryo3_jiff7ry_timeNtB5_6RyTime20___pymethod___str____
FNDA:0,_RNvMsp_NtCs8WYW6vAPwZd_9ryo3_jiff7ry_timeNtB5_6RyTime20___pymethod_astuple__
FNDA:0,_RNvMsp_NtCs8WYW6vAPwZd_9ryo3_jiff7ry_timeNtB5_6RyTime21___pymethod___hash____
FNDA:0,_RNvMsp_NtCs8WYW6vAPwZd_9ryo3_jiff7ry_timeNtB5_6RyTime21___pymethod___repr____
FNDA:0,_RNvMsp_NtCs8WYW6vAPwZd_9ryo3_jiff7ry_timeNtB5_6RyTime21___pymethod_get_hour__
FNDA:0,_RNvMsp_NtCs8WYW6vAPwZd_9ryo3_jiff7ry_timeNtB5_6RyTime22___pymethod_isoformat__
FNDA:0,_RNvMsp_NtCs8WYW6vAPwZd_9ryo3_jiff7ry_timeNtB5_6RyTime22___pymethod_to_pytime__
FNDA:0,_RNvMsp_NtCs8WYW6vAPwZd_9ryo3_jiff7ry_timeNtB5_6RyTime23___pymethod_get_minute__
FNDA:0,_RNvMsp_NtCs8WYW6vAPwZd_9ryo3_jiff7ry_timeNtB5_6RyTime23___pymethod_get_second__
FNDA:0,_RNvMsp_NtCs8WYW6vAPwZd_9ryo3_jiff7ry_timeNtB5_6RyTime27___pymethod___getnewargs____
FNDA:0,_RNvMsp_NtCs8WYW6vAPwZd_9ryo3_jiff7ry_timeNtB5_6RyTime27___pymethod_get_nanosecond__
FNDA:0,_RNvMsp_NtCs8WYW6vAPwZd_9ryo3_jiff7ry_timeNtB5_6RyTime28___pymethod_get_microsecond__
FNDA:0,_RNvMsp_NtCs8WYW6vAPwZd_9ryo3_jiff7ry_timeNtB5_6RyTime28___pymethod_get_millisecond__
FNDA:0,_RNvMsp_NtCs8WYW6vAPwZd_9ryo3_jiff7ry_timeNtB5_6RyTime34___pymethod_get_subsec_nanosecond__
FNDA:0,_RNvXNtCs8WYW6vAPwZd_9ryo3_jiff7ry_timeNtB2_6RyTimeNtNtCs66KPHxksi63_4core3fmt7Display3fmt
FNDA:0,_RNvXs0_NtCs8WYW6vAPwZd_9ryo3_jiff7ry_timeNtB5_6RyTimeINtNtCs66KPHxksi63_4core7convert4FromNtNtB7_10jiff_types8JiffTimeE4from
FNDA:1117,_RNvXs_NtCs8WYW6vAPwZd_9ryo3_jiff7ry_timeNtB4_6RyTimeINtNtCs66KPHxksi63_4core7convert4FromNtNtNtCs3tnJ9lKo9L6_4jiff5civil4time4TimeE4from
FNDA:0,_RNCNvMsj_NtCs8WYW6vAPwZd_9ryo3_jiff7ry_timeNtB7_6RyTime6py_new0B9_
FNDA:0,_RNCNvMsj_NtCs8WYW6vAPwZd_9ryo3_jiff7ry_timeNtB7_6RyTime8from_str0B9_
FNF:53
FNH:33
DA:27,0
DA:31,462
DA:32,462
DA:33,462
DA:34,462
DA:35,462
DA:36,462
DA:37,462
DA:38,462
DA:39,462
DA:40,462
DA:41,462
DA:43,462
DA:44,462
DA:45,462
DA:47,2
DA:48,2
DA:49,2
DA:50,2
DA:51,2
DA:52,2
DA:53,2
DA:54,2
DA:57,2
DA:63,8
DA:64,8
DA:65,8
DA:69,8
DA:70,8
DA:71,8
DA:77,0
DA:78,0
DA:79,0
DA:80,0
DA:83,0
DA:84,0
DA:85,0
DA:88,207
DA:89,207
DA:90,207
DA:91,207
DA:92,207
DA:95,206
DA:96,206
DA:97,206
DA:102,1
DA:103,1
DA:104,1
DA:108,1
DA:109,1
DA:110,1
DA:111,1
DA:112,1
DA:117,4
DA:118,4
DA:119,4
DA:121,2
DA:122,2
DA:123,2
DA:125,1
DA:126,1
DA:127,1
DA:128,1
DA:129,1
DA:130,1
DA:131,1
DA:133,1
DA:135,100
DA:136,100
DA:137,6
DA:139,94
DA:141,100
DA:146,255
DA:147,255
DA:148,255
DA:149,0
DA:150,0
DA:151,0
DA:152,0
DA:153,0
DA:155,255
DA:157,24
DA:158,24
DA:159,24
DA:160,24
DA:161,24
DA:163,104
DA:164,104
DA:165,104
DA:166,104
DA:167,104
DA:168,104
DA:169,102
DA:170,102
DA:171,102
DA:173,2
DA:174,2
DA:175,2
DA:177,104
DA:179,206
DA:180,206
DA:181,206
DA:182,206
DA:183,206
DA:184,206
DA:185,206
DA:187,0
DA:188,0
DA:189,0
DA:191,0
DA:192,0
DA:193,0
DA:199,105
DA:200,105
DA:201,105
DA:204,105
DA:205,105
DA:206,105
DA:208,105
DA:209,105
DA:210,105
DA:213,0
DA:214,0
DA:215,0
DA:218,1
DA:219,1
DA:220,1
DA:223,100
DA:224,100
DA:225,100
DA:228,2
DA:229,2
DA:230,2
DA:236,100
DA:237,100
DA:238,100
DA:241,102
DA:242,102
DA:243,102
DA:247,201
DA:248,201
DA:249,201
DA:255,0
DA:256,0
DA:257,0
DA:272,0
DA:273,0
DA:274,0
DA:275,0
DA:276,0
DA:277,0
DA:278,0
DA:279,0
DA:280,0
DA:281,0
DA:283,0
DA:284,0
DA:285,0
DA:286,0
DA:287,0
DA:288,0
DA:289,0
DA:290,0
DA:291,0
DA:292,0
DA:293,0
DA:294,0
DA:295,0
DA:296,0
DA:297,0
DA:298,0
DA:299,0
DA:300,0
DA:301,0
DA:302,0
DA:303,0
DA:304,0
DA:306,0
DA:307,0
DA:309,1
DA:310,1
DA:311,1
DA:312,1
DA:313,1
DA:314,1
DA:315,1
DA:316,1
DA:319,1
DA:321,2
DA:322,2
DA:323,2
DA:324,2
DA:325,2
DA:326,2
DA:327,2
DA:328,2
DA:330,5
DA:331,5
DA:332,5
DA:333,5
DA:334,5
DA:336,0
DA:337,0
DA:338,0
DA:340,0
DA:341,0
DA:342,0
DA:344,0
DA:345,0
DA:346,0
DA:347,0
DA:349,0
DA:350,0
DA:351,0
DA:352,0
DA:354,0
DA:355,0
DA:356,0
DA:357,0
DA:359,0
DA:360,0
DA:361,0
DA:362,0
DA:365,0
DA:366,0
DA:367,0
DA:370,6
DA:371,6
DA:372,6
DA:373,6
DA:374,6
DA:375,6
DA:376,6
DA:377,6
DA:378,6
DA:379,6
DA:380,6
DA:381,1
DA:382,5
DA:383,6
DA:384,2
DA:385,4
DA:386,6
DA:387,6
DA:388,6
DA:389,6
DA:390,6
DA:398,0
DA:399,0
DA:400,0
DA:401,0
DA:402,0
DA:403,0
DA:404,0
DA:405,0
DA:406,0
DA:407,0
DA:408,0
DA:409,0
DA:410,0
DA:411,0
DA:416,3
DA:417,3
DA:418,3
DA:419,3
DA:420,3
DA:421,3
DA:422,3
DA:423,3
DA:424,3
DA:425,3
DA:426,3
DA:427,3
DA:428,3
DA:429,3
DA:431,1
DA:432,1
DA:433,1
DA:434,1
DA:435,1
DA:436,1
DA:438,4
DA:439,4
DA:440,4
DA:441,4
DA:442,4
DA:443,4
DA:447,0
DA:448,0
DA:449,0
DA:452,1117
DA:453,1117
DA:454,1117
DA:458,0
DA:459,0
DA:460,0
BRF:0
BRH:0
LF:298
LH:192
end_of_record
SF:/home/jesse/ry/crates/ryo3-jiff/src/ry_time_difference.rs
FN:77,_RNvMs_NtCs8WYW6vAPwZd_9ryo3_jiff18ry_time_differenceNtB4_17TimeDifferenceArg5build
FN:56,_RNvMsb_NtCs8WYW6vAPwZd_9ryo3_jiff18ry_time_differenceNtB5_16RyTimeDifference4mode
FN:25,_RNvMsb_NtCs8WYW6vAPwZd_9ryo3_jiff18ry_time_differenceNtB5_16RyTimeDifference6py_new
FN:52,_RNvMsb_NtCs8WYW6vAPwZd_9ryo3_jiff18ry_time_differenceNtB5_16RyTimeDifference7largest
FN:48,_RNvMsb_NtCs8WYW6vAPwZd_9ryo3_jiff18ry_time_differenceNtB5_16RyTimeDifference8smallest
FN:60,_RNvMsb_NtCs8WYW6vAPwZd_9ryo3_jiff18ry_time_differenceNtB5_16RyTimeDifference9increment
FN:13,_RNvXNtCs8WYW6vAPwZd_9ryo3_jiff18ry_time_differenceNtB2_16RyTimeDifferenceINtNtCs66KPHxksi63_4core7convert4FromNtNtNtCs3tnJ9lKo9L6_4jiff5civil4time14TimeDifferenceE4from
FNDA:3,_RNvMs_NtCs8WYW6vAPwZd_9ryo3_jiff18ry_time_differenceNtB4_17TimeDifferenceArg5build
FNDA:5,_RNvMsb_NtCs8WYW6vAPwZd_9ryo3_jiff18ry_time_differenceNtB5_16RyTimeDifference4mode
FNDA:5,_RNvMsb_NtCs8WYW6vAPwZd_9ryo3_jiff18ry_time_differenceNtB5_16RyTimeDifference6py_new
FNDA:0,_RNvMsb_NtCs8WYW6vAPwZd_9ryo3_jiff18ry_time_differenceNtB5_16RyTimeDifference7largest
FNDA:5,_RNvMsb_NtCs8WYW6vAPwZd_9ryo3_jiff18ry_time_differenceNtB5_16RyTimeDifference8smallest
FNDA:2,_RNvMsb_NtCs8WYW6vAPwZd_9ryo3_jiff18ry_time_differenceNtB5_16RyTimeDifference9increment
FNDA:0,_RNvXNtCs8WYW6vAPwZd_9ryo3_jiff18ry_time_differenceNtB2_16RyTimeDifferenceINtNtCs66KPHxksi63_4core7convert4FromNtNtNtCs3tnJ9lKo9L6_4jiff5civil4time14TimeDifferenceE4from
FNF:7
FNH:5
DA:13,0
DA:14,0
DA:15,0
DA:25,5
DA:26,5
DA:27,5
DA:28,5
DA:29,5
DA:30,5
DA:31,5
DA:32,5
DA:33,5
DA:34,0
DA:35,5
DA:36,5
DA:37,0
DA:38,5
DA:39,5
DA:40,0
DA:41,5
DA:42,5
DA:43,0
DA:44,5
DA:45,5
DA:46,5
DA:48,5
DA:49,5
DA:50,5
DA:52,0
DA:53,0
DA:54,0
DA:56,5
DA:57,5
DA:58,5
DA:60,2
DA:61,2
DA:62,2
DA:77,3
DA:78,3
DA:79,3
DA:80,3
DA:81,3
DA:82,3
DA:83,3
DA:84,3
DA:85,3
DA:86,0
DA:87,0
DA:89,3
DA:90,0
DA:91,3
DA:92,3
DA:93,0
DA:94,3
DA:95,3
DA:96,0
DA:97,3
DA:98,3
DA:99,0
DA:100,3
DA:101,3
DA:102,3
BRF:0
BRH:0
LF:62
LH:46
end_of_record
SF:/home/jesse/ry/crates/ryo3-jiff/src/ry_timestamp.rs
FN:252,_RNCNvMse_NtCs8WYW6vAPwZd_9ryo3_jiff12ry_timestampNtB7_11RyTimestamp11from_second0B9_
FN:245,_RNCNvMse_NtCs8WYW6vAPwZd_9ryo3_jiff12ry_timestampNtB7_11RyTimestamp15from_nanosecond0B9_
FN:238,_RNCNvMse_NtCs8WYW6vAPwZd_9ryo3_jiff12ry_timestampNtB7_11RyTimestamp16from_microsecond0B9_
FN:89,_RNCNvMse_NtCs8WYW6vAPwZd_9ryo3_jiff12ry_timestampNtB7_11RyTimestamp16from_millisecond0B9_
FN:38,_RNCNvMse_NtCs8WYW6vAPwZd_9ryo3_jiff12ry_timestampNtB7_11RyTimestamp6py_new0B9_
FN:77,_RNCNvMse_NtCs8WYW6vAPwZd_9ryo3_jiff12ry_timestampNtB7_11RyTimestamp8from_str0B9_
FN:64,_RNvMse_NtCs8WYW6vAPwZd_9ryo3_jiff12ry_timestampNtB5_11RyTimestamp10UNIX_EPOCH
FN:118,_RNvMse_NtCs8WYW6vAPwZd_9ryo3_jiff12ry_timestampNtB5_11RyTimestamp11___richcmp__
FN:249,_RNvMse_NtCs8WYW6vAPwZd_9ryo3_jiff12ry_timestampNtB5_11RyTimestamp11from_second
FN:196,_RNvMse_NtCs8WYW6vAPwZd_9ryo3_jiff12ry_timestampNtB5_11RyTimestamp13as_nanosecond
FN:106,_RNvMse_NtCs8WYW6vAPwZd_9ryo3_jiff12ry_timestampNtB5_11RyTimestamp13to_pydatetime
FN:41,_RNvMse_NtCs8WYW6vAPwZd_9ryo3_jiff12ry_timestampNtB5_11RyTimestamp14___getnewargs__
FN:188,_RNvMse_NtCs8WYW6vAPwZd_9ryo3_jiff12ry_timestampNtB5_11RyTimestamp14as_microsecond
FN:192,_RNvMse_NtCs8WYW6vAPwZd_9ryo3_jiff12ry_timestampNtB5_11RyTimestamp14as_millisecond
FN:329,_RNvMse_NtCs8WYW6vAPwZd_9ryo3_jiff12ry_timestampNtB5_11RyTimestamp14duration_since
FN:333,_RNvMse_NtCs8WYW6vAPwZd_9ryo3_jiff12ry_timestampNtB5_11RyTimestamp14duration_until
FN:369,_RNvMse_NtCs8WYW6vAPwZd_9ryo3_jiff12ry_timestampNtB5_11RyTimestamp14saturating_add
FN:375,_RNvMse_NtCs8WYW6vAPwZd_9ryo3_jiff12ry_timestampNtB5_11RyTimestamp14saturating_sub
FN:242,_RNvMse_NtCs8WYW6vAPwZd_9ryo3_jiff12ry_timestampNtB5_11RyTimestamp15from_nanosecond
FN:97,_RNvMse_NtCs8WYW6vAPwZd_9ryo3_jiff12ry_timestampNtB5_11RyTimestamp15from_pydatetime
FN:235,_RNvMse_NtCs8WYW6vAPwZd_9ryo3_jiff12ry_timestampNtB5_11RyTimestamp16from_microsecond
FN:86,_RNvMse_NtCs8WYW6vAPwZd_9ryo3_jiff12ry_timestampNtB5_11RyTimestamp16from_millisecond
FN:200,_RNvMse_NtCs8WYW6vAPwZd_9ryo3_jiff12ry_timestampNtB5_11RyTimestamp17subsec_nanosecond
FN:204,_RNvMse_NtCs8WYW6vAPwZd_9ryo3_jiff12ry_timestampNtB5_11RyTimestamp18subsec_microsecond
FN:208,_RNvMse_NtCs8WYW6vAPwZd_9ryo3_jiff12ry_timestampNtB5_11RyTimestamp18subsec_millisecond
FN:324,_RNvMse_NtCs8WYW6vAPwZd_9ryo3_jiff12ry_timestampNtB5_11RyTimestamp19display_with_offset
FN:58,_RNvMse_NtCs8WYW6vAPwZd_9ryo3_jiff12ry_timestampNtB5_11RyTimestamp3MAX
FN:52,_RNvMse_NtCs8WYW6vAPwZd_9ryo3_jiff12ry_timestampNtB5_11RyTimestamp3MIN
FN:172,_RNvMse_NtCs8WYW6vAPwZd_9ryo3_jiff12ry_timestampNtB5_11RyTimestamp3add
FN:69,_RNvMse_NtCs8WYW6vAPwZd_9ryo3_jiff12ry_timestampNtB5_11RyTimestamp3now
FN:176,_RNvMse_NtCs8WYW6vAPwZd_9ryo3_jiff12ry_timestampNtB5_11RyTimestamp3sub
FN:229,_RNvMse_NtCs8WYW6vAPwZd_9ryo3_jiff12ry_timestampNtB5_11RyTimestamp4intz
FN:222,_RNvMse_NtCs8WYW6vAPwZd_9ryo3_jiff12ry_timestampNtB5_11RyTimestamp5in_tz
FN:81,_RNvMse_NtCs8WYW6vAPwZd_9ryo3_jiff12ry_timestampNtB5_11RyTimestamp5parse
FN:340,_RNvMse_NtCs8WYW6vAPwZd_9ryo3_jiff12ry_timestampNtB5_11RyTimestamp5round
FN:277,_RNvMse_NtCs8WYW6vAPwZd_9ryo3_jiff12ry_timestampNtB5_11RyTimestamp5since
FN:102,_RNvMse_NtCs8WYW6vAPwZd_9ryo3_jiff12ry_timestampNtB5_11RyTimestamp5to_py
FN:295,_RNvMse_NtCs8WYW6vAPwZd_9ryo3_jiff12ry_timestampNtB5_11RyTimestamp5until
FN:362,_RNvMse_NtCs8WYW6vAPwZd_9ryo3_jiff12ry_timestampNtB5_11RyTimestamp6__round
FN:310,_RNvMse_NtCs8WYW6vAPwZd_9ryo3_jiff12ry_timestampNtB5_11RyTimestamp6__since
FN:317,_RNvMse_NtCs8WYW6vAPwZd_9ryo3_jiff12ry_timestampNtB5_11RyTimestamp6__until
FN:33,_RNvMse_NtCs8WYW6vAPwZd_9ryo3_jiff12ry_timestampNtB5_11RyTimestamp6py_new
FN:212,_RNvMse_NtCs8WYW6vAPwZd_9ryo3_jiff12ry_timestampNtB5_11RyTimestamp6series
FN:255,_RNvMse_NtCs8WYW6vAPwZd_9ryo3_jiff12ry_timestampNtB5_11RyTimestamp6signum
FN:129,_RNvMse_NtCs8WYW6vAPwZd_9ryo3_jiff12ry_timestampNtB5_11RyTimestamp6string
FN:164,_RNvMse_NtCs8WYW6vAPwZd_9ryo3_jiff12ry_timestampNtB5_11RyTimestamp7___add__
FN:148,_RNvMse_NtCs8WYW6vAPwZd_9ryo3_jiff12ry_timestampNtB5_11RyTimestamp7___sub__
FN:218,_RNvMse_NtCs8WYW6vAPwZd_9ryo3_jiff12ry_timestampNtB5_11RyTimestamp7is_zero
FN:141,_RNvMse_NtCs8WYW6vAPwZd_9ryo3_jiff12ry_timestampNtB5_11RyTimestamp8___hash__
FN:133,_RNvMse_NtCs8WYW6vAPwZd_9ryo3_jiff12ry_timestampNtB5_11RyTimestamp8___repr__
FN:74,_RNvMse_NtCs8WYW6vAPwZd_9ryo3_jiff12ry_timestampNtB5_11RyTimestamp8from_str
FN:262,_RNvMse_NtCs8WYW6vAPwZd_9ryo3_jiff12ry_timestampNtB5_11RyTimestamp8strftime
FN:268,_RNvMse_NtCs8WYW6vAPwZd_9ryo3_jiff12ry_timestampNtB5_11RyTimestamp8strptime
FN:92,_RNvMse_NtCs8WYW6vAPwZd_9ryo3_jiff12ry_timestampNtB5_11RyTimestamp8to_zoned
FN:184,_RNvMse_NtCs8WYW6vAPwZd_9ryo3_jiff12ry_timestampNtB5_11RyTimestamp9as_second
FN:110,_RNvMse_NtCs8WYW6vAPwZd_9ryo3_jiff12ry_timestampNtB5_11RyTimestamp9to_pydate
FN:114,_RNvMse_NtCs8WYW6vAPwZd_9ryo3_jiff12ry_timestampNtB5_11RyTimestamp9to_pytime
FN:29,_RNvMsk_NtCs8WYW6vAPwZd_9ryo3_jiff12ry_timestampNtB5_11RyTimestamp18___pymethod_to_py__
FN:29,_RNvMsk_NtCs8WYW6vAPwZd_9ryo3_jiff12ry_timestampNtB5_11RyTimestamp19___pymethod_signum__
FN:29,_RNvMsk_NtCs8WYW6vAPwZd_9ryo3_jiff12ry_timestampNtB5_11RyTimestamp19___pymethod_string__
FN:29,_RNvMsk_NtCs8WYW6vAPwZd_9ryo3_jiff12ry_timestampNtB5_11RyTimestamp21___pymethod___hash____
FN:29,_RNvMsk_NtCs8WYW6vAPwZd_9ryo3_jiff12ry_timestampNtB5_11RyTimestamp21___pymethod___repr____
FN:29,_RNvMsk_NtCs8WYW6vAPwZd_9ryo3_jiff12ry_timestampNtB5_11RyTimestamp22___pymethod_as_second__
FN:29,_RNvMsk_NtCs8WYW6vAPwZd_9ryo3_jiff12ry_timestampNtB5_11RyTimestamp22___pymethod_to_pydate__
FN:29,_RNvMsk_NtCs8WYW6vAPwZd_9ryo3_jiff12ry_timestampNtB5_11RyTimestamp22___pymethod_to_pytime__
FN:29,_RNvMsk_NtCs8WYW6vAPwZd_9ryo3_jiff12ry_timestampNtB5_11RyTimestamp24___pymethod_get_is_zero__
FN:29,_RNvMsk_NtCs8WYW6vAPwZd_9ryo3_jiff12ry_timestampNtB5_11RyTimestamp26___pymethod_as_nanosecond__
FN:29,_RNvMsk_NtCs8WYW6vAPwZd_9ryo3_jiff12ry_timestampNtB5_11RyTimestamp26___pymethod_to_pydatetime__
FN:29,_RNvMsk_NtCs8WYW6vAPwZd_9ryo3_jiff12ry_timestampNtB5_11RyTimestamp27___pymethod___getnewargs____
FN:29,_RNvMsk_NtCs8WYW6vAPwZd_9ryo3_jiff12ry_timestampNtB5_11RyTimestamp27___pymethod_as_microsecond__
FN:29,_RNvMsk_NtCs8WYW6vAPwZd_9ryo3_jiff12ry_timestampNtB5_11RyTimestamp27___pymethod_as_millisecond__
FN:29,_RNvMsk_NtCs8WYW6vAPwZd_9ryo3_jiff12ry_timestampNtB5_11RyTimestamp30___pymethod_subsec_nanosecond__
FN:29,_RNvMsk_NtCs8WYW6vAPwZd_9ryo3_jiff12ry_timestampNtB5_11RyTimestamp31___pymethod_subsec_microsecond__
FN:29,_RNvMsk_NtCs8WYW6vAPwZd_9ryo3_jiff12ry_timestampNtB5_11RyTimestamp31___pymethod_subsec_millisecond__
FN:383,_RNvXNtCs8WYW6vAPwZd_9ryo3_jiff12ry_timestampNtB2_11RyTimestampNtNtCs66KPHxksi63_4core3fmt7Display3fmt
FN:388,_RNvXs_NtCs8WYW6vAPwZd_9ryo3_jiff12ry_timestampNtB4_11RyTimestampINtNtCs66KPHxksi63_4core7convert4FromNtNtCs3tnJ9lKo9L6_4jiff9timestamp9TimestampE4from
FNDA:0,_RNCNvMse_NtCs8WYW6vAPwZd_9ryo3_jiff12ry_timestampNtB7_11RyTimestamp11from_second0B9_
FNDA:0,_RNCNvMse_NtCs8WYW6vAPwZd_9ryo3_jiff12ry_timestampNtB7_11RyTimestamp15from_nanosecond0B9_
FNDA:0,_RNCNvMse_NtCs8WYW6vAPwZd_9ryo3_jiff12ry_timestampNtB7_11RyTimestamp16from_microsecond0B9_
FNDA:0,_RNCNvMse_NtCs8WYW6vAPwZd_9ryo3_jiff12ry_timestampNtB7_11RyTimestamp16from_millisecond0B9_
FNDA:0,_RNCNvMse_NtCs8WYW6vAPwZd_9ryo3_jiff12ry_timestampNtB7_11RyTimestamp6py_new0B9_
FNDA:0,_RNCNvMse_NtCs8WYW6vAPwZd_9ryo3_jiff12ry_timestampNtB7_11RyTimestamp8from_str0B9_
FNDA:8,_RNvMse_NtCs8WYW6vAPwZd_9ryo3_jiff12ry_timestampNtB5_11RyTimestamp10UNIX_EPOCH
FNDA:32,_RNvMse_NtCs8WYW6vAPwZd_9ryo3_jiff12ry_timestampNtB5_11RyTimestamp11___richcmp__
FNDA:4,_RNvMse_NtCs8WYW6vAPwZd_9ryo3_jiff12ry_timestampNtB5_11RyTimestamp11from_second
FNDA:3,_RNvMse_NtCs8WYW6vAPwZd_9ryo3_jiff12ry_timestampNtB5_11RyTimestamp13as_nanosecond
FNDA:0,_RNvMse_NtCs8WYW6vAPwZd_9ryo3_jiff12ry_timestampNtB5_11RyTimestamp13to_pydatetime
FNDA:2,_RNvMse_NtCs8WYW6vAPwZd_9ryo3_jiff12ry_timestampNtB5_11RyTimestamp14___getnewargs__
FNDA:0,_RNvMse_NtCs8WYW6vAPwZd_9ryo3_jiff12ry_timestampNtB5_11RyTimestamp14as_microsecond
FNDA:0,_RNvMse_NtCs8WYW6vAPwZd_9ryo3_jiff12ry_timestampNtB5_11RyTimestamp14as_millisecond
FNDA:0,_RNvMse_NtCs8WYW6vAPwZd_9ryo3_jiff12ry_timestampNtB5_11RyTimestamp14duration_since
FNDA:0,_RNvMse_NtCs8WYW6vAPwZd_9ryo3_jiff12ry_timestampNtB5_11RyTimestamp14duration_until
FNDA:0,_RNvMse_NtCs8WYW6vAPwZd_9ryo3_jiff12ry_timestampNtB5_11RyTimestamp14saturating_add
FNDA:0,_RNvMse_NtCs8WYW6vAPwZd_9ryo3_jiff12ry_timestampNtB5_11RyTimestamp14saturating_sub
FNDA:0,_RNvMse_NtCs8WYW6vAPwZd_9ryo3_jiff12ry_timestampNtB5_11RyTimestamp15from_nanosecond
FNDA:0,_RNvMse_NtCs8WYW6vAPwZd_9ryo3_jiff12ry_timestampNtB5_11RyTimestamp15from_pydatetime
FNDA:0,_RNvMse_NtCs8WYW6vAPwZd_9ryo3_jiff12ry_timestampNtB5_11RyTimestamp16from_microsecond
FNDA:9,_RNvMse_NtCs8WYW6vAPwZd_9ryo3_jiff12ry_timestampNtB5_11RyTimestamp16from_millisecond
FNDA:2,_RNvMse_NtCs8WYW6vAPwZd_9ryo3_jiff12ry_timestampNtB5_11RyTimestamp17subsec_nanosecond
FNDA:0,_RNvMse_NtCs8WYW6vAPwZd_9ryo3_jiff12ry_timestampNtB5_11RyTimestamp18subsec_microsecond
FNDA:0,_RNvMse_NtCs8WYW6vAPwZd_9ryo3_jiff12ry_timestampNtB5_11RyTimestamp18subsec_millisecond
FNDA:0,_RNvMse_NtCs8WYW6vAPwZd_9ryo3_jiff12ry_timestampNtB5_11RyTimestamp19display_with_offset
FNDA:8,_RNvMse_NtCs8WYW6vAPwZd_9ryo3_jiff12ry_timestampNtB5_11RyTimestamp3MAX
FNDA:8,_RNvMse_NtCs8WYW6vAPwZd_9ryo3_jiff12ry_timestampNtB5_11RyTimestamp3MIN
FNDA:0,_RNvMse_NtCs8WYW6vAPwZd_9ryo3_jiff12ry_timestampNtB5_11RyTimestamp3add
FNDA:2,_RNvMse_NtCs8WYW6vAPwZd_9ryo3_jiff12ry_timestampNtB5_11RyTimestamp3now
FNDA:0,_RNvMse_NtCs8WYW6vAPwZd_9ryo3_jiff12ry_timestampNtB5_11RyTimestamp3sub
FNDA:0,_RNvMse_NtCs8WYW6vAPwZd_9ryo3_jiff12ry_timestampNtB5_11RyTimestamp4intz
FNDA:0,_RNvMse_NtCs8WYW6vAPwZd_9ryo3_jiff12ry_timestampNtB5_11RyTimestamp5in_tz
FNDA:23,_RNvMse_NtCs8WYW6vAPwZd_9ryo3_jiff12ry_timestampNtB5_11RyTimestamp5parse
FNDA:0,_RNvMse_NtCs8WYW6vAPwZd_9ryo3_jiff12ry_timestampNtB5_11RyTimestamp5round
FNDA:0,_RNvMse_NtCs8WYW6vAPwZd_9ryo3_jiff12ry_timestampNtB5_11RyTimestamp5since
FNDA:0,_RNvMse_NtCs8WYW6vAPwZd_9ryo3_jiff12ry_timestampNtB5_11RyTimestamp5to_py
FNDA:0,_RNvMse_NtCs8WYW6vAPwZd_9ryo3_jiff12ry_timestampNtB5_11RyTimestamp5until
FNDA:0,_RNvMse_NtCs8WYW6vAPwZd_9ryo3_jiff12ry_timestampNtB5_11RyTimestamp6__round
FNDA:1,_RNvMse_NtCs8WYW6vAPwZd_9ryo3_jiff12ry_timestampNtB5_11RyTimestamp6__since
FNDA:6,_RNvMse_NtCs8WYW6vAPwZd_9ryo3_jiff12ry_timestampNtB5_11RyTimestamp6__until
FNDA:12,_RNvMse_NtCs8WYW6vAPwZd_9ryo3_jiff12ry_timestampNtB5_11RyTimestamp6py_new
FNDA:1,_RNvMse_NtCs8WYW6vAPwZd_9ryo3_jiff12ry_timestampNtB5_11RyTimestamp6series
FNDA:0,_RNvMse_NtCs8WYW6vAPwZd_9ryo3_jiff12ry_timestampNtB5_11RyTimestamp6signum
FNDA:4,_RNvMse_NtCs8WYW6vAPwZd_9ryo3_jiff12ry_timestampNtB5_11RyTimestamp6string
FNDA:3,_RNvMse_NtCs8WYW6vAPwZd_9ryo3_jiff12ry_timestampNtB5_11RyTimestamp7___add__
FNDA:4,_RNvMse_NtCs8WYW6vAPwZd_9ryo3_jiff12ry_timestampNtB5_11RyTimestamp7___sub__
FNDA:0,_RNvMse_NtCs8WYW6vAPwZd_9ryo3_jiff12ry_timestampNtB5_11RyTimestamp7is_zero
FNDA:0,_RNvMse_NtCs8WYW6vAPwZd_9ryo3_jiff12ry_timestampNtB5_11RyTimestamp8___hash__
FNDA:2,_RNvMse_NtCs8WYW6vAPwZd_9ryo3_jiff12ry_timestampNtB5_11RyTimestamp8___repr__
FNDA:24,_RNvMse_NtCs8WYW6vAPwZd_9ryo3_jiff12ry_timestampNtB5_11RyTimestamp8from_str
FNDA:0,_RNvMse_NtCs8WYW6vAPwZd_9ryo3_jiff12ry_timestampNtB5_11RyTimestamp8strftime
FNDA:0,_RNvMse_NtCs8WYW6vAPwZd_9ryo3_jiff12ry_timestampNtB5_11RyTimestamp8strptime
FNDA:3,_RNvMse_NtCs8WYW6vAPwZd_9ryo3_jiff12ry_timestampNtB5_11RyTimestamp8to_zoned
FNDA:7,_RNvMse_NtCs8WYW6vAPwZd_9ryo3_jiff12ry_timestampNtB5_11RyTimestamp9as_second
FNDA:0,_RNvMse_NtCs8WYW6vAPwZd_9ryo3_jiff12ry_timestampNtB5_11RyTimestamp9to_pydate
FNDA:0,_RNvMse_NtCs8WYW6vAPwZd_9ryo3_jiff12ry_timestampNtB5_11RyTimestamp9to_pytime
FNDA:0,_RNvMsk_NtCs8WYW6vAPwZd_9ryo3_jiff12ry_timestampNtB5_11RyTimestamp18___pymethod_to_py__
FNDA:0,_RNvMsk_NtCs8WYW6vAPwZd_9ryo3_jiff12ry_timestampNtB5_11RyTimestamp19___pymethod_signum__
FNDA:0,_RNvMsk_NtCs8WYW6vAPwZd_9ryo3_jiff12ry_timestampNtB5_11RyTimestamp19___pymethod_string__
FNDA:0,_RNvMsk_NtCs8WYW6vAPwZd_9ryo3_jiff12ry_timestampNtB5_11RyTimestamp21___pymethod___hash____
FNDA:0,_RNvMsk_NtCs8WYW6vAPwZd_9ryo3_jiff12ry_timestampNtB5_11RyTimestamp21___pymethod___repr____
FNDA:0,_RNvMsk_NtCs8WYW6vAPwZd_9ryo3_jiff12ry_timestampNtB5_11RyTimestamp22___pymethod_as_second__
FNDA:0,_RNvMsk_NtCs8WYW6vAPwZd_9ryo3_jiff12ry_timestampNtB5_11RyTimestamp22___pymethod_to_pydate__
FNDA:0,_RNvMsk_NtCs8WYW6vAPwZd_9ryo3_jiff12ry_timestampNtB5_11RyTimestamp22___pymethod_to_pytime__
FNDA:0,_RNvMsk_NtCs8WYW6vAPwZd_9ryo3_jiff12ry_timestampNtB5_11RyTimestamp24___pymethod_get_is_zero__
FNDA:0,_RNvMsk_NtCs8WYW6vAPwZd_9ryo3_jiff12ry_timestampNtB5_11RyTimestamp26___pymethod_as_nanosecond__
FNDA:0,_RNvMsk_NtCs8WYW6vAPwZd_9ryo3_jiff12ry_timestampNtB5_11RyTimestamp26___pymethod_to_pydatetime__
FNDA:0,_RNvMsk_NtCs8WYW6vAPwZd_9ryo3_jiff12ry_timestampNtB5_11RyTimestamp27___pymethod___getnewargs____
FNDA:0,_RNvMsk_NtCs8WYW6vAPwZd_9ryo3_jiff12ry_timestampNtB5_11RyTimestamp27___pymethod_as_microsecond__
FNDA:0,_RNvMsk_NtCs8WYW6vAPwZd_9ryo3_jiff12ry_timestampNtB5_11RyTimestamp27___pymethod_as_millisecond__
FNDA:0,_RNvMsk_NtCs8WYW6vAPwZd_9ryo3_jiff12ry_timestampNtB5_11RyTimestamp30___pymethod_subsec_nanosecond__
FNDA:0,_RNvMsk_NtCs8WYW6vAPwZd_9ryo3_jiff12ry_timestampNtB5_11RyTimestamp31___pymethod_subsec_microsecond__
FNDA:0,_RNvMsk_NtCs8WYW6vAPwZd_9ryo3_jiff12ry_timestampNtB5_11RyTimestamp31___pymethod_subsec_millisecond__
FNDA:0,_RNvXNtCs8WYW6vAPwZd_9ryo3_jiff12ry_timestampNtB2_11RyTimestampNtNtCs66KPHxksi63_4core3fmt7Display3fmt
FNDA:67,_RNvXs_NtCs8WYW6vAPwZd_9ryo3_jiff12ry_timestampNtB4_11RyTimestampINtNtCs66KPHxksi63_4core7convert4FromNtNtCs3tnJ9lKo9L6_4jiff9timestamp9TimestampE4from
FNF:60
FNH:23
DA:29,0
DA:33,12
DA:34,12
DA:35,12
DA:36,12
DA:37,12
DA:38,12
DA:39,12
DA:41,2
DA:42,2
DA:43,2
DA:44,2
DA:45,2
DA:46,2
DA:49,2
DA:52,8
DA:53,8
DA:54,8
DA:58,8
DA:59,8
DA:60,8
DA:64,8
DA:65,8
DA:66,8
DA:69,2
DA:70,2
DA:71,2
DA:74,24
DA:75,24
DA:76,24
DA:77,24
DA:78,24
DA:81,23
DA:82,23
DA:83,23
DA:86,9
DA:87,9
DA:88,9
DA:89,9
DA:90,9
DA:92,3
DA:93,3
DA:94,3
DA:97,0
DA:98,0
DA:99,0
DA:100,0
DA:102,0
DA:103,0
DA:104,0
DA:106,0
DA:107,0
DA:108,0
DA:110,0
DA:111,0
DA:112,0
DA:114,0
DA:115,0
DA:116,0
DA:118,32
DA:119,32
DA:120,21
DA:121,0
DA:122,0
DA:123,0
DA:124,11
DA:125,0
DA:127,32
DA:129,4
DA:130,4
DA:131,4
DA:133,2
DA:134,2
DA:135,2
DA:136,2
DA:137,2
DA:139,2
DA:141,0
DA:142,0
DA:144,0
DA:145,0
DA:146,0
DA:148,4
DA:149,4
DA:150,4
DA:151,4
DA:152,4
DA:153,4
DA:154,2
DA:155,2
DA:156,2
DA:158,2
DA:159,2
DA:160,2
DA:162,4
DA:164,3
DA:165,3
DA:166,3
DA:167,3
DA:168,3
DA:169,3
DA:170,3
DA:172,0
DA:173,0
DA:174,0
DA:176,0
DA:177,0
DA:178,0
DA:179,0
DA:180,0
DA:181,0
DA:182,0
DA:184,7
DA:185,7
DA:186,7
DA:188,0
DA:189,0
DA:190,0
DA:192,0
DA:193,0
DA:194,0
DA:196,3
DA:197,3
DA:198,3
DA:200,2
DA:201,2
DA:202,2
DA:204,0
DA:205,0
DA:206,0
DA:208,0
DA:209,0
DA:210,0
DA:212,1
DA:213,1
DA:214,1
DA:215,1
DA:218,0
DA:219,0
DA:220,0
DA:222,0
DA:223,0
DA:224,0
DA:225,0
DA:226,0
DA:227,0
DA:229,0
DA:230,0
DA:231,0
DA:232,0
DA:235,0
DA:236,0
DA:237,0
DA:238,0
DA:239,0
DA:242,0
DA:243,0
DA:244,0
DA:245,0
DA:246,0
DA:249,4
DA:250,4
DA:251,4
DA:252,4
DA:253,4
DA:255,0
DA:256,0
DA:257,0
DA:262,0
DA:263,0
DA:264,0
DA:268,0
DA:269,0
DA:270,0
DA:271,0
DA:272,0
DA:277,0
DA:278,0
DA:279,0
DA:280,0
DA:281,0
DA:282,0
DA:283,0
DA:284,0
DA:285,0
DA:286,0
DA:287,0
DA:288,0
DA:289,0
DA:290,0
DA:295,0
DA:296,0
DA:297,0
DA:298,0
DA:299,0
DA:300,0
DA:301,0
DA:302,0
DA:303,0
DA:304,0
DA:305,0
DA:306,0
DA:307,0
DA:308,0
DA:310,1
DA:311,1
DA:312,1
DA:313,1
DA:314,1
DA:315,1
DA:317,6
DA:318,6
DA:319,6
DA:320,6
DA:321,6
DA:322,6
DA:324,0
DA:325,0
DA:326,0
DA:327,0
DA:329,0
DA:330,0
DA:331,0
DA:333,0
DA:334,0
DA:335,0
DA:340,0
DA:341,0
DA:342,0
DA:343,0
DA:344,0
DA:345,0
DA:346,0
DA:347,0
DA:348,0
DA:349,0
DA:350,0
DA:351,0
DA:352,0
DA:353,0
DA:354,0
DA:355,0
DA:356,0
DA:357,0
DA:358,0
DA:359,0
DA:360,0
DA:362,0
DA:363,0
DA:364,0
DA:365,0
DA:366,0
DA:367,0
DA:369,0
DA:370,0
DA:371,0
DA:372,0
DA:373,0
DA:375,0
DA:376,0
DA:377,0
DA:378,0
DA:379,0
DA:383,0
DA:384,0
DA:385,0
DA:388,67
DA:389,67
DA:390,67
BRF:0
BRH:0
LF:275
LH:109
end_of_record
SF:/home/jesse/ry/crates/ryo3-jiff/src/ry_timestamp_difference.rs
FN:71,_RNvMs_NtCs8WYW6vAPwZd_9ryo3_jiff23ry_timestamp_differenceNtB4_22TimestampDifferenceArg5build
FN:55,_RNvMsb_NtCs8WYW6vAPwZd_9ryo3_jiff23ry_timestamp_differenceNtB5_21RyTimestampDifference4mode
FN:24,_RNvMsb_NtCs8WYW6vAPwZd_9ryo3_jiff23ry_timestamp_differenceNtB5_21RyTimestampDifference6py_new
FN:51,_RNvMsb_NtCs8WYW6vAPwZd_9ryo3_jiff23ry_timestamp_differenceNtB5_21RyTimestampDifference7largest
FN:47,_RNvMsb_NtCs8WYW6vAPwZd_9ryo3_jiff23ry_timestamp_differenceNtB5_21RyTimestampDifference8smallest
FN:59,_RNvMsb_NtCs8WYW6vAPwZd_9ryo3_jiff23ry_timestamp_differenceNtB5_21RyTimestampDifference9increment
FN:12,_RNvXNtCs8WYW6vAPwZd_9ryo3_jiff23ry_timestamp_differenceNtB2_21RyTimestampDifferenceINtNtCs66KPHxksi63_4core7convert4FromNtNtCs3tnJ9lKo9L6_4jiff9timestamp19TimestampDifferenceE4from
FNDA:0,_RNvMs_NtCs8WYW6vAPwZd_9ryo3_jiff23ry_timestamp_differenceNtB4_22TimestampDifferenceArg5build
FNDA:6,_RNvMsb_NtCs8WYW6vAPwZd_9ryo3_jiff23ry_timestamp_differenceNtB5_21RyTimestampDifference4mode
FNDA:7,_RNvMsb_NtCs8WYW6vAPwZd_9ryo3_jiff23ry_timestamp_differenceNtB5_21RyTimestampDifference6py_new
FNDA:3,_RNvMsb_NtCs8WYW6vAPwZd_9ryo3_jiff23ry_timestamp_differenceNtB5_21RyTimestampDifference7largest
FNDA:6,_RNvMsb_NtCs8WYW6vAPwZd_9ryo3_jiff23ry_timestamp_differenceNtB5_21RyTimestampDifference8smallest
FNDA:3,_RNvMsb_NtCs8WYW6vAPwZd_9ryo3_jiff23ry_timestamp_differenceNtB5_21RyTimestampDifference9increment
FNDA:0,_RNvXNtCs8WYW6vAPwZd_9ryo3_jiff23ry_timestamp_differenceNtB2_21RyTimestampDifferenceINtNtCs66KPHxksi63_4core7convert4FromNtNtCs3tnJ9lKo9L6_4jiff9timestamp19TimestampDifferenceE4from
FNF:7
FNH:5
DA:12,0
DA:13,0
DA:14,0
DA:24,7
DA:25,7
DA:26,7
DA:27,7
DA:28,7
DA:29,7
DA:30,7
DA:31,7
DA:32,7
DA:33,0
DA:34,7
DA:35,7
DA:36,0
DA:37,7
DA:38,7
DA:39,0
DA:40,7
DA:41,7
DA:42,0
DA:43,7
DA:44,7
DA:45,7
DA:47,6
DA:48,6
DA:49,6
DA:51,3
DA:52,3
DA:53,3
DA:55,6
DA:56,6
DA:57,6
DA:59,3
DA:60,3
DA:61,3
DA:71,0
DA:72,0
DA:73,0
DA:74,0
DA:75,0
DA:76,0
DA:77,0
DA:78,0
DA:79,0
DA:80,0
DA:82,0
DA:83,0
DA:84,0
DA:85,0
DA:86,0
DA:87,0
DA:88,0
DA:89,0
DA:90,0
DA:91,0
DA:92,0
DA:93,0
DA:94,0
DA:95,0
BRF:0
BRH:0
LF:61
LH:30
end_of_record
SF:/home/jesse/ry/crates/ryo3-jiff/src/ry_timestamp_round.rs
FN:93,_RNvMs9_NtCs8WYW6vAPwZd_9ryo3_jiff18ry_timestamp_roundNtB5_16RyTimestampRound10__increment
FN:77,_RNvMs9_NtCs8WYW6vAPwZd_9ryo3_jiff18ry_timestamp_roundNtB5_16RyTimestampRound4mode
FN:89,_RNvMs9_NtCs8WYW6vAPwZd_9ryo3_jiff18ry_timestamp_roundNtB5_16RyTimestampRound5__mode
FN:45,_RNvMs9_NtCs8WYW6vAPwZd_9ryo3_jiff18ry_timestamp_roundNtB5_16RyTimestampRound6___eq__
FN:19,_RNvMs9_NtCs8WYW6vAPwZd_9ryo3_jiff18ry_timestamp_roundNtB5_16RyTimestampRound6py_new
FN:34,_RNvMs9_NtCs8WYW6vAPwZd_9ryo3_jiff18ry_timestamp_roundNtB5_16RyTimestampRound7___str__
FN:52,_RNvMs9_NtCs8WYW6vAPwZd_9ryo3_jiff18ry_timestamp_roundNtB5_16RyTimestampRound7replace
FN:38,_RNvMs9_NtCs8WYW6vAPwZd_9ryo3_jiff18ry_timestamp_roundNtB5_16RyTimestampRound8___repr__
FN:73,_RNvMs9_NtCs8WYW6vAPwZd_9ryo3_jiff18ry_timestamp_roundNtB5_16RyTimestampRound8smallest
FN:85,_RNvMs9_NtCs8WYW6vAPwZd_9ryo3_jiff18ry_timestamp_roundNtB5_16RyTimestampRound9__smallest
FN:81,_RNvMs9_NtCs8WYW6vAPwZd_9ryo3_jiff18ry_timestamp_roundNtB5_16RyTimestampRound9increment
FN:15,_RNvMsd_NtCs8WYW6vAPwZd_9ryo3_jiff18ry_timestamp_roundNtB5_16RyTimestampRound18___pymethod__mode__
FN:15,_RNvMsd_NtCs8WYW6vAPwZd_9ryo3_jiff18ry_timestamp_roundNtB5_16RyTimestampRound20___pymethod___str____
FN:15,_RNvMsd_NtCs8WYW6vAPwZd_9ryo3_jiff18ry_timestamp_roundNtB5_16RyTimestampRound21___pymethod___repr____
FN:15,_RNvMsd_NtCs8WYW6vAPwZd_9ryo3_jiff18ry_timestamp_roundNtB5_16RyTimestampRound22___pymethod__smallest__
FN:15,_RNvMsd_NtCs8WYW6vAPwZd_9ryo3_jiff18ry_timestamp_roundNtB5_16RyTimestampRound23___pymethod__increment__
FNDA:0,_RNvMs9_NtCs8WYW6vAPwZd_9ryo3_jiff18ry_timestamp_roundNtB5_16RyTimestampRound10__increment
FNDA:0,_RNvMs9_NtCs8WYW6vAPwZd_9ryo3_jiff18ry_timestamp_roundNtB5_16RyTimestampRound4mode
FNDA:0,_RNvMs9_NtCs8WYW6vAPwZd_9ryo3_jiff18ry_timestamp_roundNtB5_16RyTimestampRound5__mode
FNDA:0,_RNvMs9_NtCs8WYW6vAPwZd_9ryo3_jiff18ry_timestamp_roundNtB5_16RyTimestampRound6___eq__
FNDA:0,_RNvMs9_NtCs8WYW6vAPwZd_9ryo3_jiff18ry_timestamp_roundNtB5_16RyTimestampRound6py_new
FNDA:0,_RNvMs9_NtCs8WYW6vAPwZd_9ryo3_jiff18ry_timestamp_roundNtB5_16RyTimestampRound7___str__
FNDA:0,_RNvMs9_NtCs8WYW6vAPwZd_9ryo3_jiff18ry_timestamp_roundNtB5_16RyTimestampRound7replace
FNDA:0,_RNvMs9_NtCs8WYW6vAPwZd_9ryo3_jiff18ry_timestamp_roundNtB5_16RyTimestampRound8___repr__
FNDA:0,_RNvMs9_NtCs8WYW6vAPwZd_9ryo3_jiff18ry_timestamp_roundNtB5_16RyTimestampRound8smallest
FNDA:0,_RNvMs9_NtCs8WYW6vAPwZd_9ryo3_jiff18ry_timestamp_roundNtB5_16RyTimestampRound9__smallest
FNDA:0,_RNvMs9_NtCs8WYW6vAPwZd_9ryo3_jiff18ry_timestamp_roundNtB5_16RyTimestampRound9increment
FNDA:0,_RNvMsd_NtCs8WYW6vAPwZd_9ryo3_jiff18ry_timestamp_roundNtB5_16RyTimestampRound18___pymethod__mode__
FNDA:0,_RNvMsd_NtCs8WYW6vAPwZd_9ryo3_jiff18ry_timestamp_roundNtB5_16RyTimestampRound20___pymethod___str____
FNDA:0,_RNvMsd_NtCs8WYW6vAPwZd_9ryo3_jiff18ry_timestamp_roundNtB5_16RyTimestampRound21___pymethod___repr____
FNDA:0,_RNvMsd_NtCs8WYW6vAPwZd_9ryo3_jiff18ry_timestamp_roundNtB5_16RyTimestampRound22___pymethod__smallest__
FNDA:0,_RNvMsd_NtCs8WYW6vAPwZd_9ryo3_jiff18ry_timestamp_roundNtB5_16RyTimestampRound23___pymethod__increment__
FNF:12
FNH:0
DA:15,0
DA:19,0
DA:20,0
DA:21,0
DA:22,0
DA:23,0
DA:24,0
DA:25,0
DA:26,0
DA:27,0
DA:28,0
DA:29,0
DA:30,0
DA:31,0
DA:32,0
DA:34,0
DA:35,0
DA:36,0
DA:38,0
DA:39,0
DA:40,0
DA:43,0
DA:45,0
DA:46,0
DA:47,0
DA:48,0
DA:49,0
DA:52,0
DA:53,0
DA:54,0
DA:55,0
DA:56,0
DA:57,0
DA:58,0
DA:59,0
DA:60,0
DA:61,0
DA:62,0
DA:63,0
DA:64,0
DA:65,0
DA:66,0
DA:67,0
DA:68,0
DA:69,0
DA:70,0
DA:71,0
DA:73,0
DA:74,0
DA:75,0
DA:77,0
DA:78,0
DA:79,0
DA:81,0
DA:82,0
DA:83,0
DA:85,0
DA:86,0
DA:87,0
DA:89,0
DA:90,0
DA:91,0
DA:93,0
DA:94,0
DA:95,0
BRF:0
BRH:0
LF:65
LH:0
end_of_record
SF:/home/jesse/ry/crates/ryo3-jiff/src/ry_timezone.rs
FN:56,_RNCNvMsd_NtCs8WYW6vAPwZd_9ryo3_jiff11ry_timezoneNtB7_10RyTimeZone6py_new0B9_
FN:33,_RNvXs0_NtCs8WYW6vAPwZd_9ryo3_jiff11ry_timezoneNtNtNtCs3tnJ9lKo9L6_4jiff2tz8timezone8TimeZoneINtNtCs66KPHxksi63_4core7convert4FromNtB5_10RyTimeZoneE4from
FN:39,_RNvXs1_NtCs8WYW6vAPwZd_9ryo3_jiff11ry_timezoneNtNtNtCs3tnJ9lKo9L6_4jiff2tz8timezone8TimeZoneINtNtCs66KPHxksi63_4core7convert4FromRNtB5_10RyTimeZoneE4from
FN:243,_RNvMsd_NtCs8WYW6vAPwZd_9ryo3_jiff11ry_timezoneNtB5_10RyTimeZone10is_unknown
FN:180,_RNvMsd_NtCs8WYW6vAPwZd_9ryo3_jiff11ry_timezoneNtB5_10RyTimeZone10try_system
FN:197,_RNvMsd_NtCs8WYW6vAPwZd_9ryo3_jiff11ry_timezoneNtB5_10RyTimeZone11to_datetime
FN:133,_RNvMsd_NtCs8WYW6vAPwZd_9ryo3_jiff11ry_timezoneNtB5_10RyTimeZone11to_pytzinfo
FN:207,_RNvMsd_NtCs8WYW6vAPwZd_9ryo3_jiff11ry_timezoneNtB5_10RyTimeZone12to_timestamp
FN:138,_RNvMsd_NtCs8WYW6vAPwZd_9ryo3_jiff11ry_timezoneNtB5_10RyTimeZone13from_pytzinfo
FN:63,_RNvMsd_NtCs8WYW6vAPwZd_9ryo3_jiff11ry_timezoneNtB5_10RyTimeZone14___getnewargs__
FN:226,_RNvMsd_NtCs8WYW6vAPwZd_9ryo3_jiff11ry_timezoneNtB5_10RyTimeZone15to_fixed_offset
FN:256,_RNvMsd_NtCs8WYW6vAPwZd_9ryo3_jiff11ry_timezoneNtB5_10RyTimeZone18to_ambiguous_zoned
FN:251,_RNvMsd_NtCs8WYW6vAPwZd_9ryo3_jiff11ry_timezoneNtB5_10RyTimeZone22to_ambiguous_timestamp
FN:163,_RNvMsd_NtCs8WYW6vAPwZd_9ryo3_jiff11ry_timezoneNtB5_10RyTimeZone3get
FN:175,_RNvMsd_NtCs8WYW6vAPwZd_9ryo3_jiff11ry_timezoneNtB5_10RyTimeZone3utc
FN:238,_RNvMsd_NtCs8WYW6vAPwZd_9ryo3_jiff11ry_timezoneNtB5_10RyTimeZone4name
FN:168,_RNvMsd_NtCs8WYW6vAPwZd_9ryo3_jiff11ry_timezoneNtB5_10RyTimeZone4tzif
FN:151,_RNvMsd_NtCs8WYW6vAPwZd_9ryo3_jiff11ry_timezoneNtB5_10RyTimeZone5fixed
FN:156,_RNvMsd_NtCs8WYW6vAPwZd_9ryo3_jiff11ry_timezoneNtB5_10RyTimeZone5posix
FN:129,_RNvMsd_NtCs8WYW6vAPwZd_9ryo3_jiff11ry_timezoneNtB5_10RyTimeZone5to_py
FN:112,_RNvMsd_NtCs8WYW6vAPwZd_9ryo3_jiff11ry_timezoneNtB5_10RyTimeZone6___eq__
FN:47,_RNvMsd_NtCs8WYW6vAPwZd_9ryo3_jiff11ry_timezoneNtB5_10RyTimeZone6py_new
FN:187,_RNvMsd_NtCs8WYW6vAPwZd_9ryo3_jiff11ry_timezoneNtB5_10RyTimeZone6system
FN:89,_RNvMsd_NtCs8WYW6vAPwZd_9ryo3_jiff11ry_timezoneNtB5_10RyTimeZone7___str__
FN:70,_RNvMsd_NtCs8WYW6vAPwZd_9ryo3_jiff11ry_timezoneNtB5_10RyTimeZone8___call__
FN:99,_RNvMsd_NtCs8WYW6vAPwZd_9ryo3_jiff11ry_timezoneNtB5_10RyTimeZone8___hash__
FN:74,_RNvMsd_NtCs8WYW6vAPwZd_9ryo3_jiff11ry_timezoneNtB5_10RyTimeZone8___repr__
FN:146,_RNvMsd_NtCs8WYW6vAPwZd_9ryo3_jiff11ry_timezoneNtB5_10RyTimeZone8from_str
FN:215,_RNvMsd_NtCs8WYW6vAPwZd_9ryo3_jiff11ry_timezoneNtB5_10RyTimeZone8to_zoned
FN:222,_RNvMsd_NtCs8WYW6vAPwZd_9ryo3_jiff11ry_timezoneNtB5_10RyTimeZone9iana_name
FN:202,_RNvMsd_NtCs8WYW6vAPwZd_9ryo3_jiff11ry_timezoneNtB5_10RyTimeZone9to_offset
FN:44,_RNvMsh_NtCs8WYW6vAPwZd_9ryo3_jiff11ry_timezoneNtB5_10RyTimeZone18___pymethod_to_py__
FN:44,_RNvMsh_NtCs8WYW6vAPwZd_9ryo3_jiff11ry_timezoneNtB5_10RyTimeZone20___pymethod___str____
FN:44,_RNvMsh_NtCs8WYW6vAPwZd_9ryo3_jiff11ry_timezoneNtB5_10RyTimeZone21___pymethod___hash____
FN:44,_RNvMsh_NtCs8WYW6vAPwZd_9ryo3_jiff11ry_timezoneNtB5_10RyTimeZone21___pymethod___repr____
FN:44,_RNvMsh_NtCs8WYW6vAPwZd_9ryo3_jiff11ry_timezoneNtB5_10RyTimeZone21___pymethod_get_name__
FN:44,_RNvMsh_NtCs8WYW6vAPwZd_9ryo3_jiff11ry_timezoneNtB5_10RyTimeZone22___pymethod_iana_name__
FN:44,_RNvMsh_NtCs8WYW6vAPwZd_9ryo3_jiff11ry_timezoneNtB5_10RyTimeZone24___pymethod_to_pytzinfo__
FN:44,_RNvMsh_NtCs8WYW6vAPwZd_9ryo3_jiff11ry_timezoneNtB5_10RyTimeZone27___pymethod___getnewargs____
FN:44,_RNvMsh_NtCs8WYW6vAPwZd_9ryo3_jiff11ry_timezoneNtB5_10RyTimeZone27___pymethod_get_is_unknown__
FN:44,_RNvMsh_NtCs8WYW6vAPwZd_9ryo3_jiff11ry_timezoneNtB5_10RyTimeZone28___pymethod_to_fixed_offset__
FN:44,_RNvMsh_NtCs8WYW6vAPwZd_9ryo3_jiff11ry_timezoneNtB5_10RyTimeZone31___pymethod_to_ambiguous_zoned__
FN:44,_RNvMsh_NtCs8WYW6vAPwZd_9ryo3_jiff11ry_timezoneNtB5_10RyTimeZone35___pymethod_to_ambiguous_timestamp__
FN:21,_RNvXNtCs8WYW6vAPwZd_9ryo3_jiff11ry_timezoneNtB2_10RyTimeZoneINtNtCs66KPHxksi63_4core7convert4FromNtNtNtCs3tnJ9lKo9L6_4jiff2tz8timezone8TimeZoneE4from
FN:27,_RNvXs_NtCs8WYW6vAPwZd_9ryo3_jiff11ry_timezoneNtB4_10RyTimeZoneINtNtCs66KPHxksi63_4core7convert4FromRNtNtNtCs3tnJ9lKo9L6_4jiff2tz8timezone8TimeZoneE4from
FNDA:0,_RNCNvMsd_NtCs8WYW6vAPwZd_9ryo3_jiff11ry_timezoneNtB7_10RyTimeZone6py_new0B9_
FNDA:0,_RNvXs0_NtCs8WYW6vAPwZd_9ryo3_jiff11ry_timezoneNtNtNtCs3tnJ9lKo9L6_4jiff2tz8timezone8TimeZoneINtNtCs66KPHxksi63_4core7convert4FromNtB5_10RyTimeZoneE4from
FNDA:3,_RNvXs1_NtCs8WYW6vAPwZd_9ryo3_jiff11ry_timezoneNtNtNtCs3tnJ9lKo9L6_4jiff2tz8timezone8TimeZoneINtNtCs66KPHxksi63_4core7convert4FromRNtB5_10RyTimeZoneE4from
FNDA:0,_RNvMsd_NtCs8WYW6vAPwZd_9ryo3_jiff11ry_timezoneNtB5_10RyTimeZone10is_unknown
FNDA:0,_RNvMsd_NtCs8WYW6vAPwZd_9ryo3_jiff11ry_timezoneNtB5_10RyTimeZone10try_system
FNDA:0,_RNvMsd_NtCs8WYW6vAPwZd_9ryo3_jiff11ry_timezoneNtB5_10RyTimeZone11to_datetime
FNDA:5,_RNvMsd_NtCs8WYW6vAPwZd_9ryo3_jiff11ry_timezoneNtB5_10RyTimeZone11to_pytzinfo
FNDA:0,_RNvMsd_NtCs8WYW6vAPwZd_9ryo3_jiff11ry_timezoneNtB5_10RyTimeZone12to_timestamp
FNDA:105,_RNvMsd_NtCs8WYW6vAPwZd_9ryo3_jiff11ry_timezoneNtB5_10RyTimeZone13from_pytzinfo
FNDA:0,_RNvMsd_NtCs8WYW6vAPwZd_9ryo3_jiff11ry_timezoneNtB5_10RyTimeZone14___getnewargs__
FNDA:0,_RNvMsd_NtCs8WYW6vAPwZd_9ryo3_jiff11ry_timezoneNtB5_10RyTimeZone15to_fixed_offset
FNDA:0,_RNvMsd_NtCs8WYW6vAPwZd_9ryo3_jiff11ry_timezoneNtB5_10RyTimeZone18to_ambiguous_zoned
FNDA:0,_RNvMsd_NtCs8WYW6vAPwZd_9ryo3_jiff11ry_timezoneNtB5_10RyTimeZone22to_ambiguous_timestamp
FNDA:0,_RNvMsd_NtCs8WYW6vAPwZd_9ryo3_jiff11ry_timezoneNtB5_10RyTimeZone3get
FNDA:1,_RNvMsd_NtCs8WYW6vAPwZd_9ryo3_jiff11ry_timezoneNtB5_10RyTimeZone3utc
FNDA:2,_RNvMsd_NtCs8WYW6vAPwZd_9ryo3_jiff11ry_timezoneNtB5_10RyTimeZone4name
FNDA:0,_RNvMsd_NtCs8WYW6vAPwZd_9ryo3_jiff11ry_timezoneNtB5_10RyTimeZone4tzif
FNDA:2,_RNvMsd_NtCs8WYW6vAPwZd_9ryo3_jiff11ry_timezoneNtB5_10RyTimeZone5fixed
FNDA:0,_RNvMsd_NtCs8WYW6vAPwZd_9ryo3_jiff11ry_timezoneNtB5_10RyTimeZone5posix
FNDA:100,_RNvMsd_NtCs8WYW6vAPwZd_9ryo3_jiff11ry_timezoneNtB5_10RyTimeZone5to_py
FNDA:106,_RNvMsd_NtCs8WYW6vAPwZd_9ryo3_jiff11ry_timezoneNtB5_10RyTimeZone6___eq__
FNDA:8,_RNvMsd_NtCs8WYW6vAPwZd_9ryo3_jiff11ry_timezoneNtB5_10RyTimeZone6py_new
FNDA:0,_RNvMsd_NtCs8WYW6vAPwZd_9ryo3_jiff11ry_timezoneNtB5_10RyTimeZone6system
FNDA:3,_RNvMsd_NtCs8WYW6vAPwZd_9ryo3_jiff11ry_timezoneNtB5_10RyTimeZone7___str__
FNDA:1,_RNvMsd_NtCs8WYW6vAPwZd_9ryo3_jiff11ry_timezoneNtB5_10RyTimeZone8___call__
FNDA:0,_RNvMsd_NtCs8WYW6vAPwZd_9ryo3_jiff11ry_timezoneNtB5_10RyTimeZone8___hash__
FNDA:2,_RNvMsd_NtCs8WYW6vAPwZd_9ryo3_jiff11ry_timezoneNtB5_10RyTimeZone8___repr__
FNDA:0,_RNvMsd_NtCs8WYW6vAPwZd_9ryo3_jiff11ry_timezoneNtB5_10RyTimeZone8from_str
FNDA:0,_RNvMsd_NtCs8WYW6vAPwZd_9ryo3_jiff11ry_timezoneNtB5_10RyTimeZone8to_zoned
FNDA:5,_RNvMsd_NtCs8WYW6vAPwZd_9ryo3_jiff11ry_timezoneNtB5_10RyTimeZone9iana_name
FNDA:3,_RNvMsd_NtCs8WYW6vAPwZd_9ryo3_jiff11ry_timezoneNtB5_10RyTimeZone9to_offset
FNDA:0,_RNvMsh_NtCs8WYW6vAPwZd_9ryo3_jiff11ry_timezoneNtB5_10RyTimeZone18___pymethod_to_py__
FNDA:0,_RNvMsh_NtCs8WYW6vAPwZd_9ryo3_jiff11ry_timezoneNtB5_10RyTimeZone20___pymethod___str____
FNDA:0,_RNvMsh_NtCs8WYW6vAPwZd_9ryo3_jiff11ry_timezoneNtB5_10RyTimeZone21___pymethod___hash____
FNDA:0,_RNvMsh_NtCs8WYW6vAPwZd_9ryo3_jiff11ry_timezoneNtB5_10RyTimeZone21___pymethod___repr____
FNDA:0,_RNvMsh_NtCs8WYW6vAPwZd_9ryo3_jiff11ry_timezoneNtB5_10RyTimeZone21___pymethod_get_name__
FNDA:0,_RNvMsh_NtCs8WYW6vAPwZd_9ryo3_jiff11ry_timezoneNtB5_10RyTimeZone22___pymethod_iana_name__
FNDA:0,_RNvMsh_NtCs8WYW6vAPwZd_9ryo3_jiff11ry_timezoneNtB5_10RyTimeZone24___pymethod_to_pytzinfo__
FNDA:0,_RNvMsh_NtCs8WYW6vAPwZd_9ryo3_jiff11ry_timezoneNtB5_10RyTimeZone27___pymethod___getnewargs____
FNDA:0,_RNvMsh_NtCs8WYW6vAPwZd_9ryo3_jiff11ry_timezoneNtB5_10RyTimeZone27___pymethod_get_is_unknown__
FNDA:0,_RNvMsh_NtCs8WYW6vAPwZd_9ryo3_jiff11ry_timezoneNtB5_10RyTimeZone28___pymethod_to_fixed_offset__
FNDA:0,_RNvMsh_NtCs8WYW6vAPwZd_9ryo3_jiff11ry_timezoneNtB5_10RyTimeZone31___pymethod_to_ambiguous_zoned__
FNDA:0,_RNvMsh_NtCs8WYW6vAPwZd_9ryo3_jiff11ry_timezoneNtB5_10RyTimeZone35___pymethod_to_ambiguous_timestamp__
FNDA:117,_RNvXNtCs8WYW6vAPwZd_9ryo3_jiff11ry_timezoneNtB2_10RyTimeZoneINtNtCs66KPHxksi63_4core7convert4FromNtNtNtCs3tnJ9lKo9L6_4jiff2tz8timezone8TimeZoneE4from
FNDA:106,_RNvXs_NtCs8WYW6vAPwZd_9ryo3_jiff11ry_timezoneNtB4_10RyTimeZoneINtNtCs66KPHxksi63_4core7convert4FromRNtNtNtCs3tnJ9lKo9L6_4jiff2tz8timezone8TimeZoneE4from
FNF:34
FNH:16
DA:21,117
DA:22,117
DA:23,117
DA:27,106
DA:28,106
DA:29,106
DA:33,0
DA:34,0
DA:35,0
DA:39,3
DA:40,3
DA:41,3
DA:44,0
DA:47,8
DA:48,8
DA:49,0
DA:50,8
DA:51,8
DA:52,1
DA:53,7
DA:54,7
DA:55,7
DA:56,7
DA:57,8
DA:63,0
DA:64,0
DA:65,0
DA:66,0
DA:68,0
DA:70,1
DA:71,1
DA:72,1
DA:74,2
DA:75,2
DA:76,0
DA:77,2
DA:79,2
DA:80,2
DA:81,0
DA:84,2
DA:85,2
DA:87,2
DA:89,3
DA:90,3
DA:91,1
DA:94,2
DA:95,2
DA:97,3
DA:99,0
DA:100,0
DA:101,0
DA:102,0
DA:104,0
DA:105,0
DA:106,0
DA:109,0
DA:110,0
DA:112,106
DA:113,106
DA:114,6
DA:115,100
DA:116,100
DA:117,100
DA:119,0
DA:120,0
DA:121,0
DA:123,106
DA:129,100
DA:130,100
DA:131,100
DA:133,5
DA:134,5
DA:135,5
DA:138,105
DA:139,105
DA:140,105
DA:146,0
DA:147,0
DA:148,0
DA:151,2
DA:152,2
DA:153,2
DA:156,0
DA:157,0
DA:158,0
DA:159,0
DA:160,0
DA:163,0
DA:164,0
DA:165,0
DA:168,0
DA:169,0
DA:170,0
DA:171,0
DA:172,0
DA:175,1
DA:176,1
DA:177,1
DA:180,0
DA:181,0
DA:182,0
DA:183,0
DA:184,0
DA:187,0
DA:188,0
DA:189,0
DA:190,0
DA:191,0
DA:197,0
DA:198,0
DA:199,0
DA:202,3
DA:203,3
DA:204,3
DA:207,0
DA:208,0
DA:209,0
DA:210,0
DA:211,0
DA:212,0
DA:215,0
DA:216,0
DA:217,0
DA:218,0
DA:219,0
DA:220,0
DA:222,5
DA:223,5
DA:224,5
DA:226,0
DA:227,0
DA:228,0
DA:229,0
DA:230,0
DA:231,0
DA:238,2
DA:239,2
DA:240,2
DA:243,0
DA:244,0
DA:245,0
DA:251,0
DA:252,0
DA:253,0
DA:256,0
DA:257,0
DA:258,0
BRF:0
BRH:0
LF:148
LH:67
end_of_record
SF:/home/jesse/ry/crates/ryo3-jiff/src/ry_timezone_database.rs
FN:65,_RNCNvMsb_NtCs8WYW6vAPwZd_9ryo3_jiff20ry_timezone_databaseNtB7_18RyTimeZoneDatabase11___getitem__0B9_
FN:97,_RNCNvMsb_NtCs8WYW6vAPwZd_9ryo3_jiff20ry_timezone_databaseNtB7_18RyTimeZoneDatabase22from_concatenated_path0B9_
FN:90,_RNCNvMsb_NtCs8WYW6vAPwZd_9ryo3_jiff20ry_timezone_databaseNtB7_18RyTimeZoneDatabase8from_dir0B9_
FN:57,_RNCNvMsb_NtCs8WYW6vAPwZd_9ryo3_jiff20ry_timezone_databaseNtB7_18RyTimeZoneDatabase9available0B9_
FN:13,_RNvMNtCs8WYW6vAPwZd_9ryo3_jiff20ry_timezone_databaseNtB2_18RyTimeZoneDatabase2db
FN:61,_RNvMsb_NtCs8WYW6vAPwZd_9ryo3_jiff20ry_timezone_databaseNtB5_18RyTimeZoneDatabase11___getitem__
FN:72,_RNvMsb_NtCs8WYW6vAPwZd_9ryo3_jiff20ry_timezone_databaseNtB5_18RyTimeZoneDatabase21is_definitively_empty
FN:94,_RNvMsb_NtCs8WYW6vAPwZd_9ryo3_jiff20ry_timezone_databaseNtB5_18RyTimeZoneDatabase22from_concatenated_path
FN:38,_RNvMsb_NtCs8WYW6vAPwZd_9ryo3_jiff20ry_timezone_databaseNtB5_18RyTimeZoneDatabase3get
FN:25,_RNvMsb_NtCs8WYW6vAPwZd_9ryo3_jiff20ry_timezone_databaseNtB5_18RyTimeZoneDatabase6py_new
FN:68,_RNvMsb_NtCs8WYW6vAPwZd_9ryo3_jiff20ry_timezone_databaseNtB5_18RyTimeZoneDatabase7___len__
FN:29,_RNvMsb_NtCs8WYW6vAPwZd_9ryo3_jiff20ry_timezone_databaseNtB5_18RyTimeZoneDatabase7___str__
FN:77,_RNvMsb_NtCs8WYW6vAPwZd_9ryo3_jiff20ry_timezone_databaseNtB5_18RyTimeZoneDatabase7bundled
FN:33,_RNvMsb_NtCs8WYW6vAPwZd_9ryo3_jiff20ry_timezone_databaseNtB5_18RyTimeZoneDatabase8___repr__
FN:87,_RNvMsb_NtCs8WYW6vAPwZd_9ryo3_jiff20ry_timezone_databaseNtB5_18RyTimeZoneDatabase8from_dir
FN:82,_RNvMsb_NtCs8WYW6vAPwZd_9ryo3_jiff20ry_timezone_databaseNtB5_18RyTimeZoneDatabase8from_env
FN:54,_RNvMsb_NtCs8WYW6vAPwZd_9ryo3_jiff20ry_timezone_databaseNtB5_18RyTimeZoneDatabase9available
FN:22,_RNvMsd_NtCs8WYW6vAPwZd_9ryo3_jiff20ry_timezone_databaseNtB5_18RyTimeZoneDatabase20___pymethod___len____
FN:22,_RNvMsd_NtCs8WYW6vAPwZd_9ryo3_jiff20ry_timezone_databaseNtB5_18RyTimeZoneDatabase20___pymethod___str____
FN:22,_RNvMsd_NtCs8WYW6vAPwZd_9ryo3_jiff20ry_timezone_databaseNtB5_18RyTimeZoneDatabase21___pymethod___repr____
FN:22,_RNvMsd_NtCs8WYW6vAPwZd_9ryo3_jiff20ry_timezone_databaseNtB5_18RyTimeZoneDatabase22___pymethod_available__
FN:22,_RNvMsd_NtCs8WYW6vAPwZd_9ryo3_jiff20ry_timezone_databaseNtB5_18RyTimeZoneDatabase34___pymethod_is_definitively_empty__
FN:102,_RNvXs_NtCs8WYW6vAPwZd_9ryo3_jiff20ry_timezone_databaseNtB4_18RyTimeZoneDatabaseINtNtCs66KPHxksi63_4core7convert4FromNtNtNtCs3tnJ9lKo9L6_4jiff2tz2db16TimeZoneDatabaseE4from
FNDA:0,_RNCNvMsb_NtCs8WYW6vAPwZd_9ryo3_jiff20ry_timezone_databaseNtB7_18RyTimeZoneDatabase11___getitem__0B9_
FNDA:0,_RNCNvMsb_NtCs8WYW6vAPwZd_9ryo3_jiff20ry_timezone_databaseNtB7_18RyTimeZoneDatabase22from_concatenated_path0B9_
FNDA:0,_RNCNvMsb_NtCs8WYW6vAPwZd_9ryo3_jiff20ry_timezone_databaseNtB7_18RyTimeZoneDatabase8from_dir0B9_
FNDA:0,_RNCNvMsb_NtCs8WYW6vAPwZd_9ryo3_jiff20ry_timezone_databaseNtB7_18RyTimeZoneDatabase9available0B9_
FNDA:0,_RNvMNtCs8WYW6vAPwZd_9ryo3_jiff20ry_timezone_databaseNtB2_18RyTimeZoneDatabase2db
FNDA:0,_RNvMsb_NtCs8WYW6vAPwZd_9ryo3_jiff20ry_timezone_databaseNtB5_18RyTimeZoneDatabase11___getitem__
FNDA:0,_RNvMsb_NtCs8WYW6vAPwZd_9ryo3_jiff20ry_timezone_databaseNtB5_18RyTimeZoneDatabase21is_definitively_empty
FNDA:0,_RNvMsb_NtCs8WYW6vAPwZd_9ryo3_jiff20ry_timezone_databaseNtB5_18RyTimeZoneDatabase22from_concatenated_path
FNDA:0,_RNvMsb_NtCs8WYW6vAPwZd_9ryo3_jiff20ry_timezone_databaseNtB5_18RyTimeZoneDatabase3get
FNDA:0,_RNvMsb_NtCs8WYW6vAPwZd_9ryo3_jiff20ry_timezone_databaseNtB5_18RyTimeZoneDatabase6py_new
FNDA:0,_RNvMsb_NtCs8WYW6vAPwZd_9ryo3_jiff20ry_timezone_databaseNtB5_18RyTimeZoneDatabase7___len__
FNDA:0,_RNvMsb_NtCs8WYW6vAPwZd_9ryo3_jiff20ry_timezone_databaseNtB5_18RyTimeZoneDatabase7___str__
FNDA:0,_RNvMsb_NtCs8WYW6vAPwZd_9ryo3_jiff20ry_timezone_databaseNtB5_18RyTimeZoneDatabase7bundled
FNDA:0,_RNvMsb_NtCs8WYW6vAPwZd_9ryo3_jiff20ry_timezone_databaseNtB5_18RyTimeZoneDatabase8___repr__
FNDA:0,_RNvMsb_NtCs8WYW6vAPwZd_9ryo3_jiff20ry_timezone_databaseNtB5_18RyTimeZoneDatabase8from_dir
FNDA:0,_RNvMsb_NtCs8WYW6vAPwZd_9ryo3_jiff20ry_timezone_databaseNtB5_18RyTimeZoneDatabase8from_env
FNDA:0,_RNvMsb_NtCs8WYW6vAPwZd_9ryo3_jiff20ry_timezone_databaseNtB5_18RyTimeZoneDatabase9available
FNDA:0,_RNvMsd_NtCs8WYW6vAPwZd_9ryo3_jiff20ry_timezone_databaseNtB5_18RyTimeZoneDatabase20___pymethod___len____
FNDA:0,_RNvMsd_NtCs8WYW6vAPwZd_9ryo3_jiff20ry_timezone_databaseNtB5_18RyTimeZoneDatabase20___pymethod___str____
FNDA:0,_RNvMsd_NtCs8WYW6vAPwZd_9ryo3_jiff20ry_timezone_databaseNtB5_18RyTimeZoneDatabase21___pymethod___repr____
FNDA:0,_RNvMsd_NtCs8WYW6vAPwZd_9ryo3_jiff20ry_timezone_databaseNtB5_18RyTimeZoneDatabase22___pymethod_available__
FNDA:0,_RNvMsd_NtCs8WYW6vAPwZd_9ryo3_jiff20ry_timezone_databaseNtB5_18RyTimeZoneDatabase34___pymethod_is_definitively_empty__
FNDA:0,_RNvXs_NtCs8WYW6vAPwZd_9ryo3_jiff20ry_timezone_databaseNtB4_18RyTimeZoneDatabaseINtNtCs66KPHxksi63_4core7convert4FromNtNtNtCs3tnJ9lKo9L6_4jiff2tz2db16TimeZoneDatabaseE4from
FNF:19
FNH:0
DA:13,0
DA:14,0
DA:15,0
DA:17,0
DA:19,0
DA:22,0
DA:25,0
DA:26,0
DA:27,0
DA:29,0
DA:30,0
DA:31,0
DA:33,0
DA:34,0
DA:35,0
DA:38,0
DA:39,0
DA:40,0
DA:41,0
DA:42,0
DA:43,0
DA:44,0
DA:45,0
DA:46,0
DA:48,0
DA:52,0
DA:54,0
DA:55,0
DA:56,0
DA:57,0
DA:58,0
DA:59,0
DA:61,0
DA:62,0
DA:63,0
DA:64,0
DA:65,0
DA:66,0
DA:68,0
DA:69,0
DA:70,0
DA:72,0
DA:73,0
DA:74,0
DA:77,0
DA:78,0
DA:79,0
DA:82,0
DA:83,0
DA:84,0
DA:87,0
DA:88,0
DA:89,0
DA:90,0
DA:91,0
DA:94,0
DA:95,0
DA:96,0
DA:97,0
DA:98,0
DA:102,0
DA:103,0
DA:104,0
BRF:0
BRH:0
LF:67
LH:0
end_of_record
SF:/home/jesse/ry/crates/ryo3-jiff/src/ry_weekday.rs
FN:10,_RNvMsc_NtCs8WYW6vAPwZd_9ryo3_jiff10ry_weekdayNtB5_9RyWeekday6string
FN:7,_RNvMse_NtCs8WYW6vAPwZd_9ryo3_jiff10ry_weekdayNtB5_9RyWeekday19___pymethod_string__
FNDA:0,_RNvMsc_NtCs8WYW6vAPwZd_9ryo3_jiff10ry_weekdayNtB5_9RyWeekday6string
FNDA:0,_RNvMse_NtCs8WYW6vAPwZd_9ryo3_jiff10ry_weekdayNtB5_9RyWeekday19___pymethod_string__
FNF:2
FNH:0
DA:7,0
DA:10,0
DA:11,0
DA:12,0
DA:13,0
DA:14,0
DA:15,0
DA:16,0
DA:17,0
DA:18,0
DA:20,0
BRF:0
BRH:0
LF:11
LH:0
end_of_record
SF:/home/jesse/ry/crates/ryo3-jiff/src/ry_zoned.rs
FN:273,_RNvMsd_NtCs8WYW6vAPwZd_9ryo3_jiff8ry_zonedNtB5_7RyZoned10astimezone
FN:368,_RNvMsd_NtCs8WYW6vAPwZd_9ryo3_jiff8ry_zonedNtB5_7RyZoned10end_of_day
FN:107,_RNvMsd_NtCs8WYW6vAPwZd_9ryo3_jiff8ry_zonedNtB5_7RyZoned10from_parts
FN:726,_RNvMsd_NtCs8WYW6vAPwZd_9ryo3_jiff8ry_zonedNtB5_7RyZoned10nanosecond
FN:160,_RNvMsd_NtCs8WYW6vAPwZd_9ryo3_jiff8ry_zonedNtB5_7RyZoned10to_rfc2822
FN:186,_RNvMsd_NtCs8WYW6vAPwZd_9ryo3_jiff8ry_zonedNtB5_7RyZoned11___richcmp__
FN:401,_RNvMsd_NtCs8WYW6vAPwZd_9ryo3_jiff8ry_zonedNtB5_7RyZoned11day_of_year
FN:716,_RNvMsd_NtCs8WYW6vAPwZd_9ryo3_jiff8ry_zonedNtB5_7RyZoned11microsecond
FN:721,_RNvMsd_NtCs8WYW6vAPwZd_9ryo3_jiff8ry_zonedNtB5_7RyZoned11millisecond
FN:437,_RNvMsd_NtCs8WYW6vAPwZd_9ryo3_jiff8ry_zonedNtB5_7RyZoned11nth_weekday
FN:252,_RNvMsd_NtCs8WYW6vAPwZd_9ryo3_jiff8ry_zonedNtB5_7RyZoned11to_pytzinfo
FN:397,_RNvMsd_NtCs8WYW6vAPwZd_9ryo3_jiff8ry_zonedNtB5_7RyZoned12days_in_year
FN:149,_RNvMsd_NtCs8WYW6vAPwZd_9ryo3_jiff8ry_zonedNtB5_7RyZoned12from_rfc2822
FN:375,_RNvMsd_NtCs8WYW6vAPwZd_9ryo3_jiff8ry_zonedNtB5_7RyZoned12in_leap_year
FN:386,_RNvMsd_NtCs8WYW6vAPwZd_9ryo3_jiff8ry_zonedNtB5_7RyZoned12last_of_year
FN:455,_RNvMsd_NtCs8WYW6vAPwZd_9ryo3_jiff8ry_zonedNtB5_7RyZoned12start_of_day
FN:393,_RNvMsd_NtCs8WYW6vAPwZd_9ryo3_jiff8ry_zonedNtB5_7RyZoned13days_in_month
FN:430,_RNvMsd_NtCs8WYW6vAPwZd_9ryo3_jiff8ry_zonedNtB5_7RyZoned13first_of_year
FN:526,_RNvMsd_NtCs8WYW6vAPwZd_9ryo3_jiff8ry_zonedNtB5_7RyZoned13iso_week_date
FN:379,_RNvMsd_NtCs8WYW6vAPwZd_9ryo3_jiff8ry_zonedNtB5_7RyZoned13last_of_month
FN:142,_RNvMsd_NtCs8WYW6vAPwZd_9ryo3_jiff8ry_zonedNtB5_7RyZoned13parse_rfc2822
FN:240,_RNvMsd_NtCs8WYW6vAPwZd_9ryo3_jiff8ry_zonedNtB5_7RyZoned13to_pydatetime
FN:68,_RNvMsd_NtCs8WYW6vAPwZd_9ryo3_jiff8ry_zonedNtB5_7RyZoned14___getnewargs__
FN:409,_RNvMsd_NtCs8WYW6vAPwZd_9ryo3_jiff8ry_zonedNtB5_7RyZoned14duration_since
FN:413,_RNvMsd_NtCs8WYW6vAPwZd_9ryo3_jiff8ry_zonedNtB5_7RyZoned14duration_until
FN:423,_RNvMsd_NtCs8WYW6vAPwZd_9ryo3_jiff8ry_zonedNtB5_7RyZoned14first_of_month
FN:155,_RNvMsd_NtCs8WYW6vAPwZd_9ryo3_jiff8ry_zonedNtB5_7RyZoned14format_rfc2822
FN:318,_RNvMsd_NtCs8WYW6vAPwZd_9ryo3_jiff8ry_zonedNtB5_7RyZoned14saturating_add
FN:323,_RNvMsd_NtCs8WYW6vAPwZd_9ryo3_jiff8ry_zonedNtB5_7RyZoned14saturating_sub
FN:522,_RNvMsd_NtCs8WYW6vAPwZd_9ryo3_jiff8ry_zonedNtB5_7RyZoned14with_time_zone
FN:257,_RNvMsd_NtCs8WYW6vAPwZd_9ryo3_jiff8ry_zonedNtB5_7RyZoned15from_pydatetime
FN:731,_RNvMsd_NtCs8WYW6vAPwZd_9ryo3_jiff8ry_zonedNtB5_7RyZoned17subsec_nanosecond
FN:405,_RNvMsd_NtCs8WYW6vAPwZd_9ryo3_jiff8ry_zonedNtB5_7RyZoned19day_of_year_no_leap
FN:444,_RNvMsd_NtCs8WYW6vAPwZd_9ryo3_jiff8ry_zonedNtB5_7RyZoned20nth_weekday_of_month
FN:668,_RNvMsd_NtCs8WYW6vAPwZd_9ryo3_jiff8ry_zonedNtB5_7RyZoned2tz
FN:310,_RNvMsd_NtCs8WYW6vAPwZd_9ryo3_jiff8ry_zonedNtB5_7RyZoned3add
FN:683,_RNvMsd_NtCs8WYW6vAPwZd_9ryo3_jiff8ry_zonedNtB5_7RyZoned3day
FN:86,_RNvMsd_NtCs8WYW6vAPwZd_9ryo3_jiff8ry_zonedNtB5_7RyZoned3now
FN:314,_RNvMsd_NtCs8WYW6vAPwZd_9ryo3_jiff8ry_zonedNtB5_7RyZoned3sub
FN:224,_RNvMsd_NtCs8WYW6vAPwZd_9ryo3_jiff8ry_zonedNtB5_7RyZoned4date
FN:701,_RNvMsd_NtCs8WYW6vAPwZd_9ryo3_jiff8ry_zonedNtB5_7RyZoned4hour
FN:268,_RNvMsd_NtCs8WYW6vAPwZd_9ryo3_jiff8ry_zonedNtB5_7RyZoned4intz
FN:228,_RNvMsd_NtCs8WYW6vAPwZd_9ryo3_jiff8ry_zonedNtB5_7RyZoned4time
FN:673,_RNvMsd_NtCs8WYW6vAPwZd_9ryo3_jiff8ry_zonedNtB5_7RyZoned4year
FN:261,_RNvMsd_NtCs8WYW6vAPwZd_9ryo3_jiff8ry_zonedNtB5_7RyZoned5in_tz
FN:277,_RNvMsd_NtCs8WYW6vAPwZd_9ryo3_jiff8ry_zonedNtB5_7RyZoned5inutc
FN:678,_RNvMsd_NtCs8WYW6vAPwZd_9ryo3_jiff8ry_zonedNtB5_7RyZoned5month
FN:122,_RNvMsd_NtCs8WYW6vAPwZd_9ryo3_jiff8ry_zonedNtB5_7RyZoned5parse
FN:331,_RNvMsd_NtCs8WYW6vAPwZd_9ryo3_jiff8ry_zonedNtB5_7RyZoned5round
FN:465,_RNvMsd_NtCs8WYW6vAPwZd_9ryo3_jiff8ry_zonedNtB5_7RyZoned5since
FN:236,_RNvMsd_NtCs8WYW6vAPwZd_9ryo3_jiff8ry_zonedNtB5_7RyZoned5to_py
FN:495,_RNvMsd_NtCs8WYW6vAPwZd_9ryo3_jiff8ry_zonedNtB5_7RyZoned5until
FN:353,_RNvMsd_NtCs8WYW6vAPwZd_9ryo3_jiff8ry_zonedNtB5_7RyZoned6__round
FN:706,_RNvMsd_NtCs8WYW6vAPwZd_9ryo3_jiff8ry_zonedNtB5_7RyZoned6minute
FN:451,_RNvMsd_NtCs8WYW6vAPwZd_9ryo3_jiff8ry_zonedNtB5_7RyZoned6offset
FN:40,_RNvMsd_NtCs8WYW6vAPwZd_9ryo3_jiff8ry_zonedNtB5_7RyZoned6py_new
FN:711,_RNvMsd_NtCs8WYW6vAPwZd_9ryo3_jiff8ry_zonedNtB5_7RyZoned6second
FN:197,_RNvMsd_NtCs8WYW6vAPwZd_9ryo3_jiff8ry_zonedNtB5_7RyZoned6string
FN:98,_RNvMsd_NtCs8WYW6vAPwZd_9ryo3_jiff8ry_zonedNtB5_7RyZoned6utcnow
FN:302,_RNvMsd_NtCs8WYW6vAPwZd_9ryo3_jiff8ry_zonedNtB5_7RyZoned7___add__
FN:201,_RNvMsd_NtCs8WYW6vAPwZd_9ryo3_jiff8ry_zonedNtB5_7RyZoned7___str__
FN:284,_RNvMsd_NtCs8WYW6vAPwZd_9ryo3_jiff8ry_zonedNtB5_7RyZoned7___sub__
FN:556,_RNvMsd_NtCs8WYW6vAPwZd_9ryo3_jiff8ry_zonedNtB5_7RyZoned7replace
FN:688,_RNvMsd_NtCs8WYW6vAPwZd_9ryo3_jiff8ry_zonedNtB5_7RyZoned7weekday
FN:209,_RNvMsd_NtCs8WYW6vAPwZd_9ryo3_jiff8ry_zonedNtB5_7RyZoned8___hash__
FN:205,_RNvMsd_NtCs8WYW6vAPwZd_9ryo3_jiff8ry_zonedNtB5_7RyZoned8___repr__
FN:232,_RNvMsd_NtCs8WYW6vAPwZd_9ryo3_jiff8ry_zonedNtB5_7RyZoned8datetime
FN:417,_RNvMsd_NtCs8WYW6vAPwZd_9ryo3_jiff8ry_zonedNtB5_7RyZoned8era_year
FN:117,_RNvMsd_NtCs8WYW6vAPwZd_9ryo3_jiff8ry_zonedNtB5_7RyZoned8from_str
FN:129,_RNvMsd_NtCs8WYW6vAPwZd_9ryo3_jiff8ry_zonedNtB5_7RyZoned8strftime
FN:135,_RNvMsd_NtCs8WYW6vAPwZd_9ryo3_jiff8ry_zonedNtB5_7RyZoned8strptime
FN:663,_RNvMsd_NtCs8WYW6vAPwZd_9ryo3_jiff8ry_zonedNtB5_7RyZoned8timezone
FN:360,_RNvMsd_NtCs8WYW6vAPwZd_9ryo3_jiff8ry_zonedNtB5_7RyZoned8tomorrow
FN:170,_RNvMsd_NtCs8WYW6vAPwZd_9ryo3_jiff8ry_zonedNtB5_7RyZoned9isoformat
FN:220,_RNvMsd_NtCs8WYW6vAPwZd_9ryo3_jiff8ry_zonedNtB5_7RyZoned9timestamp
FN:244,_RNvMsd_NtCs8WYW6vAPwZd_9ryo3_jiff8ry_zonedNtB5_7RyZoned9to_pydate
FN:248,_RNvMsd_NtCs8WYW6vAPwZd_9ryo3_jiff8ry_zonedNtB5_7RyZoned9to_pytime
FN:364,_RNvMsd_NtCs8WYW6vAPwZd_9ryo3_jiff8ry_zonedNtB5_7RyZoned9yesterday
FN:35,_RNvMsj_NtCs8WYW6vAPwZd_9ryo3_jiff8ry_zonedNtB5_7RyZoned17___pymethod_date__
FN:35,_RNvMsj_NtCs8WYW6vAPwZd_9ryo3_jiff8ry_zonedNtB5_7RyZoned17___pymethod_time__
FN:35,_RNvMsj_NtCs8WYW6vAPwZd_9ryo3_jiff8ry_zonedNtB5_7RyZoned18___pymethod_inutc__
FN:35,_RNvMsj_NtCs8WYW6vAPwZd_9ryo3_jiff8ry_zonedNtB5_7RyZoned18___pymethod_to_py__
FN:35,_RNvMsj_NtCs8WYW6vAPwZd_9ryo3_jiff8ry_zonedNtB5_7RyZoned19___pymethod_get_tz__
FN:35,_RNvMsj_NtCs8WYW6vAPwZd_9ryo3_jiff8ry_zonedNtB5_7RyZoned19___pymethod_offset__
FN:35,_RNvMsj_NtCs8WYW6vAPwZd_9ryo3_jiff8ry_zonedNtB5_7RyZoned19___pymethod_string__
FN:35,_RNvMsj_NtCs8WYW6vAPwZd_9ryo3_jiff8ry_zonedNtB5_7RyZoned20___pymethod___str____
FN:35,_RNvMsj_NtCs8WYW6vAPwZd_9ryo3_jiff8ry_zonedNtB5_7RyZoned20___pymethod_get_day__
FN:35,_RNvMsj_NtCs8WYW6vAPwZd_9ryo3_jiff8ry_zonedNtB5_7RyZoned21___pymethod___hash____
FN:35,_RNvMsj_NtCs8WYW6vAPwZd_9ryo3_jiff8ry_zonedNtB5_7RyZoned21___pymethod___repr____
FN:35,_RNvMsj_NtCs8WYW6vAPwZd_9ryo3_jiff8ry_zonedNtB5_7RyZoned21___pymethod_datetime__
FN:35,_RNvMsj_NtCs8WYW6vAPwZd_9ryo3_jiff8ry_zonedNtB5_7RyZoned21___pymethod_era_year__
FN:35,_RNvMsj_NtCs8WYW6vAPwZd_9ryo3_jiff8ry_zonedNtB5_7RyZoned21___pymethod_get_hour__
FN:35,_RNvMsj_NtCs8WYW6vAPwZd_9ryo3_jiff8ry_zonedNtB5_7RyZoned21___pymethod_get_year__
FN:35,_RNvMsj_NtCs8WYW6vAPwZd_9ryo3_jiff8ry_zonedNtB5_7RyZoned21___pymethod_tomorrow__
FN:35,_RNvMsj_NtCs8WYW6vAPwZd_9ryo3_jiff8ry_zonedNtB5_7RyZoned22___pymethod_get_month__
FN:35,_RNvMsj_NtCs8WYW6vAPwZd_9ryo3_jiff8ry_zonedNtB5_7RyZoned22___pymethod_isoformat__
FN:35,_RNvMsj_NtCs8WYW6vAPwZd_9ryo3_jiff8ry_zonedNtB5_7RyZoned22___pymethod_timestamp__
FN:35,_RNvMsj_NtCs8WYW6vAPwZd_9ryo3_jiff8ry_zonedNtB5_7RyZoned22___pymethod_to_pydate__
FN:35,_RNvMsj_NtCs8WYW6vAPwZd_9ryo3_jiff8ry_zonedNtB5_7RyZoned22___pymethod_to_pytime__
FN:35,_RNvMsj_NtCs8WYW6vAPwZd_9ryo3_jiff8ry_zonedNtB5_7RyZoned22___pymethod_yesterday__
FN:35,_RNvMsj_NtCs8WYW6vAPwZd_9ryo3_jiff8ry_zonedNtB5_7RyZoned23___pymethod_end_of_day__
FN:35,_RNvMsj_NtCs8WYW6vAPwZd_9ryo3_jiff8ry_zonedNtB5_7RyZoned23___pymethod_get_minute__
FN:35,_RNvMsj_NtCs8WYW6vAPwZd_9ryo3_jiff8ry_zonedNtB5_7RyZoned23___pymethod_get_second__
FN:35,_RNvMsj_NtCs8WYW6vAPwZd_9ryo3_jiff8ry_zonedNtB5_7RyZoned23___pymethod_to_rfc2822__
FN:35,_RNvMsj_NtCs8WYW6vAPwZd_9ryo3_jiff8ry_zonedNtB5_7RyZoned24___pymethod_day_of_year__
FN:35,_RNvMsj_NtCs8WYW6vAPwZd_9ryo3_jiff8ry_zonedNtB5_7RyZoned24___pymethod_get_weekday__
FN:35,_RNvMsj_NtCs8WYW6vAPwZd_9ryo3_jiff8ry_zonedNtB5_7RyZoned24___pymethod_to_pytzinfo__
FN:35,_RNvMsj_NtCs8WYW6vAPwZd_9ryo3_jiff8ry_zonedNtB5_7RyZoned25___pymethod_days_in_year__
FN:35,_RNvMsj_NtCs8WYW6vAPwZd_9ryo3_jiff8ry_zonedNtB5_7RyZoned25___pymethod_get_timezone__
FN:35,_RNvMsj_NtCs8WYW6vAPwZd_9ryo3_jiff8ry_zonedNtB5_7RyZoned25___pymethod_in_leap_year__
FN:35,_RNvMsj_NtCs8WYW6vAPwZd_9ryo3_jiff8ry_zonedNtB5_7RyZoned25___pymethod_last_of_year__
FN:35,_RNvMsj_NtCs8WYW6vAPwZd_9ryo3_jiff8ry_zonedNtB5_7RyZoned25___pymethod_start_of_day__
FN:35,_RNvMsj_NtCs8WYW6vAPwZd_9ryo3_jiff8ry_zonedNtB5_7RyZoned26___pymethod_days_in_month__
FN:35,_RNvMsj_NtCs8WYW6vAPwZd_9ryo3_jiff8ry_zonedNtB5_7RyZoned26___pymethod_first_of_year__
FN:35,_RNvMsj_NtCs8WYW6vAPwZd_9ryo3_jiff8ry_zonedNtB5_7RyZoned26___pymethod_iso_week_date__
FN:35,_RNvMsj_NtCs8WYW6vAPwZd_9ryo3_jiff8ry_zonedNtB5_7RyZoned26___pymethod_last_of_month__
FN:35,_RNvMsj_NtCs8WYW6vAPwZd_9ryo3_jiff8ry_zonedNtB5_7RyZoned26___pymethod_to_pydatetime__
FN:35,_RNvMsj_NtCs8WYW6vAPwZd_9ryo3_jiff8ry_zonedNtB5_7RyZoned27___pymethod___getnewargs____
FN:35,_RNvMsj_NtCs8WYW6vAPwZd_9ryo3_jiff8ry_zonedNtB5_7RyZoned27___pymethod_first_of_month__
FN:35,_RNvMsj_NtCs8WYW6vAPwZd_9ryo3_jiff8ry_zonedNtB5_7RyZoned27___pymethod_format_rfc2822__
FN:35,_RNvMsj_NtCs8WYW6vAPwZd_9ryo3_jiff8ry_zonedNtB5_7RyZoned27___pymethod_get_nanosecond__
FN:35,_RNvMsj_NtCs8WYW6vAPwZd_9ryo3_jiff8ry_zonedNtB5_7RyZoned28___pymethod_get_microsecond__
FN:35,_RNvMsj_NtCs8WYW6vAPwZd_9ryo3_jiff8ry_zonedNtB5_7RyZoned28___pymethod_get_millisecond__
FN:35,_RNvMsj_NtCs8WYW6vAPwZd_9ryo3_jiff8ry_zonedNtB5_7RyZoned32___pymethod_day_of_year_no_leap__
FN:35,_RNvMsj_NtCs8WYW6vAPwZd_9ryo3_jiff8ry_zonedNtB5_7RyZoned34___pymethod_get_subsec_nanosecond__
FN:737,_RNvXNtCs8WYW6vAPwZd_9ryo3_jiff8ry_zonedNtB2_7RyZonedNtNtCs66KPHxksi63_4core3fmt7Display3fmt
FN:758,_RNvXs_NtCs8WYW6vAPwZd_9ryo3_jiff8ry_zonedNtB4_7RyZonedINtNtCs66KPHxksi63_4core7convert4FromNtNtCs3tnJ9lKo9L6_4jiff5zoned5ZonedE4from
FN:162,_RNCNvMsd_NtCs8WYW6vAPwZd_9ryo3_jiff8ry_zonedNtB7_7RyZoned10to_rfc28220B9_
FN:152,_RNCNvMsd_NtCs8WYW6vAPwZd_9ryo3_jiff8ry_zonedNtB7_7RyZoned12from_rfc28220B9_
FN:145,_RNCNvMsd_NtCs8WYW6vAPwZd_9ryo3_jiff8ry_zonedNtB7_7RyZoned13parse_rfc28220B9_
FN:157,_RNCNvMsd_NtCs8WYW6vAPwZd_9ryo3_jiff8ry_zonedNtB7_7RyZoned14format_rfc28220B9_
FN:265,_RNCNvMsd_NtCs8WYW6vAPwZd_9ryo3_jiff8ry_zonedNtB7_7RyZoned5in_tz0B9_
FN:281,_RNCNvMsd_NtCs8WYW6vAPwZd_9ryo3_jiff8ry_zonedNtB7_7RyZoned5inutc0B9_
FN:350,_RNCNvMsd_NtCs8WYW6vAPwZd_9ryo3_jiff8ry_zonedNtB7_7RyZoned5round0B9_
FN:357,_RNCNvMsd_NtCs8WYW6vAPwZd_9ryo3_jiff8ry_zonedNtB7_7RyZoned6__round0B9_
FN:180,_RNCNvMsd_NtCs8WYW6vAPwZd_9ryo3_jiff8ry_zonedNtB7_7RyZoned9isoformat0B9_
FN:182,_RNCNvMsd_NtCs8WYW6vAPwZd_9ryo3_jiff8ry_zonedNtB7_7RyZoned9isoformats_0B9_
FNDA:0,_RNvMsd_NtCs8WYW6vAPwZd_9ryo3_jiff8ry_zonedNtB5_7RyZoned10astimezone
FNDA:1,_RNvMsd_NtCs8WYW6vAPwZd_9ryo3_jiff8ry_zonedNtB5_7RyZoned10end_of_day
FNDA:0,_RNvMsd_NtCs8WYW6vAPwZd_9ryo3_jiff8ry_zonedNtB5_7RyZoned10from_parts
FNDA:6,_RNvMsd_NtCs8WYW6vAPwZd_9ryo3_jiff8ry_zonedNtB5_7RyZoned10nanosecond
FNDA:0,_RNvMsd_NtCs8WYW6vAPwZd_9ryo3_jiff8ry_zonedNtB5_7RyZoned10to_rfc2822
FNDA:15,_RNvMsd_NtCs8WYW6vAPwZd_9ryo3_jiff8ry_zonedNtB5_7RyZoned11___richcmp__
FNDA:0,_RNvMsd_NtCs8WYW6vAPwZd_9ryo3_jiff8ry_zonedNtB5_7RyZoned11day_of_year
FNDA:1,_RNvMsd_NtCs8WYW6vAPwZd_9ryo3_jiff8ry_zonedNtB5_7RyZoned11microsecond
FNDA:1,_RNvMsd_NtCs8WYW6vAPwZd_9ryo3_jiff8ry_zonedNtB5_7RyZoned11millisecond
FNDA:0,_RNvMsd_NtCs8WYW6vAPwZd_9ryo3_jiff8ry_zonedNtB5_7RyZoned11nth_weekday
FNDA:0,_RNvMsd_NtCs8WYW6vAPwZd_9ryo3_jiff8ry_zonedNtB5_7RyZoned11to_pytzinfo
FNDA:0,_RNvMsd_NtCs8WYW6vAPwZd_9ryo3_jiff8ry_zonedNtB5_7RyZoned12days_in_year
FNDA:0,_RNvMsd_NtCs8WYW6vAPwZd_9ryo3_jiff8ry_zonedNtB5_7RyZoned12from_rfc2822
FNDA:0,_RNvMsd_NtCs8WYW6vAPwZd_9ryo3_jiff8ry_zonedNtB5_7RyZoned12in_leap_year
FNDA:0,_RNvMsd_NtCs8WYW6vAPwZd_9ryo3_jiff8ry_zonedNtB5_7RyZoned12last_of_year
FNDA:1,_RNvMsd_NtCs8WYW6vAPwZd_9ryo3_jiff8ry_zonedNtB5_7RyZoned12start_of_day
FNDA:0,_RNvMsd_NtCs8WYW6vAPwZd_9ryo3_jiff8ry_zonedNtB5_7RyZoned13days_in_month
FNDA:0,_RNvMsd_NtCs8WYW6vAPwZd_9ryo3_jiff8ry_zonedNtB5_7RyZoned13first_of_year
FNDA:1,_RNvMsd_NtCs8WYW6vAPwZd_9ryo3_jiff8ry_zonedNtB5_7RyZoned13iso_week_date
FNDA:0,_RNvMsd_NtCs8WYW6vAPwZd_9ryo3_jiff8ry_zonedNtB5_7RyZoned13last_of_month
FNDA:2,_RNvMsd_NtCs8WYW6vAPwZd_9ryo3_jiff8ry_zonedNtB5_7RyZoned13parse_rfc2822
FNDA:101,_RNvMsd_NtCs8WYW6vAPwZd_9ryo3_jiff8ry_zonedNtB5_7RyZoned13to_pydatetime
FNDA:2,_RNvMsd_NtCs8WYW6vAPwZd_9ryo3_jiff8ry_zonedNtB5_7RyZoned14___getnewargs__
FNDA:0,_RNvMsd_NtCs8WYW6vAPwZd_9ryo3_jiff8ry_zonedNtB5_7RyZoned14duration_since
FNDA:0,_RNvMsd_NtCs8WYW6vAPwZd_9ryo3_jiff8ry_zonedNtB5_7RyZoned14duration_until
FNDA:0,_RNvMsd_NtCs8WYW6vAPwZd_9ryo3_jiff8ry_zonedNtB5_7RyZoned14first_of_month
FNDA:4,_RNvMsd_NtCs8WYW6vAPwZd_9ryo3_jiff8ry_zonedNtB5_7RyZoned14format_rfc2822
FNDA:0,_RNvMsd_NtCs8WYW6vAPwZd_9ryo3_jiff8ry_zonedNtB5_7RyZoned14saturating_add
FNDA:0,_RNvMsd_NtCs8WYW6vAPwZd_9ryo3_jiff8ry_zonedNtB5_7RyZoned14saturating_sub
FNDA:0,_RNvMsd_NtCs8WYW6vAPwZd_9ryo3_jiff8ry_zonedNtB5_7RyZoned14with_time_zone
FNDA:401,_RNvMsd_NtCs8WYW6vAPwZd_9ryo3_jiff8ry_zonedNtB5_7RyZoned15from_pydatetime
FNDA:4,_RNvMsd_NtCs8WYW6vAPwZd_9ryo3_jiff8ry_zonedNtB5_7RyZoned17subsec_nanosecond
FNDA:0,_RNvMsd_NtCs8WYW6vAPwZd_9ryo3_jiff8ry_zonedNtB5_7RyZoned19day_of_year_no_leap
FNDA:0,_RNvMsd_NtCs8WYW6vAPwZd_9ryo3_jiff8ry_zonedNtB5_7RyZoned20nth_weekday_of_month
FNDA:2,_RNvMsd_NtCs8WYW6vAPwZd_9ryo3_jiff8ry_zonedNtB5_7RyZoned2tz
FNDA:3,_RNvMsd_NtCs8WYW6vAPwZd_9ryo3_jiff8ry_zonedNtB5_7RyZoned3add
FNDA:5,_RNvMsd_NtCs8WYW6vAPwZd_9ryo3_jiff8ry_zonedNtB5_7RyZoned3day
FNDA:7,_RNvMsd_NtCs8WYW6vAPwZd_9ryo3_jiff8ry_zonedNtB5_7RyZoned3now
FNDA:1,_RNvMsd_NtCs8WYW6vAPwZd_9ryo3_jiff8ry_zonedNtB5_7RyZoned3sub
FNDA:3,_RNvMsd_NtCs8WYW6vAPwZd_9ryo3_jiff8ry_zonedNtB5_7RyZoned4date
FNDA:7,_RNvMsd_NtCs8WYW6vAPwZd_9ryo3_jiff8ry_zonedNtB5_7RyZoned4hour
FNDA:0,_RNvMsd_NtCs8WYW6vAPwZd_9ryo3_jiff8ry_zonedNtB5_7RyZoned4intz
FNDA:4,_RNvMsd_NtCs8WYW6vAPwZd_9ryo3_jiff8ry_zonedNtB5_7RyZoned4time
FNDA:5,_RNvMsd_NtCs8WYW6vAPwZd_9ryo3_jiff8ry_zonedNtB5_7RyZoned4year
FNDA:8,_RNvMsd_NtCs8WYW6vAPwZd_9ryo3_jiff8ry_zonedNtB5_7RyZoned5in_tz
FNDA:0,_RNvMsd_NtCs8WYW6vAPwZd_9ryo3_jiff8ry_zonedNtB5_7RyZoned5inutc
FNDA:5,_RNvMsd_NtCs8WYW6vAPwZd_9ryo3_jiff8ry_zonedNtB5_7RyZoned5month
FNDA:5,_RNvMsd_NtCs8WYW6vAPwZd_9ryo3_jiff8ry_zonedNtB5_7RyZoned5parse
FNDA:3,_RNvMsd_NtCs8WYW6vAPwZd_9ryo3_jiff8ry_zonedNtB5_7RyZoned5round
FNDA:0,_RNvMsd_NtCs8WYW6vAPwZd_9ryo3_jiff8ry_zonedNtB5_7RyZoned5since
FNDA:100,_RNvMsd_NtCs8WYW6vAPwZd_9ryo3_jiff8ry_zonedNtB5_7RyZoned5to_py
FNDA:10,_RNvMsd_NtCs8WYW6vAPwZd_9ryo3_jiff8ry_zonedNtB5_7RyZoned5until
FNDA:0,_RNvMsd_NtCs8WYW6vAPwZd_9ryo3_jiff8ry_zonedNtB5_7RyZoned6__round
FNDA:7,_RNvMsd_NtCs8WYW6vAPwZd_9ryo3_jiff8ry_zonedNtB5_7RyZoned6minute
FNDA:1,_RNvMsd_NtCs8WYW6vAPwZd_9ryo3_jiff8ry_zonedNtB5_7RyZoned6offset
FNDA:3,_RNvMsd_NtCs8WYW6vAPwZd_9ryo3_jiff8ry_zonedNtB5_7RyZoned6py_new
FNDA:7,_RNvMsd_NtCs8WYW6vAPwZd_9ryo3_jiff8ry_zonedNtB5_7RyZoned6second
FNDA:26,_RNvMsd_NtCs8WYW6vAPwZd_9ryo3_jiff8ry_zonedNtB5_7RyZoned6string
FNDA:0,_RNvMsd_NtCs8WYW6vAPwZd_9ryo3_jiff8ry_zonedNtB5_7RyZoned6utcnow
FNDA:251,_RNvMsd_NtCs8WYW6vAPwZd_9ryo3_jiff8ry_zonedNtB5_7RyZoned7___add__
FNDA:1,_RNvMsd_NtCs8WYW6vAPwZd_9ryo3_jiff8ry_zonedNtB5_7RyZoned7___str__
FNDA:12,_RNvMsd_NtCs8WYW6vAPwZd_9ryo3_jiff8ry_zonedNtB5_7RyZoned7___sub__
FNDA:2,_RNvMsd_NtCs8WYW6vAPwZd_9ryo3_jiff8ry_zonedNtB5_7RyZoned7replace
FNDA:1,_RNvMsd_NtCs8WYW6vAPwZd_9ryo3_jiff8ry_zonedNtB5_7RyZoned7weekday
FNDA:0,_RNvMsd_NtCs8WYW6vAPwZd_9ryo3_jiff8ry_zonedNtB5_7RyZoned8___hash__
FNDA:1,_RNvMsd_NtCs8WYW6vAPwZd_9ryo3_jiff8ry_zonedNtB5_7RyZoned8___repr__
FNDA:1,_RNvMsd_NtCs8WYW6vAPwZd_9ryo3_jiff8ry_zonedNtB5_7RyZoned8datetime
FNDA:1,_RNvMsd_NtCs8WYW6vAPwZd_9ryo3_jiff8ry_zonedNtB5_7RyZoned8era_year
FNDA:6,_RNvMsd_NtCs8WYW6vAPwZd_9ryo3_jiff8ry_zonedNtB5_7RyZoned8from_str
FNDA:4,_RNvMsd_NtCs8WYW6vAPwZd_9ryo3_jiff8ry_zonedNtB5_7RyZoned8strftime
FNDA:3,_RNvMsd_NtCs8WYW6vAPwZd_9ryo3_jiff8ry_zonedNtB5_7RyZoned8strptime
FNDA:104,_RNvMsd_NtCs8WYW6vAPwZd_9ryo3_jiff8ry_zonedNtB5_7RyZoned8timezone
FNDA:0,_RNvMsd_NtCs8WYW6vAPwZd_9ryo3_jiff8ry_zonedNtB5_7RyZoned8tomorrow
FNDA:300,_RNvMsd_NtCs8WYW6vAPwZd_9ryo3_jiff8ry_zonedNtB5_7RyZoned9isoformat
FNDA:0,_RNvMsd_NtCs8WYW6vAPwZd_9ryo3_jiff8ry_zonedNtB5_7RyZoned9timestamp
FNDA:0,_RNvMsd_NtCs8WYW6vAPwZd_9ryo3_jiff8ry_zonedNtB5_7RyZoned9to_pydate
FNDA:0,_RNvMsd_NtCs8WYW6vAPwZd_9ryo3_jiff8ry_zonedNtB5_7RyZoned9to_pytime
FNDA:0,_RNvMsd_NtCs8WYW6vAPwZd_9ryo3_jiff8ry_zonedNtB5_7RyZoned9yesterday
FNDA:0,_RNvMsj_NtCs8WYW6vAPwZd_9ryo3_jiff8ry_zonedNtB5_7RyZoned17___pymethod_date__
FNDA:0,_RNvMsj_NtCs8WYW6vAPwZd_9ryo3_jiff8ry_zonedNtB5_7RyZoned17___pymethod_time__
FNDA:0,_RNvMsj_NtCs8WYW6vAPwZd_9ryo3_jiff8ry_zonedNtB5_7RyZoned18___pymethod_inutc__
FNDA:0,_RNvMsj_NtCs8WYW6vAPwZd_9ryo3_jiff8ry_zonedNtB5_7RyZoned18___pymethod_to_py__
FNDA:0,_RNvMsj_NtCs8WYW6vAPwZd_9ryo3_jiff8ry_zonedNtB5_7RyZoned19___pymethod_get_tz__
FNDA:0,_RNvMsj_NtCs8WYW6vAPwZd_9ryo3_jiff8ry_zonedNtB5_7RyZoned19___pymethod_offset__
FNDA:0,_RNvMsj_NtCs8WYW6vAPwZd_9ryo3_jiff8ry_zonedNtB5_7RyZoned19___pymethod_string__
FNDA:0,_RNvMsj_NtCs8WYW6vAPwZd_9ryo3_jiff8ry_zonedNtB5_7RyZoned20___pymethod___str____
FNDA:0,_RNvMsj_NtCs8WYW6vAPwZd_9ryo3_jiff8ry_zonedNtB5_7RyZoned20___pymethod_get_day__
FNDA:0,_RNvMsj_NtCs8WYW6vAPwZd_9ryo3_jiff8ry_zonedNtB5_7RyZoned21___pymethod___hash____
FNDA:0,_RNvMsj_NtCs8WYW6vAPwZd_9ryo3_jiff8ry_zonedNtB5_7RyZoned21___pymethod___repr____
FNDA:0,_RNvMsj_NtCs8WYW6vAPwZd_9ryo3_jiff8ry_zonedNtB5_7RyZoned21___pymethod_datetime__
FNDA:0,_RNvMsj_NtCs8WYW6vAPwZd_9ryo3_jiff8ry_zonedNtB5_7RyZoned21___pymethod_era_year__
FNDA:0,_RNvMsj_NtCs8WYW6vAPwZd_9ryo3_jiff8ry_zonedNtB5_7RyZoned21___pymethod_get_hour__
FNDA:0,_RNvMsj_NtCs8WYW6vAPwZd_9ryo3_jiff8ry_zonedNtB5_7RyZoned21___pymethod_get_year__
FNDA:0,_RNvMsj_NtCs8WYW6vAPwZd_9ryo3_jiff8ry_zonedNtB5_7RyZoned21___pymethod_tomorrow__
FNDA:0,_RNvMsj_NtCs8WYW6vAPwZd_9ryo3_jiff8ry_zonedNtB5_7RyZoned22___pymethod_get_month__
FNDA:0,_RNvMsj_NtCs8WYW6vAPwZd_9ryo3_jiff8ry_zonedNtB5_7RyZoned22___pymethod_isoformat__
FNDA:0,_RNvMsj_NtCs8WYW6vAPwZd_9ryo3_jiff8ry_zonedNtB5_7RyZoned22___pymethod_timestamp__
FNDA:0,_RNvMsj_NtCs8WYW6vAPwZd_9ryo3_jiff8ry_zonedNtB5_7RyZoned22___pymethod_to_pydate__
FNDA:0,_RNvMsj_NtCs8WYW6vAPwZd_9ryo3_jiff8ry_zonedNtB5_7RyZoned22___pymethod_to_pytime__
FNDA:0,_RNvMsj_NtCs8WYW6vAPwZd_9ryo3_jiff8ry_zonedNtB5_7RyZoned22___pymethod_yesterday__
FNDA:0,_RNvMsj_NtCs8WYW6vAPwZd_9ryo3_jiff8ry_zonedNtB5_7RyZoned23___pymethod_end_of_day__
FNDA:0,_RNvMsj_NtCs8WYW6vAPwZd_9ryo3_jiff8ry_zonedNtB5_7RyZoned23___pymethod_get_minute__
FNDA:0,_RNvMsj_NtCs8WYW6vAPwZd_9ryo3_jiff8ry_zonedNtB5_7RyZoned23___pymethod_get_second__
FNDA:0,_RNvMsj_NtCs8WYW6vAPwZd_9ryo3_jiff8ry_zonedNtB5_7RyZoned23___pymethod_to_rfc2822__
FNDA:0,_RNvMsj_NtCs8WYW6vAPwZd_9ryo3_jiff8ry_zonedNtB5_7RyZoned24___pymethod_day_of_year__
FNDA:0,_RNvMsj_NtCs8WYW6vAPwZd_9ryo3_jiff8ry_zonedNtB5_7RyZoned24___pymethod_get_weekday__
FNDA:0,_RNvMsj_NtCs8WYW6vAPwZd_9ryo3_jiff8ry_zonedNtB5_7RyZoned24___pymethod_to_pytzinfo__
FNDA:0,_RNvMsj_NtCs8WYW6vAPwZd_9ryo3_jiff8ry_zonedNtB5_7RyZoned25___pymethod_days_in_year__
FNDA:0,_RNvMsj_NtCs8WYW6vAPwZd_9ryo3_jiff8ry_zonedNtB5_7RyZoned25___pymethod_get_timezone__
FNDA:0,_RNvMsj_NtCs8WYW6vAPwZd_9ryo3_jiff8ry_zonedNtB5_7RyZoned25___pymethod_in_leap_year__
FNDA:0,_RNvMsj_NtCs8WYW6vAPwZd_9ryo3_jiff8ry_zonedNtB5_7RyZoned25___pymethod_last_of_year__
FNDA:0,_RNvMsj_NtCs8WYW6vAPwZd_9ryo3_jiff8ry_zonedNtB5_7RyZoned25___pymethod_start_of_day__
FNDA:0,_RNvMsj_NtCs8WYW6vAPwZd_9ryo3_jiff8ry_zonedNtB5_7RyZoned26___pymethod_days_in_month__
FNDA:0,_RNvMsj_NtCs8WYW6vAPwZd_9ryo3_jiff8ry_zonedNtB5_7RyZoned26___pymethod_first_of_year__
FNDA:0,_RNvMsj_NtCs8WYW6vAPwZd_9ryo3_jiff8ry_zonedNtB5_7RyZoned26___pymethod_iso_week_date__
FNDA:0,_RNvMsj_NtCs8WYW6vAPwZd_9ryo3_jiff8ry_zonedNtB5_7RyZoned26___pymethod_last_of_month__
FNDA:0,_RNvMsj_NtCs8WYW6vAPwZd_9ryo3_jiff8ry_zonedNtB5_7RyZoned26___pymethod_to_pydatetime__
FNDA:0,_RNvMsj_NtCs8WYW6vAPwZd_9ryo3_jiff8ry_zonedNtB5_7RyZoned27___pymethod___getnewargs____
FNDA:0,_RNvMsj_NtCs8WYW6vAPwZd_9ryo3_jiff8ry_zonedNtB5_7RyZoned27___pymethod_first_of_month__
FNDA:0,_RNvMsj_NtCs8WYW6vAPwZd_9ryo3_jiff8ry_zonedNtB5_7RyZoned27___pymethod_format_rfc2822__
FNDA:0,_RNvMsj_NtCs8WYW6vAPwZd_9ryo3_jiff8ry_zonedNtB5_7RyZoned27___pymethod_get_nanosecond__
FNDA:0,_RNvMsj_NtCs8WYW6vAPwZd_9ryo3_jiff8ry_zonedNtB5_7RyZoned28___pymethod_get_microsecond__
FNDA:0,_RNvMsj_NtCs8WYW6vAPwZd_9ryo3_jiff8ry_zonedNtB5_7RyZoned28___pymethod_get_millisecond__
FNDA:0,_RNvMsj_NtCs8WYW6vAPwZd_9ryo3_jiff8ry_zonedNtB5_7RyZoned32___pymethod_day_of_year_no_leap__
FNDA:0,_RNvMsj_NtCs8WYW6vAPwZd_9ryo3_jiff8ry_zonedNtB5_7RyZoned34___pymethod_get_subsec_nanosecond__
FNDA:1,_RNvXNtCs8WYW6vAPwZd_9ryo3_jiff8ry_zonedNtB2_7RyZonedNtNtCs66KPHxksi63_4core3fmt7Display3fmt
FNDA:960,_RNvXs_NtCs8WYW6vAPwZd_9ryo3_jiff8ry_zonedNtB4_7RyZonedINtNtCs66KPHxksi63_4core7convert4FromNtNtCs3tnJ9lKo9L6_4jiff5zoned5ZonedE4from
FNDA:0,_RNCNvMsd_NtCs8WYW6vAPwZd_9ryo3_jiff8ry_zonedNtB7_7RyZoned10to_rfc28220B9_
FNDA:0,_RNCNvMsd_NtCs8WYW6vAPwZd_9ryo3_jiff8ry_zonedNtB7_7RyZoned12from_rfc28220B9_
FNDA:0,_RNCNvMsd_NtCs8WYW6vAPwZd_9ryo3_jiff8ry_zonedNtB7_7RyZoned13parse_rfc28220B9_
FNDA:0,_RNCNvMsd_NtCs8WYW6vAPwZd_9ryo3_jiff8ry_zonedNtB7_7RyZoned14format_rfc28220B9_
FNDA:0,_RNCNvMsd_NtCs8WYW6vAPwZd_9ryo3_jiff8ry_zonedNtB7_7RyZoned5in_tz0B9_
FNDA:0,_RNCNvMsd_NtCs8WYW6vAPwZd_9ryo3_jiff8ry_zonedNtB7_7RyZoned5inutc0B9_
FNDA:0,_RNCNvMsd_NtCs8WYW6vAPwZd_9ryo3_jiff8ry_zonedNtB7_7RyZoned5round0B9_
FNDA:0,_RNCNvMsd_NtCs8WYW6vAPwZd_9ryo3_jiff8ry_zonedNtB7_7RyZoned6__round0B9_
FNDA:0,_RNCNvMsd_NtCs8WYW6vAPwZd_9ryo3_jiff8ry_zonedNtB7_7RyZoned9isoformat0B9_
FNDA:0,_RNCNvMsd_NtCs8WYW6vAPwZd_9ryo3_jiff8ry_zonedNtB7_7RyZoned9isoformats_0B9_
FNF:91
FNH:48
DA:35,0
DA:40,3
DA:41,3
DA:42,3
DA:43,3
DA:44,3
DA:45,3
DA:46,3
DA:47,3
DA:48,3
DA:49,3
DA:50,3
DA:51,3
DA:52,3
DA:53,3
DA:54,3
DA:55,3
DA:56,3
DA:58,0
DA:59,0
DA:60,0
DA:61,0
DA:62,0
DA:63,0
DA:64,0
DA:66,3
DA:68,2
DA:69,2
DA:70,2
DA:71,2
DA:72,2
DA:73,2
DA:74,2
DA:75,2
DA:76,2
DA:77,2
DA:78,2
DA:79,2
DA:82,2
DA:86,7
DA:87,7
DA:88,0
DA:89,0
DA:90,0
DA:91,0
DA:93,7
DA:95,7
DA:98,0
DA:99,0
DA:100,0
DA:101,0
DA:102,0
DA:103,0
DA:107,0
DA:108,0
DA:109,0
DA:110,0
DA:111,0
DA:112,0
DA:113,0
DA:114,0
DA:117,6
DA:118,6
DA:119,6
DA:122,5
DA:123,5
DA:124,5
DA:129,4
DA:130,4
DA:131,4
DA:135,3
DA:136,3
DA:137,3
DA:138,3
DA:139,3
DA:142,2
DA:143,2
DA:144,2
DA:145,2
DA:146,2
DA:149,0
DA:150,0
DA:151,0
DA:152,0
DA:153,0
DA:155,4
DA:156,4
DA:157,4
DA:158,4
DA:160,0
DA:161,0
DA:162,0
DA:163,0
DA:170,300
DA:171,300
DA:173,300
DA:174,300
DA:175,300
DA:176,21
DA:178,279
DA:180,300
DA:181,300
DA:182,300
DA:183,300
DA:184,300
DA:186,15
DA:187,15
DA:188,15
DA:189,0
DA:190,0
DA:191,0
DA:192,0
DA:193,0
DA:195,15
DA:197,26
DA:198,26
DA:199,26
DA:201,1
DA:202,1
DA:203,1
DA:205,1
DA:206,1
DA:207,1
DA:209,0
DA:210,0
DA:211,0
DA:212,0
DA:213,0
DA:214,0
DA:215,0
DA:216,0
DA:217,0
DA:218,0
DA:220,0
DA:221,0
DA:222,0
DA:224,3
DA:225,3
DA:226,3
DA:228,4
DA:229,4
DA:230,4
DA:232,1
DA:233,1
DA:234,1
DA:236,100
DA:237,100
DA:238,100
DA:240,101
DA:241,101
DA:242,101
DA:244,0
DA:245,0
DA:246,0
DA:248,0
DA:249,0
DA:250,0
DA:252,0
DA:253,0
DA:254,0
DA:257,401
DA:258,401
DA:259,401
DA:261,8
DA:262,8
DA:263,8
DA:264,8
DA:265,8
DA:266,8
DA:268,0
DA:269,0
DA:270,0
DA:271,0
DA:273,0
DA:274,0
DA:275,0
DA:277,0
DA:278,0
DA:279,0
DA:280,0
DA:281,0
DA:282,0
DA:284,12
DA:285,12
DA:286,12
DA:287,12
DA:288,12
DA:290,12
DA:292,8
DA:293,8
DA:294,8
DA:296,4
DA:297,4
DA:298,4
DA:300,12
DA:302,251
DA:303,251
DA:304,251
DA:305,251
DA:306,251
DA:307,251
DA:308,251
DA:310,3
DA:311,3
DA:312,3
DA:314,1
DA:315,1
DA:316,1
DA:318,0
DA:319,0
DA:320,0
DA:321,0
DA:323,0
DA:324,0
DA:325,0
DA:326,0
DA:331,3
DA:332,3
DA:333,3
DA:334,3
DA:335,3
DA:336,3
DA:337,3
DA:338,3
DA:339,3
DA:340,3
DA:341,3
DA:342,0
DA:343,3
DA:344,3
DA:345,0
DA:346,3
DA:347,3
DA:348,3
DA:349,3
DA:350,3
DA:351,3
DA:353,0
DA:354,0
DA:355,0
DA:356,0
DA:357,0
DA:358,0
DA:360,0
DA:361,0
DA:362,0
DA:364,0
DA:365,0
DA:366,0
DA:368,1
DA:369,1
DA:370,1
DA:371,1
DA:372,1
DA:373,1
DA:375,0
DA:376,0
DA:377,0
DA:379,0
DA:380,0
DA:381,0
DA:382,0
DA:383,0
DA:384,0
DA:386,0
DA:387,0
DA:388,0
DA:389,0
DA:390,0
DA:391,0
DA:393,0
DA:394,0
DA:395,0
DA:397,0
DA:398,0
DA:399,0
DA:401,0
DA:402,0
DA:403,0
DA:405,0
DA:406,0
DA:407,0
DA:409,0
DA:410,0
DA:411,0
DA:413,0
DA:414,0
DA:415,0
DA:417,1
DA:418,1
DA:419,1
DA:420,1
DA:421,1
DA:423,0
DA:424,0
DA:425,0
DA:426,0
DA:427,0
DA:428,0
DA:430,0
DA:431,0
DA:432,0
DA:433,0
DA:434,0
DA:435,0
DA:437,0
DA:438,0
DA:439,0
DA:440,0
DA:441,0
DA:442,0
DA:444,0
DA:445,0
DA:446,0
DA:447,0
DA:448,0
DA:449,0
DA:451,1
DA:452,1
DA:453,1
DA:455,1
DA:456,1
DA:457,1
DA:458,1
DA:459,1
DA:460,1
DA:465,0
DA:466,0
DA:467,0
DA:468,0
DA:469,0
DA:470,0
DA:471,0
DA:472,0
DA:473,0
DA:474,0
DA:475,0
DA:476,0
DA:477,0
DA:478,0
DA:479,0
DA:480,0
DA:481,0
DA:482,0
DA:483,0
DA:484,0
DA:485,0
DA:486,0
DA:487,0
DA:488,0
DA:489,0
DA:490,0
DA:495,10
DA:496,10
DA:497,10
DA:498,10
DA:499,10
DA:500,10
DA:501,10
DA:502,10
DA:503,10
DA:504,10
DA:505,2
DA:506,8
DA:507,10
DA:508,5
DA:509,5
DA:510,10
DA:511,0
DA:512,10
DA:513,10
DA:514,0
DA:515,10
DA:516,10
DA:517,10
DA:518,10
DA:519,10
DA:520,10
DA:522,0
DA:523,0
DA:524,0
DA:526,1
DA:527,1
DA:528,1
DA:529,1
DA:556,2
DA:557,2
DA:558,2
DA:559,2
DA:560,2
DA:561,2
DA:562,2
DA:563,2
DA:564,2
DA:565,2
DA:566,2
DA:567,2
DA:568,2
DA:569,2
DA:570,2
DA:571,2
DA:572,2
DA:573,2
DA:574,2
DA:575,2
DA:576,2
DA:577,2
DA:579,2
DA:580,2
DA:582,0
DA:584,0
DA:585,0
DA:586,0
DA:588,0
DA:589,0
DA:590,0
DA:591,0
DA:592,0
DA:594,0
DA:595,0
DA:596,0
DA:598,2
DA:601,2
DA:602,0
DA:603,2
DA:604,2
DA:605,0
DA:606,2
DA:607,2
DA:608,0
DA:609,2
DA:610,2
DA:611,0
DA:612,2
DA:613,2
DA:614,0
DA:615,2
DA:616,2
DA:617,0
DA:618,2
DA:619,2
DA:620,0
DA:621,2
DA:622,2
DA:623,0
DA:624,2
DA:625,2
DA:626,2
DA:627,2
DA:628,2
DA:629,2
DA:630,2
DA:631,2
DA:632,2
DA:633,2
DA:634,2
DA:635,0
DA:636,2
DA:637,2
DA:638,0
DA:639,2
DA:640,2
DA:641,2
DA:642,2
DA:643,2
DA:644,0
DA:645,2
DA:646,2
DA:647,0
DA:648,2
DA:649,2
DA:650,0
DA:651,2
DA:652,2
DA:653,0
DA:654,2
DA:656,2
DA:657,2
DA:663,104
DA:664,104
DA:665,104
DA:668,2
DA:669,2
DA:670,2
DA:673,5
DA:674,5
DA:675,5
DA:678,5
DA:679,5
DA:680,5
DA:683,5
DA:684,5
DA:685,5
DA:688,1
DA:689,1
DA:690,0
DA:691,0
DA:692,1
DA:693,0
DA:694,0
DA:695,0
DA:696,0
DA:698,1
DA:701,7
DA:702,7
DA:703,7
DA:706,7
DA:707,7
DA:708,7
DA:711,7
DA:712,7
DA:713,7
DA:716,1
DA:717,1
DA:718,1
DA:721,1
DA:722,1
DA:723,1
DA:726,6
DA:727,6
DA:728,6
DA:731,4
DA:732,4
DA:733,4
DA:737,1
DA:738,1
DA:739,1
DA:740,1
DA:741,1
DA:742,1
DA:743,1
DA:744,1
DA:745,1
DA:746,1
DA:747,1
DA:748,1
DA:752,0
DA:754,1
DA:758,960
DA:759,960
DA:760,960
BRF:0
BRH:0
LF:551
LH:323
end_of_record
SF:/home/jesse/ry/crates/ryo3-jiff/src/ry_zoned_difference.rs
FN:59,_RNvMs9_NtCs8WYW6vAPwZd_9ryo3_jiff19ry_zoned_differenceNtB5_17RyZonedDifference4mode
FN:23,_RNvMs9_NtCs8WYW6vAPwZd_9ryo3_jiff19ry_zoned_differenceNtB5_17RyZonedDifference6py_new
FN:49,_RNvMs9_NtCs8WYW6vAPwZd_9ryo3_jiff19ry_zoned_differenceNtB5_17RyZonedDifference7largest
FN:39,_RNvMs9_NtCs8WYW6vAPwZd_9ryo3_jiff19ry_zoned_differenceNtB5_17RyZonedDifference8smallest
FN:69,_RNvMs9_NtCs8WYW6vAPwZd_9ryo3_jiff19ry_zoned_differenceNtB5_17RyZonedDifference9increment
FNDA:0,_RNvMs9_NtCs8WYW6vAPwZd_9ryo3_jiff19ry_zoned_differenceNtB5_17RyZonedDifference4mode
FNDA:0,_RNvMs9_NtCs8WYW6vAPwZd_9ryo3_jiff19ry_zoned_differenceNtB5_17RyZonedDifference6py_new
FNDA:0,_RNvMs9_NtCs8WYW6vAPwZd_9ryo3_jiff19ry_zoned_differenceNtB5_17RyZonedDifference7largest
FNDA:0,_RNvMs9_NtCs8WYW6vAPwZd_9ryo3_jiff19ry_zoned_differenceNtB5_17RyZonedDifference8smallest
FNDA:0,_RNvMs9_NtCs8WYW6vAPwZd_9ryo3_jiff19ry_zoned_differenceNtB5_17RyZonedDifference9increment
FNF:5
FNH:0
DA:23,0
DA:24,0
DA:25,0
DA:26,0
DA:27,0
DA:28,0
DA:29,0
DA:31,0
DA:32,0
DA:33,0
DA:34,0
DA:35,0
DA:37,0
DA:39,0
DA:40,0
DA:41,0
DA:42,0
DA:43,0
DA:44,0
DA:45,0
DA:46,0
DA:47,0
DA:49,0
DA:50,0
DA:51,0
DA:52,0
DA:53,0
DA:54,0
DA:55,0
DA:56,0
DA:57,0
DA:59,0
DA:60,0
DA:61,0
DA:62,0
DA:63,0
DA:64,0
DA:65,0
DA:66,0
DA:67,0
DA:69,0
DA:70,0
DA:71,0
DA:72,0
DA:73,0
DA:74,0
DA:75,0
DA:76,0
DA:77,0
BRF:0
BRH:0
LF:49
LH:0
end_of_record
SF:/home/jesse/ry/crates/ryo3-jiff/src/ry_zoned_round.rs
FN:93,_RNvMs9_NtCs8WYW6vAPwZd_9ryo3_jiff14ry_zoned_roundNtB5_20RyZonedDateTimeRound10__increment
FN:77,_RNvMs9_NtCs8WYW6vAPwZd_9ryo3_jiff14ry_zoned_roundNtB5_20RyZonedDateTimeRound4mode
FN:89,_RNvMs9_NtCs8WYW6vAPwZd_9ryo3_jiff14ry_zoned_roundNtB5_20RyZonedDateTimeRound5__mode
FN:45,_RNvMs9_NtCs8WYW6vAPwZd_9ryo3_jiff14ry_zoned_roundNtB5_20RyZonedDateTimeRound6___eq__
FN:19,_RNvMs9_NtCs8WYW6vAPwZd_9ryo3_jiff14ry_zoned_roundNtB5_20RyZonedDateTimeRound6py_new
FN:34,_RNvMs9_NtCs8WYW6vAPwZd_9ryo3_jiff14ry_zoned_roundNtB5_20RyZonedDateTimeRound7___str__
FN:52,_RNvMs9_NtCs8WYW6vAPwZd_9ryo3_jiff14ry_zoned_roundNtB5_20RyZonedDateTimeRound7replace
FN:38,_RNvMs9_NtCs8WYW6vAPwZd_9ryo3_jiff14ry_zoned_roundNtB5_20RyZonedDateTimeRound8___repr__
FN:73,_RNvMs9_NtCs8WYW6vAPwZd_9ryo3_jiff14ry_zoned_roundNtB5_20RyZonedDateTimeRound8smallest
FN:85,_RNvMs9_NtCs8WYW6vAPwZd_9ryo3_jiff14ry_zoned_roundNtB5_20RyZonedDateTimeRound9__smallest
FN:81,_RNvMs9_NtCs8WYW6vAPwZd_9ryo3_jiff14ry_zoned_roundNtB5_20RyZonedDateTimeRound9increment
FN:15,_RNvMsd_NtCs8WYW6vAPwZd_9ryo3_jiff14ry_zoned_roundNtB5_20RyZonedDateTimeRound18___pymethod__mode__
FN:15,_RNvMsd_NtCs8WYW6vAPwZd_9ryo3_jiff14ry_zoned_roundNtB5_20RyZonedDateTimeRound20___pymethod___str____
FN:15,_RNvMsd_NtCs8WYW6vAPwZd_9ryo3_jiff14ry_zoned_roundNtB5_20RyZonedDateTimeRound21___pymethod___repr____
FN:15,_RNvMsd_NtCs8WYW6vAPwZd_9ryo3_jiff14ry_zoned_roundNtB5_20RyZonedDateTimeRound22___pymethod__smallest__
FN:15,_RNvMsd_NtCs8WYW6vAPwZd_9ryo3_jiff14ry_zoned_roundNtB5_20RyZonedDateTimeRound23___pymethod__increment__
FNDA:0,_RNvMs9_NtCs8WYW6vAPwZd_9ryo3_jiff14ry_zoned_roundNtB5_20RyZonedDateTimeRound10__increment
FNDA:0,_RNvMs9_NtCs8WYW6vAPwZd_9ryo3_jiff14ry_zoned_roundNtB5_20RyZonedDateTimeRound4mode
FNDA:0,_RNvMs9_NtCs8WYW6vAPwZd_9ryo3_jiff14ry_zoned_roundNtB5_20RyZonedDateTimeRound5__mode
FNDA:0,_RNvMs9_NtCs8WYW6vAPwZd_9ryo3_jiff14ry_zoned_roundNtB5_20RyZonedDateTimeRound6___eq__
FNDA:0,_RNvMs9_NtCs8WYW6vAPwZd_9ryo3_jiff14ry_zoned_roundNtB5_20RyZonedDateTimeRound6py_new
FNDA:0,_RNvMs9_NtCs8WYW6vAPwZd_9ryo3_jiff14ry_zoned_roundNtB5_20RyZonedDateTimeRound7___str__
FNDA:0,_RNvMs9_NtCs8WYW6vAPwZd_9ryo3_jiff14ry_zoned_roundNtB5_20RyZonedDateTimeRound7replace
FNDA:0,_RNvMs9_NtCs8WYW6vAPwZd_9ryo3_jiff14ry_zoned_roundNtB5_20RyZonedDateTimeRound8___repr__
FNDA:0,_RNvMs9_NtCs8WYW6vAPwZd_9ryo3_jiff14ry_zoned_roundNtB5_20RyZonedDateTimeRound8smallest
FNDA:0,_RNvMs9_NtCs8WYW6vAPwZd_9ryo3_jiff14ry_zoned_roundNtB5_20RyZonedDateTimeRound9__smallest
FNDA:0,_RNvMs9_NtCs8WYW6vAPwZd_9ryo3_jiff14ry_zoned_roundNtB5_20RyZonedDateTimeRound9increment
FNDA:0,_RNvMsd_NtCs8WYW6vAPwZd_9ryo3_jiff14ry_zoned_roundNtB5_20RyZonedDateTimeRound18___pymethod__mode__
FNDA:0,_RNvMsd_NtCs8WYW6vAPwZd_9ryo3_jiff14ry_zoned_roundNtB5_20RyZonedDateTimeRound20___pymethod___str____
FNDA:0,_RNvMsd_NtCs8WYW6vAPwZd_9ryo3_jiff14ry_zoned_roundNtB5_20RyZonedDateTimeRound21___pymethod___repr____
FNDA:0,_RNvMsd_NtCs8WYW6vAPwZd_9ryo3_jiff14ry_zoned_roundNtB5_20RyZonedDateTimeRound22___pymethod__smallest__
FNDA:0,_RNvMsd_NtCs8WYW6vAPwZd_9ryo3_jiff14ry_zoned_roundNtB5_20RyZonedDateTimeRound23___pymethod__increment__
FNF:12
FNH:0
DA:15,0
DA:19,0
DA:20,0
DA:21,0
DA:22,0
DA:23,0
DA:24,0
DA:25,0
DA:26,0
DA:27,0
DA:28,0
DA:29,0
DA:30,0
DA:31,0
DA:32,0
DA:34,0
DA:35,0
DA:36,0
DA:38,0
DA:39,0
DA:40,0
DA:43,0
DA:45,0
DA:46,0
DA:47,0
DA:48,0
DA:49,0
DA:52,0
DA:53,0
DA:54,0
DA:55,0
DA:56,0
DA:57,0
DA:58,0
DA:59,0
DA:60,0
DA:61,0
DA:62,0
DA:63,0
DA:64,0
DA:65,0
DA:66,0
DA:67,0
DA:68,0
DA:69,0
DA:70,0
DA:71,0
DA:73,0
DA:74,0
DA:75,0
DA:77,0
DA:78,0
DA:79,0
DA:81,0
DA:82,0
DA:83,0
DA:85,0
DA:86,0
DA:87,0
DA:89,0
DA:90,0
DA:91,0
DA:93,0
DA:94,0
DA:95,0
BRF:0
BRH:0
LF:65
LH:0
end_of_record
SF:/home/jesse/ry/crates/ryo3-jiff/src/serde.rs
FN:7,_RINvXNtCs8WYW6vAPwZd_9ryo3_jiff5serdeNtNtB5_11ry_timezone10RyTimeZoneNtNtCs3fLGeRDR8xN_5serde3ser9Serialize9serializeNtNtNtCs1nD62ErW5hY_10serde_json5value3ser10SerializerECseRQUDV3LdmP_9ryo3_json
FN:7,_RINvXNtCs8WYW6vAPwZd_9ryo3_jiff5serdeNtNtB5_11ry_timezone10RyTimeZoneNtNtCs3fLGeRDR8xN_5serde3ser9Serialize9serializeQINtNtCs1nD62ErW5hY_10serde_json3ser10SerializerQINtNtCs8Ty2CzGA6U3_5alloc3vec3VechEEECseRQUDV3LdmP_9ryo3_json
FN:7,_RINvXNtCs8WYW6vAPwZd_9ryo3_jiff5serdeNtNtB5_11ry_timezone10RyTimeZoneNtNtCs3fLGeRDR8xN_5serde3ser9Serialize9serializeQINtNtCs1nD62ErW5hY_10serde_json3ser10SerializerQINtNtCs8Ty2CzGA6U3_5alloc3vec3VechENtB1V_15PrettyFormatterEECseRQUDV3LdmP_9ryo3_json
FN:7,_RINvXNtCs8WYW6vAPwZd_9ryo3_jiff5serdeNtNtB5_11ry_timezone10RyTimeZoneNtNtCs3fLGeRDR8xN_5serde3ser9Serialize9serializeQINtNtCs1nD62ErW5hY_10serde_json3ser10SerializerQINtNtCs8Ty2CzGA6U3_5alloc3vec3VechEEECs3QWMMxPHX46_12ryo3_reqwest
FNDA:0,_RINvXNtCs8WYW6vAPwZd_9ryo3_jiff5serdeNtNtB5_11ry_timezone10RyTimeZoneNtNtCs3fLGeRDR8xN_5serde3ser9Serialize9serializeNtNtNtCs1nD62ErW5hY_10serde_json5value3ser10SerializerECseRQUDV3LdmP_9ryo3_json
FNDA:0,_RINvXNtCs8WYW6vAPwZd_9ryo3_jiff5serdeNtNtB5_11ry_timezone10RyTimeZoneNtNtCs3fLGeRDR8xN_5serde3ser9Serialize9serializeQINtNtCs1nD62ErW5hY_10serde_json3ser10SerializerQINtNtCs8Ty2CzGA6U3_5alloc3vec3VechEEECseRQUDV3LdmP_9ryo3_json
FNDA:1,_RINvXNtCs8WYW6vAPwZd_9ryo3_jiff5serdeNtNtB5_11ry_timezone10RyTimeZoneNtNtCs3fLGeRDR8xN_5serde3ser9Serialize9serializeQINtNtCs1nD62ErW5hY_10serde_json3ser10SerializerQINtNtCs8Ty2CzGA6U3_5alloc3vec3VechENtB1V_15PrettyFormatterEECseRQUDV3LdmP_9ryo3_json
FNDA:0,_RINvXNtCs8WYW6vAPwZd_9ryo3_jiff5serdeNtNtB5_11ry_timezone10RyTimeZoneNtNtCs3fLGeRDR8xN_5serde3ser9Serialize9serializeQINtNtCs1nD62ErW5hY_10serde_json3ser10SerializerQINtNtCs8Ty2CzGA6U3_5alloc3vec3VechEEECs3QWMMxPHX46_12ryo3_reqwest
FNF:1
FNH:1
DA:7,1
DA:8,1
DA:9,1
DA:11,1
DA:12,1
BRF:0
BRH:0
LF:5
LH:5
end_of_record
SF:/home/jesse/ry/crates/ryo3-jiff/src/series.rs
FN:77,_RNvMsB_NtCs8WYW6vAPwZd_9ryo3_jiff6seriesNtB5_12RyTimeSeries21___pymethod___iter____
FN:118,_RNvMsL_NtCs8WYW6vAPwZd_9ryo3_jiff6seriesNtB5_17RyTimestampSeries4take
FN:109,_RNvMsL_NtCs8WYW6vAPwZd_9ryo3_jiff6seriesNtB5_17RyTimestampSeries8___iter__
FN:113,_RNvMsL_NtCs8WYW6vAPwZd_9ryo3_jiff6seriesNtB5_17RyTimestampSeries8___next__
FN:107,_RNvMsN_NtCs8WYW6vAPwZd_9ryo3_jiff6seriesNtB5_17RyTimestampSeries21___pymethod___iter____
FN:28,_RNvMsb_NtCs8WYW6vAPwZd_9ryo3_jiff6seriesNtB5_12RyDateSeries4take
FN:19,_RNvMsb_NtCs8WYW6vAPwZd_9ryo3_jiff6seriesNtB5_12RyDateSeries8___iter__
FN:23,_RNvMsb_NtCs8WYW6vAPwZd_9ryo3_jiff6seriesNtB5_12RyDateSeries8___next__
FN:17,_RNvMsd_NtCs8WYW6vAPwZd_9ryo3_jiff6seriesNtB5_12RyDateSeries21___pymethod___iter____
FN:58,_RNvMsn_NtCs8WYW6vAPwZd_9ryo3_jiff6seriesNtB5_16RyDateTimeSeries4take
FN:49,_RNvMsn_NtCs8WYW6vAPwZd_9ryo3_jiff6seriesNtB5_16RyDateTimeSeries8___iter__
FN:53,_RNvMsn_NtCs8WYW6vAPwZd_9ryo3_jiff6seriesNtB5_16RyDateTimeSeries8___next__
FN:47,_RNvMsp_NtCs8WYW6vAPwZd_9ryo3_jiff6seriesNtB5_16RyDateTimeSeries21___pymethod___iter____
FN:88,_RNvMsz_NtCs8WYW6vAPwZd_9ryo3_jiff6seriesNtB5_12RyTimeSeries4take
FN:79,_RNvMsz_NtCs8WYW6vAPwZd_9ryo3_jiff6seriesNtB5_12RyTimeSeries8___iter__
FN:83,_RNvMsz_NtCs8WYW6vAPwZd_9ryo3_jiff6seriesNtB5_12RyTimeSeries8___next__
FN:10,_RNvXNtCs8WYW6vAPwZd_9ryo3_jiff6seriesNtB2_12RyDateSeriesINtNtCs66KPHxksi63_4core7convert4FromNtNtNtCs3tnJ9lKo9L6_4jiff5civil4date10DateSeriesE4from
FN:70,_RNvXs0_NtCs8WYW6vAPwZd_9ryo3_jiff6seriesNtB5_12RyTimeSeriesINtNtCs66KPHxksi63_4core7convert4FromNtNtNtCs3tnJ9lKo9L6_4jiff5civil4time10TimeSeriesE4from
FN:100,_RNvXs1_NtCs8WYW6vAPwZd_9ryo3_jiff6seriesNtB5_17RyTimestampSeriesINtNtCs66KPHxksi63_4core7convert4FromNtNtCs3tnJ9lKo9L6_4jiff9timestamp15TimestampSeriesE4from
FN:40,_RNvXs_NtCs8WYW6vAPwZd_9ryo3_jiff6seriesNtB4_16RyDateTimeSeriesINtNtCs66KPHxksi63_4core7convert4FromNtNtNtCs3tnJ9lKo9L6_4jiff5civil8datetime14DateTimeSeriesE4from
FNDA:0,_RNvMsB_NtCs8WYW6vAPwZd_9ryo3_jiff6seriesNtB5_12RyTimeSeries21___pymethod___iter____
FNDA:0,_RNvMsL_NtCs8WYW6vAPwZd_9ryo3_jiff6seriesNtB5_17RyTimestampSeries4take
FNDA:1,_RNvMsL_NtCs8WYW6vAPwZd_9ryo3_jiff6seriesNtB5_17RyTimestampSeries8___iter__
FNDA:11,_RNvMsL_NtCs8WYW6vAPwZd_9ryo3_jiff6seriesNtB5_17RyTimestampSeries8___next__
FNDA:0,_RNvMsN_NtCs8WYW6vAPwZd_9ryo3_jiff6seriesNtB5_17RyTimestampSeries21___pymethod___iter____
FNDA:0,_RNvMsb_NtCs8WYW6vAPwZd_9ryo3_jiff6seriesNtB5_12RyDateSeries4take
FNDA:0,_RNvMsb_NtCs8WYW6vAPwZd_9ryo3_jiff6seriesNtB5_12RyDateSeries8___iter__
FNDA:0,_RNvMsb_NtCs8WYW6vAPwZd_9ryo3_jiff6seriesNtB5_12RyDateSeries8___next__
FNDA:0,_RNvMsd_NtCs8WYW6vAPwZd_9ryo3_jiff6seriesNtB5_12RyDateSeries21___pymethod___iter____
FNDA:0,_RNvMsn_NtCs8WYW6vAPwZd_9ryo3_jiff6seriesNtB5_16RyDateTimeSeries4take
FNDA:0,_RNvMsn_NtCs8WYW6vAPwZd_9ryo3_jiff6seriesNtB5_16RyDateTimeSeries8___iter__
FNDA:0,_RNvMsn_NtCs8WYW6vAPwZd_9ryo3_jiff6seriesNtB5_16RyDateTimeSeries8___next__
FNDA:0,_RNvMsp_NtCs8WYW6vAPwZd_9ryo3_jiff6seriesNtB5_16RyDateTimeSeries21___pymethod___iter____
FNDA:0,_RNvMsz_NtCs8WYW6vAPwZd_9ryo3_jiff6seriesNtB5_12RyTimeSeries4take
FNDA:5,_RNvMsz_NtCs8WYW6vAPwZd_9ryo3_jiff6seriesNtB5_12RyTimeSeries8___iter__
FNDA:41,_RNvMsz_NtCs8WYW6vAPwZd_9ryo3_jiff6seriesNtB5_12RyTimeSeries8___next__
FNDA:0,_RNvXNtCs8WYW6vAPwZd_9ryo3_jiff6seriesNtB2_12RyDateSeriesINtNtCs66KPHxksi63_4core7convert4FromNtNtNtCs3tnJ9lKo9L6_4jiff5civil4date10DateSeriesE4from
FNDA:5,_RNvXs0_NtCs8WYW6vAPwZd_9ryo3_jiff6seriesNtB5_12RyTimeSeriesINtNtCs66KPHxksi63_4core7convert4FromNtNtNtCs3tnJ9lKo9L6_4jiff5civil4time10TimeSeriesE4from
FNDA:1,_RNvXs1_NtCs8WYW6vAPwZd_9ryo3_jiff6seriesNtB5_17RyTimestampSeriesINtNtCs66KPHxksi63_4core7convert4FromNtNtCs3tnJ9lKo9L6_4jiff9timestamp15TimestampSeriesE4from
FNDA:0,_RNvXs_NtCs8WYW6vAPwZd_9ryo3_jiff6seriesNtB4_16RyDateTimeSeriesINtNtCs66KPHxksi63_4core7convert4FromNtNtNtCs3tnJ9lKo9L6_4jiff5civil8datetime14DateTimeSeriesE4from
FNF:20
FNH:6
DA:10,0
DA:11,0
DA:12,0
DA:13,0
DA:14,0
DA:17,0
DA:19,0
DA:20,0
DA:21,0
DA:23,0
DA:24,0
DA:25,0
DA:28,0
DA:29,0
DA:30,0
DA:31,0
DA:40,0
DA:41,0
DA:42,0
DA:43,0
DA:44,0
DA:47,0
DA:49,0
DA:50,0
DA:51,0
DA:53,0
DA:54,0
DA:55,0
DA:58,0
DA:59,0
DA:60,0
DA:61,0
DA:70,5
DA:71,5
DA:72,5
DA:73,5
DA:74,5
DA:77,0
DA:79,5
DA:80,5
DA:81,5
DA:83,41
DA:84,41
DA:85,41
DA:88,0
DA:89,0
DA:90,0
DA:91,0
DA:100,1
DA:101,1
DA:102,1
DA:103,1
DA:104,1
DA:107,0
DA:109,1
DA:110,1
DA:111,1
DA:113,11
DA:114,11
DA:115,11
DA:118,0
DA:119,0
DA:120,0
DA:121,0
BRF:0
BRH:0
LF:64
LH:22
end_of_record
SF:/home/jesse/ry/crates/ryo3-jiff/src/span_relative_to.rs
FN:14,_RNvXNtCs8WYW6vAPwZd_9ryo3_jiff16span_relative_toNtB2_16RySpanRelativeToINtNtCs66KPHxksi63_4core7convert4FromNtNtB4_8ry_zoned7RyZonedE4from
FN:26,_RNvXs0_NtCs8WYW6vAPwZd_9ryo3_jiff16span_relative_toNtB5_16RySpanRelativeToINtNtCs66KPHxksi63_4core7convert4FromNtNtB7_11ry_datetime10RyDateTimeE4from
FN:20,_RNvXs_NtCs8WYW6vAPwZd_9ryo3_jiff16span_relative_toNtB4_16RySpanRelativeToINtNtCs66KPHxksi63_4core7convert4FromNtNtB6_7ry_date6RyDateE4from
FNDA:0,_RNvXNtCs8WYW6vAPwZd_9ryo3_jiff16span_relative_toNtB2_16RySpanRelativeToINtNtCs66KPHxksi63_4core7convert4FromNtNtB4_8ry_zoned7RyZonedE4from
FNDA:0,_RNvXs0_NtCs8WYW6vAPwZd_9ryo3_jiff16span_relative_toNtB5_16RySpanRelativeToINtNtCs66KPHxksi63_4core7convert4FromNtNtB7_11ry_datetime10RyDateTimeE4from
FNDA:0,_RNvXs_NtCs8WYW6vAPwZd_9ryo3_jiff16span_relative_toNtB4_16RySpanRelativeToINtNtCs66KPHxksi63_4core7convert4FromNtNtB6_7ry_date6RyDateE4from
FNF:3
FNH:0
DA:14,0
DA:15,0
DA:16,0
DA:20,0
DA:21,0
DA:22,0
DA:26,0
DA:27,0
DA:28,0
BRF:0
BRH:0
LF:9
LH:0
end_of_record
SF:/home/jesse/ry/crates/ryo3-jiff/src/spanish.rs
FN:45,_RNvXs_NtCs8WYW6vAPwZd_9ryo3_jiff7spanishNtNtCs3tnJ9lKo9L6_4jiff4span4SpanINtNtCs66KPHxksi63_4core7convert7TryFromNtB4_7SpanishE8try_from
FN:106,_RNvXs4_NtCs8WYW6vAPwZd_9ryo3_jiff7spanishNtNtNtCs3tnJ9lKo9L6_4jiff5civil4time14TimeArithmeticINtNtCs66KPHxksi63_4core7convert4FromNtB5_7SpanishE4from
FN:117,_RNvXs5_NtCs8WYW6vAPwZd_9ryo3_jiff7spanishNtNtNtCs3tnJ9lKo9L6_4jiff2tz6offset16OffsetArithmeticINtNtCs66KPHxksi63_4core7convert4FromNtB5_7SpanishE4from
FN:95,_RNvXs3_NtCs8WYW6vAPwZd_9ryo3_jiff7spanishNtNtNtCs3tnJ9lKo9L6_4jiff5civil8datetime18DateTimeArithmeticINtNtCs66KPHxksi63_4core7convert4FromNtB5_7SpanishE4from
FN:24,_RNvXNtCs8WYW6vAPwZd_9ryo3_jiff7spanishNtB2_7SpanishINtNtCs66KPHxksi63_4core7convert7TryFromRINtNtCsjhPV6BdWoWa_4pyo38instance5BoundNtNtNtB1x_5types3any5PyAnyEE8try_from
FN:84,_RNvXs2_NtCs8WYW6vAPwZd_9ryo3_jiff7spanishNtNtNtCs3tnJ9lKo9L6_4jiff5civil4date14DateArithmeticINtNtCs66KPHxksi63_4core7convert4FromNtB5_7SpanishE4from
FN:49,_RNCNvXs_NtCs8WYW6vAPwZd_9ryo3_jiff7spanishNtNtCs3tnJ9lKo9L6_4jiff4span4SpanINtNtCs66KPHxksi63_4core7convert7TryFromNtB6_7SpanishE8try_from0B8_
FN:56,_RNCNvXs_NtCs8WYW6vAPwZd_9ryo3_jiff7spanishNtNtCs3tnJ9lKo9L6_4jiff4span4SpanINtNtCs66KPHxksi63_4core7convert7TryFromNtB6_7SpanishE8try_froms0_0B8_
FN:53,_RNCNvXs_NtCs8WYW6vAPwZd_9ryo3_jiff7spanishNtNtCs3tnJ9lKo9L6_4jiff4span4SpanINtNtCs66KPHxksi63_4core7convert7TryFromNtB6_7SpanishE8try_froms_0B8_
FN:62,_RNvXs0_NtCs8WYW6vAPwZd_9ryo3_jiff7spanishNtNtCs3tnJ9lKo9L6_4jiff9timestamp19TimestampArithmeticINtNtCs66KPHxksi63_4core7convert4FromNtB5_7SpanishE4from
FN:73,_RNvXs1_NtCs8WYW6vAPwZd_9ryo3_jiff7spanishNtNtCs3tnJ9lKo9L6_4jiff5zoned15ZonedArithmeticINtNtCs66KPHxksi63_4core7convert4FromNtB5_7SpanishE4from
FNDA:0,_RNvXs_NtCs8WYW6vAPwZd_9ryo3_jiff7spanishNtNtCs3tnJ9lKo9L6_4jiff4span4SpanINtNtCs66KPHxksi63_4core7convert7TryFromNtB4_7SpanishE8try_from
FNDA:208,_RNvXs4_NtCs8WYW6vAPwZd_9ryo3_jiff7spanishNtNtNtCs3tnJ9lKo9L6_4jiff5civil4time14TimeArithmeticINtNtCs66KPHxksi63_4core7convert4FromNtB5_7SpanishE4from
FNDA:12,_RNvXs5_NtCs8WYW6vAPwZd_9ryo3_jiff7spanishNtNtNtCs3tnJ9lKo9L6_4jiff2tz6offset16OffsetArithmeticINtNtCs66KPHxksi63_4core7convert4FromNtB5_7SpanishE4from
FNDA:604,_RNvXs3_NtCs8WYW6vAPwZd_9ryo3_jiff7spanishNtNtNtCs3tnJ9lKo9L6_4jiff5civil8datetime18DateTimeArithmeticINtNtCs66KPHxksi63_4core7convert4FromNtB5_7SpanishE4from
FNDA:1088,_RNvXNtCs8WYW6vAPwZd_9ryo3_jiff7spanishNtB2_7SpanishINtNtCs66KPHxksi63_4core7convert7TryFromRINtNtCsjhPV6BdWoWa_4pyo38instance5BoundNtNtNtB1x_5types3any5PyAnyEE8try_from
FNDA:4,_RNvXs2_NtCs8WYW6vAPwZd_9ryo3_jiff7spanishNtNtNtCs3tnJ9lKo9L6_4jiff5civil4date14DateArithmeticINtNtCs66KPHxksi63_4core7convert4FromNtB5_7SpanishE4from
FNDA:0,_RNCNvXs_NtCs8WYW6vAPwZd_9ryo3_jiff7spanishNtNtCs3tnJ9lKo9L6_4jiff4span4SpanINtNtCs66KPHxksi63_4core7convert7TryFromNtB6_7SpanishE8try_from0B8_
FNDA:0,_RNCNvXs_NtCs8WYW6vAPwZd_9ryo3_jiff7spanishNtNtCs3tnJ9lKo9L6_4jiff4span4SpanINtNtCs66KPHxksi63_4core7convert7TryFromNtB6_7SpanishE8try_froms0_0B8_
FNDA:0,_RNCNvXs_NtCs8WYW6vAPwZd_9ryo3_jiff7spanishNtNtCs3tnJ9lKo9L6_4jiff4span4SpanINtNtCs66KPHxksi63_4core7convert7TryFromNtB6_7SpanishE8try_froms_0B8_
FNDA:5,_RNvXs0_NtCs8WYW6vAPwZd_9ryo3_jiff7spanishNtNtCs3tnJ9lKo9L6_4jiff9timestamp19TimestampArithmeticINtNtCs66KPHxksi63_4core7convert4FromNtB5_7SpanishE4from
FNDA:255,_RNvXs1_NtCs8WYW6vAPwZd_9ryo3_jiff7spanishNtNtCs3tnJ9lKo9L6_4jiff5zoned15ZonedArithmeticINtNtCs66KPHxksi63_4core7convert4FromNtB5_7SpanishE4from
FNF:11
FNH:7
DA:24,1088
DA:25,1088
DA:26,334
DA:27,754
DA:28,4
DA:29,750
DA:30,750
DA:31,0
DA:32,0
DA:33,0
DA:35,0
DA:36,0
DA:37,0
DA:39,1088
DA:40,1088
DA:45,0
DA:46,0
DA:47,0
DA:48,0
DA:49,0
DA:50,0
DA:51,0
DA:52,0
DA:53,0
DA:55,0
DA:56,0
DA:58,0
DA:62,5
DA:63,5
DA:64,5
DA:65,0
DA:66,0
DA:67,0
DA:69,5
DA:73,255
DA:74,255
DA:75,9
DA:76,0
DA:77,246
DA:78,0
DA:80,255
DA:84,4
DA:85,4
DA:86,4
DA:87,0
DA:88,0
DA:89,0
DA:91,4
DA:95,604
DA:96,604
DA:97,104
DA:98,0
DA:99,500
DA:100,0
DA:102,604
DA:106,208
DA:107,208
DA:108,208
DA:109,0
DA:110,0
DA:111,0
DA:113,208
DA:117,12
DA:118,12
DA:119,4
DA:120,4
DA:121,4
DA:122,0
DA:124,12
BRF:0
BRH:0
LF:72
LH:37
end_of_record
SF:/home/jesse/ry/crates/ryo3-jiter/src/lib.rs
FN:71,_RNvCsbu7mqb6nRUa_10ryo3_jiter10parse_json
FN:214,_RNvCsbu7mqb6nRUa_10ryo3_jiter11cache_clear
FN:227,_RNvCsbu7mqb6nRUa_10ryo3_jiter11cache_usage
FN:115,_RNvCsbu7mqb6nRUa_10ryo3_jiter11parse_jsonl
FN:214,_RNvCsbu7mqb6nRUa_10ryo3_jiter16json_cache_clear
FN:227,_RNvCsbu7mqb6nRUa_10ryo3_jiter16json_cache_usage
FN:154,_RNvCsbu7mqb6nRUa_10ryo3_jiter5loads
FN:154,_RNvCsbu7mqb6nRUa_10ryo3_jiter5parse
FN:235,_RNvCsbu7mqb6nRUa_10ryo3_jiter9pymod_add
FN:188,_RNvCsbu7mqb6nRUa_10ryo3_jiter9read_json
FN:50,_RNvMs_Csbu7mqb6nRUa_10ryo3_jiterNtB4_17JiterParseOptions11parse_lines
FN:44,_RNvMs_Csbu7mqb6nRUa_10ryo3_jiterNtB4_17JiterParseOptions5parse
FN:34,_RNvMs_Csbu7mqb6nRUa_10ryo3_jiterNtB4_17JiterParseOptions6parser
FN:23,_RNvXCsbu7mqb6nRUa_10ryo3_jiterNtB2_17JiterParseOptionsNtNtCs66KPHxksi63_4core7default7Default7default
FN:51,_RNCNvMs_Csbu7mqb6nRUa_10ryo3_jiterNtB6_17JiterParseOptions11parse_lines0B6_
FN:53,_RNCNvMs_Csbu7mqb6nRUa_10ryo3_jiterNtB6_17JiterParseOptions11parse_liness0_0B6_
FN:51,_RNCNvMs_Csbu7mqb6nRUa_10ryo3_jiterNtB6_17JiterParseOptions11parse_liness_0B6_
FN:47,_RNCNvMs_Csbu7mqb6nRUa_10ryo3_jiterNtB6_17JiterParseOptions5parse0B6_
FNDA:562,_RNvCsbu7mqb6nRUa_10ryo3_jiter10parse_json
FNDA:0,_RNvCsbu7mqb6nRUa_10ryo3_jiter11cache_clear
FNDA:0,_RNvCsbu7mqb6nRUa_10ryo3_jiter11cache_usage
FNDA:1,_RNvCsbu7mqb6nRUa_10ryo3_jiter11parse_jsonl
FNDA:0,_RNvCsbu7mqb6nRUa_10ryo3_jiter16json_cache_clear
FNDA:0,_RNvCsbu7mqb6nRUa_10ryo3_jiter16json_cache_usage
FNDA:0,_RNvCsbu7mqb6nRUa_10ryo3_jiter5loads
FNDA:0,_RNvCsbu7mqb6nRUa_10ryo3_jiter5parse
FNDA:8,_RNvCsbu7mqb6nRUa_10ryo3_jiter9pymod_add
FNDA:1,_RNvCsbu7mqb6nRUa_10ryo3_jiter9read_json
FNDA:2,_RNvMs_Csbu7mqb6nRUa_10ryo3_jiterNtB4_17JiterParseOptions11parse_lines
FNDA:575,_RNvMs_Csbu7mqb6nRUa_10ryo3_jiterNtB4_17JiterParseOptions5parse
FNDA:575,_RNvMs_Csbu7mqb6nRUa_10ryo3_jiterNtB4_17JiterParseOptions6parser
FNDA:0,_RNvXCsbu7mqb6nRUa_10ryo3_jiterNtB2_17JiterParseOptionsNtNtCs66KPHxksi63_4core7default7Default7default
FNDA:830,_RNCNvMs_Csbu7mqb6nRUa_10ryo3_jiterNtB6_17JiterParseOptions11parse_lines0B6_
FNDA:20,_RNCNvMs_Csbu7mqb6nRUa_10ryo3_jiterNtB6_17JiterParseOptions11parse_liness0_0B6_
FNDA:20,_RNCNvMs_Csbu7mqb6nRUa_10ryo3_jiterNtB6_17JiterParseOptions11parse_liness_0B6_
FNDA:0,_RNCNvMs_Csbu7mqb6nRUa_10ryo3_jiterNtB6_17JiterParseOptions5parse0B6_
FNF:15
FNH:10
DA:23,0
DA:24,0
DA:25,0
DA:26,0
DA:27,0
DA:28,0
DA:29,0
DA:30,0
DA:34,575
DA:35,575
DA:36,575
DA:37,575
DA:38,575
DA:39,575
DA:40,575
DA:41,575
DA:42,575
DA:44,575
DA:45,575
DA:46,575
DA:47,575
DA:48,575
DA:50,2
DA:51,830
DA:52,2
DA:53,20
DA:54,2
DA:55,2
DA:56,2
DA:57,2
DA:71,562
DA:72,562
DA:73,562
DA:74,562
DA:75,562
DA:76,562
DA:77,562
DA:78,562
DA:79,562
DA:80,562
DA:81,562
DA:82,562
DA:83,562
DA:84,562
DA:85,562
DA:86,103
DA:87,459
DA:88,123
DA:89,123
DA:90,336
DA:91,328
DA:92,328
DA:93,328
DA:94,8
DA:95,1
DA:96,1
DA:98,7
DA:99,7
DA:100,7
DA:102,562
DA:115,1
DA:116,1
DA:117,1
DA:118,1
DA:119,1
DA:120,1
DA:121,1
DA:122,1
DA:123,1
DA:124,1
DA:125,1
DA:126,1
DA:127,1
DA:128,1
DA:129,1
DA:130,0
DA:131,1
DA:132,0
DA:133,0
DA:134,0
DA:135,1
DA:136,0
DA:137,0
DA:138,1
DA:139,1
DA:140,1
DA:142,0
DA:143,0
DA:144,0
DA:146,1
DA:154,0
DA:155,0
DA:156,0
DA:157,0
DA:158,0
DA:159,0
DA:160,0
DA:161,0
DA:162,0
DA:163,0
DA:164,0
DA:165,0
DA:166,0
DA:167,0
DA:168,0
DA:170,0
DA:188,1
DA:189,1
DA:190,1
DA:191,1
DA:192,1
DA:193,1
DA:194,1
DA:195,1
DA:196,1
DA:197,1
DA:198,1
DA:199,1
DA:200,1
DA:201,1
DA:202,1
DA:203,1
DA:204,1
DA:205,1
DA:207,0
DA:209,1
DA:214,0
DA:215,0
DA:216,0
DA:227,0
DA:228,0
DA:229,0
DA:235,8
DA:236,8
DA:237,8
DA:238,8
DA:239,8
DA:240,8
DA:241,8
DA:242,8
BRF:0
BRH:0
LF:144
LH:103
end_of_record
SF:/home/jesse/ry/crates/ryo3-json/src/lib.rs
FN:24,_RNvCseRQUDV3LdmP_9ryo3_json14json_py_module
FN:12,_RNvCseRQUDV3LdmP_9ryo3_json18py_submod_register
FN:29,_RNvCseRQUDV3LdmP_9ryo3_json9pymod_add
FNDA:8,_RNvCseRQUDV3LdmP_9ryo3_json14json_py_module
FNDA:8,_RNvCseRQUDV3LdmP_9ryo3_json18py_submod_register
FNDA:8,_RNvCseRQUDV3LdmP_9ryo3_json9pymod_add
FNF:3
FNH:3
DA:12,8
DA:13,8
DA:14,8
DA:15,8
DA:16,8
DA:17,8
DA:18,8
DA:19,8
DA:20,8
DA:21,8
DA:22,8
DA:24,8
DA:25,8
DA:26,8
DA:27,8
DA:29,8
DA:31,8
DA:32,8
DA:34,8
DA:36,8
DA:37,8
BRF:0
BRH:0
LF:21
LH:21
end_of_record
SF:/home/jesse/ry/crates/ryo3-json/src/orjson/mod.rs
FN:50,_RNCNvNtCseRQUDV3LdmP_9ryo3_json6orjson14orjson_default0B5_
FN:51,_RNCNvNtCseRQUDV3LdmP_9ryo3_json6orjson14orjson_defaults_0B5_
FN:19,_RNCNvNtCseRQUDV3LdmP_9ryo3_json6orjson5dumps0B5_
FN:33,_RNCNvNtCseRQUDV3LdmP_9ryo3_json6orjson8fragment0B5_
FN:44,_RNvNtCseRQUDV3LdmP_9ryo3_json6orjson14orjson_default
FN:55,_RNvNtCseRQUDV3LdmP_9ryo3_json6orjson2oj
FN:14,_RNvNtCseRQUDV3LdmP_9ryo3_json6orjson5dumps
FN:32,_RNvNtCseRQUDV3LdmP_9ryo3_json6orjson8fragment
FNDA:0,_RNCNvNtCseRQUDV3LdmP_9ryo3_json6orjson14orjson_default0B5_
FNDA:13,_RNCNvNtCseRQUDV3LdmP_9ryo3_json6orjson14orjson_defaults_0B5_
FNDA:0,_RNCNvNtCseRQUDV3LdmP_9ryo3_json6orjson5dumps0B5_
FNDA:0,_RNCNvNtCseRQUDV3LdmP_9ryo3_json6orjson8fragment0B5_
FNDA:13,_RNvNtCseRQUDV3LdmP_9ryo3_json6orjson14orjson_default
FNDA:0,_RNvNtCseRQUDV3LdmP_9ryo3_json6orjson2oj
FNDA:0,_RNvNtCseRQUDV3LdmP_9ryo3_json6orjson5dumps
FNDA:13,_RNvNtCseRQUDV3LdmP_9ryo3_json6orjson8fragment
FNF:8
FNH:3
DA:14,0
DA:15,0
DA:16,0
DA:17,0
DA:18,0
DA:19,0
DA:20,0
DA:21,0
DA:23,0
DA:24,0
DA:25,0
DA:26,0
DA:28,0
DA:30,0
DA:32,13
DA:33,13
DA:34,0
DA:35,0
DA:37,0
DA:38,0
DA:39,13
DA:40,13
DA:44,13
DA:45,13
DA:46,13
DA:47,13
DA:49,13
DA:50,13
DA:51,13
DA:52,13
DA:55,0
DA:56,0
DA:57,0
DA:58,0
BRF:0
BRH:0
LF:40
LH:13
end_of_record
SF:/home/jesse/ry/crates/ryo3-json/src/serialize.rs
FN:37,_RNvMNtCseRQUDV3LdmP_9ryo3_json9serializeNtB2_14JsonSerializer13check_default
FN:86,_RNvMNtCseRQUDV3LdmP_9ryo3_json9serializeNtB2_14JsonSerializer16serialize_unsafe
FN:28,_RNvMNtCseRQUDV3LdmP_9ryo3_json9serializeNtB2_14JsonSerializer3new
FN:53,_RNvMNtCseRQUDV3LdmP_9ryo3_json9serializeNtB2_14JsonSerializer9serialize
FN:134,_RNvNtCseRQUDV3LdmP_9ryo3_json9serialize16stringify_unsafe
FN:103,_RNvNtCseRQUDV3LdmP_9ryo3_json9serialize5dumps
FN:103,_RNvNtCseRQUDV3LdmP_9ryo3_json9serialize9stringify
FN:6,_RINvNtCseRQUDV3LdmP_9ryo3_json9serialize18map_serde_json_errNtNtCs1nD62ErW5hY_10serde_json5error5ErrorEB4_
FN:44,_RNCNvMNtCseRQUDV3LdmP_9ryo3_json9serializeNtB4_14JsonSerializer13check_default0B6_
FN:101,_RNCNvNtCseRQUDV3LdmP_9ryo3_json9serialize18___pyfunction_dumps0B5_
FN:101,_RNCNvNtCseRQUDV3LdmP_9ryo3_json9serialize22___pyfunction_stringify0B5_
FN:131,_RNCNvNtCseRQUDV3LdmP_9ryo3_json9serialize29___pyfunction_stringify_unsafe0B5_
FNDA:762,_RNvMNtCseRQUDV3LdmP_9ryo3_json9serializeNtB2_14JsonSerializer13check_default
FNDA:0,_RNvMNtCseRQUDV3LdmP_9ryo3_json9serializeNtB2_14JsonSerializer16serialize_unsafe
FNDA:762,_RNvMNtCseRQUDV3LdmP_9ryo3_json9serializeNtB2_14JsonSerializer3new
FNDA:761,_RNvMNtCseRQUDV3LdmP_9ryo3_json9serializeNtB2_14JsonSerializer9serialize
FNDA:0,_RNvNtCseRQUDV3LdmP_9ryo3_json9serialize16stringify_unsafe
FNDA:0,_RNvNtCseRQUDV3LdmP_9ryo3_json9serialize5dumps
FNDA:762,_RNvNtCseRQUDV3LdmP_9ryo3_json9serialize9stringify
FNDA:3,_RINvNtCseRQUDV3LdmP_9ryo3_json9serialize18map_serde_json_errNtNtCs1nD62ErW5hY_10serde_json5error5ErrorEB4_
FNDA:1,_RNCNvMNtCseRQUDV3LdmP_9ryo3_json9serializeNtB4_14JsonSerializer13check_default0B6_
FNDA:0,_RNCNvNtCseRQUDV3LdmP_9ryo3_json9serialize18___pyfunction_dumps0B5_
FNDA:747,_RNCNvNtCseRQUDV3LdmP_9ryo3_json9serialize22___pyfunction_stringify0B5_
FNDA:0,_RNCNvNtCseRQUDV3LdmP_9ryo3_json9serialize29___pyfunction_stringify_unsafe0B5_
FNF:10
FNH:7
DA:6,3
DA:7,3
DA:8,1
DA:10,2
DA:12,3
DA:28,762
DA:29,762
DA:30,762
DA:31,762
DA:32,762
DA:33,762
DA:34,761
DA:35,762
DA:37,762
DA:38,762
DA:39,2
DA:41,1
DA:42,1
DA:43,1
DA:44,1
DA:45,1
DA:46,1
DA:47,1
DA:48,1
DA:49,761
DA:50,761
DA:51,762
DA:53,761
DA:54,761
DA:55,761
DA:56,761
DA:60,0
DA:61,0
DA:62,0
DA:64,0
DA:68,761
DA:69,22
DA:71,739
DA:75,758
DA:76,0
DA:77,758
DA:78,758
DA:79,314
DA:81,444
DA:83,761
DA:86,0
DA:87,0
DA:88,0
DA:89,0
DA:90,0
DA:91,0
DA:92,0
DA:93,0
DA:94,0
DA:101,747
DA:103,762
DA:104,762
DA:105,762
DA:106,762
DA:107,762
DA:108,762
DA:109,762
DA:110,762
DA:111,762
DA:113,762
DA:114,762
DA:115,762
DA:116,762
DA:117,762
DA:118,762
DA:119,762
DA:120,762
DA:121,1
DA:122,761
DA:123,762
DA:131,0
DA:134,0
DA:135,0
DA:136,0
DA:137,0
DA:138,0
DA:139,0
DA:140,0
DA:141,0
DA:142,0
DA:143,0
DA:144,0
DA:145,0
DA:146,0
DA:147,0
DA:148,0
DA:149,0
DA:150,0
DA:151,0
DA:152,0
DA:153,0
BRF:0
BRH:0
LF:97
LH:62
end_of_record
SF:/home/jesse/ry/crates/ryo3-json/src/transcode.rs
FN:58,_RNvNtCseRQUDV3LdmP_9ryo3_json9transcode3fmt
FN:14,_RNvNtCseRQUDV3LdmP_9ryo3_json9transcode6minify
FN:8,_RINvNtCseRQUDV3LdmP_9ryo3_json9transcode11minify_jsonRShQINtNtCs8Ty2CzGA6U3_5alloc3vec3VechEEB4_
FN:52,_RINvNtCseRQUDV3LdmP_9ryo3_json9transcode12indent2_jsonRShQINtNtCs8Ty2CzGA6U3_5alloc3vec3VechEEB4_
FN:65,_RNCNvNtCseRQUDV3LdmP_9ryo3_json9transcode3fmt0B5_
FN:80,_RNCNvNtCseRQUDV3LdmP_9ryo3_json9transcode3fmts0_0B5_
FN:87,_RNCNvNtCseRQUDV3LdmP_9ryo3_json9transcode3fmts1_0B5_
FN:72,_RNCNvNtCseRQUDV3LdmP_9ryo3_json9transcode3fmts_0B5_
FN:21,_RNCNvNtCseRQUDV3LdmP_9ryo3_json9transcode6minify0B5_
FN:36,_RNCNvNtCseRQUDV3LdmP_9ryo3_json9transcode6minifys0_0B5_
FN:43,_RNCNvNtCseRQUDV3LdmP_9ryo3_json9transcode6minifys1_0B5_
FN:28,_RNCNvNtCseRQUDV3LdmP_9ryo3_json9transcode6minifys_0B5_
FNDA:0,_RNvNtCseRQUDV3LdmP_9ryo3_json9transcode3fmt
FNDA:14,_RNvNtCseRQUDV3LdmP_9ryo3_json9transcode6minify
FNDA:14,_RINvNtCseRQUDV3LdmP_9ryo3_json9transcode11minify_jsonRShQINtNtCs8Ty2CzGA6U3_5alloc3vec3VechEEB4_
FNDA:0,_RINvNtCseRQUDV3LdmP_9ryo3_json9transcode12indent2_jsonRShQINtNtCs8Ty2CzGA6U3_5alloc3vec3VechEEB4_
FNDA:0,_RNCNvNtCseRQUDV3LdmP_9ryo3_json9transcode3fmt0B5_
FNDA:0,_RNCNvNtCseRQUDV3LdmP_9ryo3_json9transcode3fmts0_0B5_
FNDA:0,_RNCNvNtCseRQUDV3LdmP_9ryo3_json9transcode3fmts1_0B5_
FNDA:0,_RNCNvNtCseRQUDV3LdmP_9ryo3_json9transcode3fmts_0B5_
FNDA:0,_RNCNvNtCseRQUDV3LdmP_9ryo3_json9transcode6minify0B5_
FNDA:0,_RNCNvNtCseRQUDV3LdmP_9ryo3_json9transcode6minifys0_0B5_
FNDA:0,_RNCNvNtCseRQUDV3LdmP_9ryo3_json9transcode6minifys1_0B5_
FNDA:0,_RNCNvNtCseRQUDV3LdmP_9ryo3_json9transcode6minifys_0B5_
FNF:12
FNH:2
DA:8,14
DA:9,14
DA:10,14
DA:11,14
DA:12,14
DA:14,14
DA:15,14
DA:17,0
DA:18,0
DA:19,0
DA:20,0
DA:21,0
DA:22,0
DA:23,14
DA:25,0
DA:26,0
DA:27,0
DA:28,0
DA:29,0
DA:30,14
DA:32,14
DA:33,14
DA:34,14
DA:35,14
DA:36,14
DA:37,14
DA:38,0
DA:40,0
DA:41,0
DA:42,0
DA:43,0
DA:44,0
DA:46,0
DA:47,0
DA:48,0
DA:50,14
DA:52,0
DA:53,0
DA:54,0
DA:55,0
DA:56,0
DA:58,0
DA:59,0
DA:61,0
DA:62,0
DA:63,0
DA:64,0
DA:65,0
DA:66,0
DA:67,0
DA:69,0
DA:70,0
DA:71,0
DA:72,0
DA:73,0
DA:74,0
DA:76,0
DA:77,0
DA:78,0
DA:79,0
DA:80,0
DA:81,0
DA:82,0
DA:84,0
DA:85,0
DA:86,0
DA:87,0
DA:88,0
DA:90,0
DA:91,0
DA:92,0
DA:94,0
BRF:0
BRH:0
LF:80
LH:16
end_of_record
SF:/home/jesse/ry/crates/ryo3-memchr/src/byte.rs
FN:21,_RNvMs_NtCsd6BpD8jtKn0_11ryo3_memchr4byteNtB4_4Byte3new
FN:14,_RNvXNtCsd6BpD8jtKn0_11ryo3_memchr4byteNtB2_4ByteNtNtNtCs66KPHxksi63_4core3ops5deref5Deref5deref
FN:27,_RNvXs0_NtCsd6BpD8jtKn0_11ryo3_memchr4byteNtB5_4ByteINtNtCs66KPHxksi63_4core7convert4FromhE4from
FN:33,_RNvXs1_NtCsd6BpD8jtKn0_11ryo3_memchr4byteNtB5_4ByteNtNtCsjhPV6BdWoWa_4pyo310conversion12FromPyObject13extract_bound
FNDA:0,_RNvMs_NtCsd6BpD8jtKn0_11ryo3_memchr4byteNtB4_4Byte3new
FNDA:34,_RNvXNtCsd6BpD8jtKn0_11ryo3_memchr4byteNtB2_4ByteNtNtNtCs66KPHxksi63_4core3ops5deref5Deref5deref
FNDA:0,_RNvXs0_NtCsd6BpD8jtKn0_11ryo3_memchr4byteNtB5_4ByteINtNtCs66KPHxksi63_4core7convert4FromhE4from
FNDA:34,_RNvXs1_NtCsd6BpD8jtKn0_11ryo3_memchr4byteNtB5_4ByteNtNtCsjhPV6BdWoWa_4pyo310conversion12FromPyObject13extract_bound
FNF:4
FNH:2
DA:14,34
DA:15,34
DA:16,34
DA:21,0
DA:22,0
DA:23,0
DA:27,0
DA:28,0
DA:29,0
DA:33,34
DA:34,34
DA:35,17
DA:36,17
DA:38,0
DA:40,17
DA:41,17
DA:42,17
DA:43,17
DA:44,17
DA:46,0
DA:47,0
DA:48,0
DA:51,0
DA:52,0
DA:53,0
DA:55,34
BRF:0
BRH:0
LF:26
LH:13
end_of_record
SF:/home/jesse/ry/crates/ryo3-memchr/src/lib.rs
FN:9,_RNvCsd6BpD8jtKn0_11ryo3_memchr9pymod_add
FNDA:8,_RNvCsd6BpD8jtKn0_11ryo3_memchr9pymod_add
FNF:1
FNH:1
DA:9,8
DA:11,8
DA:12,8
DA:13,8
DA:14,8
DA:15,8
DA:16,8
DA:18,8
DA:19,8
BRF:0
BRH:0
LF:9
LH:9
end_of_record
SF:/home/jesse/ry/crates/ryo3-memchr/src/py_memchr.rs
FN:9,_RNvNtCsd6BpD8jtKn0_11ryo3_memchr9py_memchr6memchr
FN:16,_RNvNtCsd6BpD8jtKn0_11ryo3_memchr9py_memchr7memchr2
FN:23,_RNvNtCsd6BpD8jtKn0_11ryo3_memchr9py_memchr7memchr3
FN:30,_RNvNtCsd6BpD8jtKn0_11ryo3_memchr9py_memchr7memrchr
FN:37,_RNvNtCsd6BpD8jtKn0_11ryo3_memchr9py_memchr8memrchr2
FN:44,_RNvNtCsd6BpD8jtKn0_11ryo3_memchr9py_memchr8memrchr3
FNDA:18,_RNvNtCsd6BpD8jtKn0_11ryo3_memchr9py_memchr6memchr
FNDA:0,_RNvNtCsd6BpD8jtKn0_11ryo3_memchr9py_memchr7memchr2
FNDA:0,_RNvNtCsd6BpD8jtKn0_11ryo3_memchr9py_memchr7memchr3
FNDA:16,_RNvNtCsd6BpD8jtKn0_11ryo3_memchr9py_memchr7memrchr
FNDA:0,_RNvNtCsd6BpD8jtKn0_11ryo3_memchr9py_memchr8memrchr2
FNDA:0,_RNvNtCsd6BpD8jtKn0_11ryo3_memchr9py_memchr8memrchr3
FNF:6
FNH:2
DA:9,18
DA:10,18
DA:11,18
DA:16,0
DA:17,0
DA:18,0
DA:23,0
DA:24,0
DA:25,0
DA:30,16
DA:31,16
DA:32,16
DA:37,0
DA:38,0
DA:39,0
DA:44,0
DA:45,0
DA:46,0
BRF:0
BRH:0
LF:18
LH:6
end_of_record
SF:/home/jesse/ry/crates/ryo3-regex/src/lib.rs
FN:11,_RNvCs3o10VZT1cuq_10ryo3_regex9pymod_add
FNDA:8,_RNvCs3o10VZT1cuq_10ryo3_regex9pymod_add
FNF:1
FNH:1
DA:11,8
DA:12,8
DA:13,8
DA:14,8
BRF:0
BRH:0
LF:4
LH:4
end_of_record
SF:/home/jesse/ry/crates/ryo3-regex/src/py_regex.rs
FN:170,_RNvMsd_NtCs3o10VZT1cuq_10ryo3_regex8py_regexNtB5_7PyRegex11replace_all
FN:151,_RNvMsd_NtCs3o10VZT1cuq_10ryo3_regex8py_regexNtB5_7PyRegex4find
FN:174,_RNvMsd_NtCs3o10VZT1cuq_10ryo3_regex8py_regexNtB5_7PyRegex5split
FN:143,_RNvMsd_NtCs3o10VZT1cuq_10ryo3_regex8py_regexNtB5_7PyRegex6___eq__
FN:101,_RNvMsd_NtCs3o10VZT1cuq_10ryo3_regex8py_regexNtB5_7PyRegex6py_new
FN:181,_RNvMsd_NtCs3o10VZT1cuq_10ryo3_regex8py_regexNtB5_7PyRegex6splitn
FN:162,_RNvMsd_NtCs3o10VZT1cuq_10ryo3_regex8py_regexNtB5_7PyRegex7findall
FN:166,_RNvMsd_NtCs3o10VZT1cuq_10ryo3_regex8py_regexNtB5_7PyRegex7replace
FN:139,_RNvMsd_NtCs3o10VZT1cuq_10ryo3_regex8py_regexNtB5_7PyRegex8___repr__
FN:155,_RNvMsd_NtCs3o10VZT1cuq_10ryo3_regex8py_regexNtB5_7PyRegex8find_all
FN:147,_RNvMsd_NtCs3o10VZT1cuq_10ryo3_regex8py_regexNtB5_7PyRegex8is_match
FN:82,_RNvMsh_NtCs3o10VZT1cuq_10ryo3_regex8py_regexNtB5_7PyRegex21___pymethod___repr____
FN:68,_RNvNtCs3o10VZT1cuq_10ryo3_regex8py_regex22get_line_terminator_u8
FN:16,_RNvXNtCs3o10VZT1cuq_10ryo3_regex8py_regexNtB2_7PyRegexINtNtCs66KPHxksi63_4core7convert7TryFromReE8try_from
FN:40,_RNvXs0_NtCs3o10VZT1cuq_10ryo3_regex8py_regexNtB5_7PyRegexINtNtCs66KPHxksi63_4core7convert7TryFromNtNtNtCsajmPFkSi7Wt_5regex8builders6string12RegexBuilderE8try_from
FN:190,_RNvXs1_NtCs3o10VZT1cuq_10ryo3_regex8py_regexNtB5_7PyRegexINtNtCs66KPHxksi63_4core6borrow6BorrowNtNtNtCsajmPFkSi7Wt_5regex5regex6string5RegexE6borrow
FN:29,_RNvXs_NtCs3o10VZT1cuq_10ryo3_regex8py_regexNtB4_7PyRegexINtNtCs66KPHxksi63_4core7convert4FromNtNtNtCsajmPFkSi7Wt_5regex5regex6string5RegexE4from
FN:152,_RNCNvMsd_NtCs3o10VZT1cuq_10ryo3_regex8py_regexNtB7_7PyRegex4find0B9_
FN:134,_RNCNvMsd_NtCs3o10VZT1cuq_10ryo3_regex8py_regexNtB7_7PyRegex6py_new0B9_
FN:158,_RNCNvMsd_NtCs3o10VZT1cuq_10ryo3_regex8py_regexNtB7_7PyRegex8find_all0B9_
FN:19,_RNCNvXNtCs3o10VZT1cuq_10ryo3_regex8py_regexNtB4_7PyRegexINtNtCs66KPHxksi63_4core7convert7TryFromReE8try_from0B6_
FN:22,_RNCNvXNtCs3o10VZT1cuq_10ryo3_regex8py_regexNtB4_7PyRegexINtNtCs66KPHxksi63_4core7convert7TryFromReE8try_froms_0B6_
FN:43,_RNCNvXs0_NtCs3o10VZT1cuq_10ryo3_regex8py_regexNtB7_7PyRegexINtNtCs66KPHxksi63_4core7convert7TryFromNtNtNtCsajmPFkSi7Wt_5regex8builders6string12RegexBuilderE8try_from0B9_
FN:46,_RNCNvXs0_NtCs3o10VZT1cuq_10ryo3_regex8py_regexNtB7_7PyRegexINtNtCs66KPHxksi63_4core7convert7TryFromNtNtNtCsajmPFkSi7Wt_5regex8builders6string12RegexBuilderE8try_froms_0B9_
FNDA:2,_RNvMsd_NtCs3o10VZT1cuq_10ryo3_regex8py_regexNtB5_7PyRegex11replace_all
FNDA:0,_RNvMsd_NtCs3o10VZT1cuq_10ryo3_regex8py_regexNtB5_7PyRegex4find
FNDA:0,_RNvMsd_NtCs3o10VZT1cuq_10ryo3_regex8py_regexNtB5_7PyRegex5split
FNDA:0,_RNvMsd_NtCs3o10VZT1cuq_10ryo3_regex8py_regexNtB5_7PyRegex6___eq__
FNDA:8,_RNvMsd_NtCs3o10VZT1cuq_10ryo3_regex8py_regexNtB5_7PyRegex6py_new
FNDA:0,_RNvMsd_NtCs3o10VZT1cuq_10ryo3_regex8py_regexNtB5_7PyRegex6splitn
FNDA:0,_RNvMsd_NtCs3o10VZT1cuq_10ryo3_regex8py_regexNtB5_7PyRegex7findall
FNDA:0,_RNvMsd_NtCs3o10VZT1cuq_10ryo3_regex8py_regexNtB5_7PyRegex7replace
FNDA:0,_RNvMsd_NtCs3o10VZT1cuq_10ryo3_regex8py_regexNtB5_7PyRegex8___repr__
FNDA:1,_RNvMsd_NtCs3o10VZT1cuq_10ryo3_regex8py_regexNtB5_7PyRegex8find_all
FNDA:2,_RNvMsd_NtCs3o10VZT1cuq_10ryo3_regex8py_regexNtB5_7PyRegex8is_match
FNDA:0,_RNvMsh_NtCs3o10VZT1cuq_10ryo3_regex8py_regexNtB5_7PyRegex21___pymethod___repr____
FNDA:8,_RNvNtCs3o10VZT1cuq_10ryo3_regex8py_regex22get_line_terminator_u8
FNDA:1,_RNvXNtCs3o10VZT1cuq_10ryo3_regex8py_regexNtB2_7PyRegexINtNtCs66KPHxksi63_4core7convert7TryFromReE8try_from
FNDA:0,_RNvXs0_NtCs3o10VZT1cuq_10ryo3_regex8py_regexNtB5_7PyRegexINtNtCs66KPHxksi63_4core7convert7TryFromNtNtNtCsajmPFkSi7Wt_5regex8builders6string12RegexBuilderE8try_from
FNDA:85740,_RNvXs1_NtCs3o10VZT1cuq_10ryo3_regex8py_regexNtB5_7PyRegexINtNtCs66KPHxksi63_4core6borrow6BorrowNtNtNtCsajmPFkSi7Wt_5regex5regex6string5RegexE6borrow
FNDA:8,_RNvXs_NtCs3o10VZT1cuq_10ryo3_regex8py_regexNtB4_7PyRegexINtNtCs66KPHxksi63_4core7convert4FromNtNtNtCsajmPFkSi7Wt_5regex5regex6string5RegexE4from
FNDA:0,_RNCNvMsd_NtCs3o10VZT1cuq_10ryo3_regex8py_regexNtB7_7PyRegex4find0B9_
FNDA:0,_RNCNvMsd_NtCs3o10VZT1cuq_10ryo3_regex8py_regexNtB7_7PyRegex6py_new0B9_
FNDA:4,_RNCNvMsd_NtCs3o10VZT1cuq_10ryo3_regex8py_regexNtB7_7PyRegex8find_all0B9_
FNDA:1,_RNCNvXNtCs3o10VZT1cuq_10ryo3_regex8py_regexNtB4_7PyRegexINtNtCs66KPHxksi63_4core7convert7TryFromReE8try_from0B6_
FNDA:0,_RNCNvXNtCs3o10VZT1cuq_10ryo3_regex8py_regexNtB4_7PyRegexINtNtCs66KPHxksi63_4core7convert7TryFromReE8try_froms_0B6_
FNDA:0,_RNCNvXs0_NtCs3o10VZT1cuq_10ryo3_regex8py_regexNtB7_7PyRegexINtNtCs66KPHxksi63_4core7convert7TryFromNtNtNtCsajmPFkSi7Wt_5regex8builders6string12RegexBuilderE8try_from0B9_
FNDA:0,_RNCNvXs0_NtCs3o10VZT1cuq_10ryo3_regex8py_regexNtB7_7PyRegexINtNtCs66KPHxksi63_4core7convert7TryFromNtNtNtCsajmPFkSi7Wt_5regex8builders6string12RegexBuilderE8try_froms_0B9_
FNF:24
FNH:10
DA:16,1
DA:17,1
DA:18,1
DA:19,1
DA:20,1
DA:21,1
DA:22,1
DA:23,0
DA:24,0
DA:25,1
DA:29,8
DA:30,8
DA:31,8
DA:32,8
DA:33,8
DA:34,8
DA:40,0
DA:41,0
DA:42,0
DA:43,0
DA:44,0
DA:45,0
DA:46,0
DA:47,0
DA:48,0
DA:49,0
DA:68,8
DA:69,8
DA:70,0
DA:71,0
DA:72,0
DA:73,0
DA:74,0
DA:75,0
DA:76,0
DA:78,8
DA:80,8
DA:82,0
DA:101,8
DA:102,8
DA:103,8
DA:104,8
DA:105,8
DA:106,8
DA:107,8
DA:108,8
DA:109,8
DA:110,8
DA:111,8
DA:112,8
DA:113,8
DA:114,8
DA:115,8
DA:118,8
DA:119,8
DA:120,8
DA:121,8
DA:122,8
DA:123,8
DA:124,8
DA:125,8
DA:126,8
DA:128,8
DA:129,8
DA:131,8
DA:132,0
DA:133,8
DA:134,8
DA:135,0
DA:136,0
DA:137,8
DA:139,0
DA:140,0
DA:141,0
DA:143,0
DA:144,0
DA:145,0
DA:147,2
DA:148,2
DA:149,2
DA:151,0
DA:152,0
DA:153,0
DA:155,1
DA:156,1
DA:157,1
DA:158,4
DA:159,1
DA:160,1
DA:162,0
DA:163,0
DA:164,0
DA:166,0
DA:167,0
DA:168,0
DA:170,2
DA:171,2
DA:172,2
DA:174,0
DA:175,0
DA:176,0
DA:177,0
DA:178,0
DA:179,0
DA:181,0
DA:182,0
DA:183,0
DA:184,0
DA:185,0
DA:186,0
DA:190,85740
DA:191,85740
DA:192,85740
BRF:0
BRH:0
LF:118
LH:64
end_of_record
SF:/home/jesse/ry/crates/ryo3-reqwest/src/client.rs
FN:63,_RNvMNtCs3QWMMxPHX46_12ryo3_reqwest6clientNtB2_12RyHttpClient13build_request
FN:54,_RNvMNtCs3QWMMxPHX46_12ryo3_reqwest6clientNtB2_12RyHttpClient3new
FN:669,_RNvMs0_NtCs3QWMMxPHX46_12ryo3_reqwest6clientNtB5_12ClientConfig14client_builder
FN:640,_RNvMs0_NtCs3QWMMxPHX46_12ryo3_reqwest6clientNtB5_12ClientConfig5apply
FN:165,_RNvMsh_NtCs3QWMMxPHX46_12ryo3_reqwest6clientNtB5_12RyHttpClient17___getnewargs_ex__
FN:199,_RNvMsh_NtCs3QWMMxPHX46_12ryo3_reqwest6clientNtB5_12RyHttpClient3get
FN:297,_RNvMsh_NtCs3QWMMxPHX46_12ryo3_reqwest6clientNtB5_12RyHttpClient3put
FN:444,_RNvMsh_NtCs3QWMMxPHX46_12ryo3_reqwest6clientNtB5_12RyHttpClient4head
FN:248,_RNvMsh_NtCs3QWMMxPHX46_12ryo3_reqwest6clientNtB5_12RyHttpClient4post
FN:543,_RNvMsh_NtCs3QWMMxPHX46_12ryo3_reqwest6clientNtB5_12RyHttpClient5fetch
FN:346,_RNvMsh_NtCs3QWMMxPHX46_12ryo3_reqwest6clientNtB5_12RyHttpClient5patch
FN:176,_RNvMsh_NtCs3QWMMxPHX46_12ryo3_reqwest6clientNtB5_12RyHttpClient6___eq__
FN:180,_RNvMsh_NtCs3QWMMxPHX46_12ryo3_reqwest6clientNtB5_12RyHttpClient6___ne__
FN:171,_RNvMsh_NtCs3QWMMxPHX46_12ryo3_reqwest6clientNtB5_12RyHttpClient6config
FN:395,_RNvMsh_NtCs3QWMMxPHX46_12ryo3_reqwest6clientNtB5_12RyHttpClient6delete
FN:120,_RNvMsh_NtCs3QWMMxPHX46_12ryo3_reqwest6clientNtB5_12RyHttpClient6py_new
FN:493,_RNvMsh_NtCs3QWMMxPHX46_12ryo3_reqwest6clientNtB5_12RyHttpClient7options
FN:597,_RNvMsh_NtCs3QWMMxPHX46_12ryo3_reqwest6clientNtB5_12RyHttpClient8___call__
FN:161,_RNvMsh_NtCs3QWMMxPHX46_12ryo3_reqwest6clientNtB5_12RyHttpClient8___repr__
FN:99,_RNvMsn_NtCs3QWMMxPHX46_12ryo3_reqwest6clientNtB5_12RyHttpClient19___pymethod_config__
FN:99,_RNvMsn_NtCs3QWMMxPHX46_12ryo3_reqwest6clientNtB5_12RyHttpClient21___pymethod___repr____
FN:99,_RNvMsn_NtCs3QWMMxPHX46_12ryo3_reqwest6clientNtB5_12RyHttpClient30___pymethod___getnewargs_ex____
FN:622,_RNvXs_NtCs3QWMMxPHX46_12ryo3_reqwest6clientRNtB4_12ClientConfigNtNtCsjhPV6BdWoWa_4pyo310conversion12IntoPyObject13into_pyobject
FN:225,_RNCNvMsh_NtCs3QWMMxPHX46_12ryo3_reqwest6clientNtB7_12RyHttpClient3get0B9_
FN:323,_RNCNvMsh_NtCs3QWMMxPHX46_12ryo3_reqwest6clientNtB7_12RyHttpClient3put0B9_
FN:470,_RNCNvMsh_NtCs3QWMMxPHX46_12ryo3_reqwest6clientNtB7_12RyHttpClient4head0B9_
FN:274,_RNCNvMsh_NtCs3QWMMxPHX46_12ryo3_reqwest6clientNtB7_12RyHttpClient4post0B9_
FN:573,_RNCNvMsh_NtCs3QWMMxPHX46_12ryo3_reqwest6clientNtB7_12RyHttpClient5fetchs0_0B9_
FN:372,_RNCNvMsh_NtCs3QWMMxPHX46_12ryo3_reqwest6clientNtB7_12RyHttpClient5patch0B9_
FN:421,_RNCNvMsh_NtCs3QWMMxPHX46_12ryo3_reqwest6clientNtB7_12RyHttpClient6delete0B9_
FN:154,_RNCNvMsh_NtCs3QWMMxPHX46_12ryo3_reqwest6clientNtB7_12RyHttpClient6py_new0B9_
FN:519,_RNCNvMsh_NtCs3QWMMxPHX46_12ryo3_reqwest6clientNtB7_12RyHttpClient7options0B9_
FNDA:28,_RNvMNtCs3QWMMxPHX46_12ryo3_reqwest6clientNtB2_12RyHttpClient13build_request
FNDA:1,_RNvMNtCs3QWMMxPHX46_12ryo3_reqwest6clientNtB2_12RyHttpClient3new
FNDA:24,_RNvMs0_NtCs3QWMMxPHX46_12ryo3_reqwest6clientNtB5_12ClientConfig14client_builder
FNDA:24,_RNvMs0_NtCs3QWMMxPHX46_12ryo3_reqwest6clientNtB5_12ClientConfig5apply
FNDA:0,_RNvMsh_NtCs3QWMMxPHX46_12ryo3_reqwest6clientNtB5_12RyHttpClient17___getnewargs_ex__
FNDA:19,_RNvMsh_NtCs3QWMMxPHX46_12ryo3_reqwest6clientNtB5_12RyHttpClient3get
FNDA:0,_RNvMsh_NtCs3QWMMxPHX46_12ryo3_reqwest6clientNtB5_12RyHttpClient3put
FNDA:0,_RNvMsh_NtCs3QWMMxPHX46_12ryo3_reqwest6clientNtB5_12RyHttpClient4head
FNDA:2,_RNvMsh_NtCs3QWMMxPHX46_12ryo3_reqwest6clientNtB5_12RyHttpClient4post
FNDA:7,_RNvMsh_NtCs3QWMMxPHX46_12ryo3_reqwest6clientNtB5_12RyHttpClient5fetch
FNDA:0,_RNvMsh_NtCs3QWMMxPHX46_12ryo3_reqwest6clientNtB5_12RyHttpClient5patch
FNDA:0,_RNvMsh_NtCs3QWMMxPHX46_12ryo3_reqwest6clientNtB5_12RyHttpClient6___eq__
FNDA:0,_RNvMsh_NtCs3QWMMxPHX46_12ryo3_reqwest6clientNtB5_12RyHttpClient6___ne__
FNDA:0,_RNvMsh_NtCs3QWMMxPHX46_12ryo3_reqwest6clientNtB5_12RyHttpClient6config
FNDA:0,_RNvMsh_NtCs3QWMMxPHX46_12ryo3_reqwest6clientNtB5_12RyHttpClient6delete
FNDA:23,_RNvMsh_NtCs3QWMMxPHX46_12ryo3_reqwest6clientNtB5_12RyHttpClient6py_new
FNDA:0,_RNvMsh_NtCs3QWMMxPHX46_12ryo3_reqwest6clientNtB5_12RyHttpClient7options
FNDA:0,_RNvMsh_NtCs3QWMMxPHX46_12ryo3_reqwest6clientNtB5_12RyHttpClient8___call__
FNDA:0,_RNvMsh_NtCs3QWMMxPHX46_12ryo3_reqwest6clientNtB5_12RyHttpClient8___repr__
FNDA:0,_RNvMsn_NtCs3QWMMxPHX46_12ryo3_reqwest6clientNtB5_12RyHttpClient19___pymethod_config__
FNDA:0,_RNvMsn_NtCs3QWMMxPHX46_12ryo3_reqwest6clientNtB5_12RyHttpClient21___pymethod___repr____
FNDA:0,_RNvMsn_NtCs3QWMMxPHX46_12ryo3_reqwest6clientNtB5_12RyHttpClient30___pymethod___getnewargs_ex____
FNDA:0,_RNvXs_NtCs3QWMMxPHX46_12ryo3_reqwest6clientRNtB4_12ClientConfigNtNtCsjhPV6BdWoWa_4pyo310conversion12IntoPyObject13into_pyobject
FNDA:19,_RNCNvMsh_NtCs3QWMMxPHX46_12ryo3_reqwest6clientNtB7_12RyHttpClient3get0B9_
FNDA:0,_RNCNvMsh_NtCs3QWMMxPHX46_12ryo3_reqwest6clientNtB7_12RyHttpClient3put0B9_
FNDA:0,_RNCNvMsh_NtCs3QWMMxPHX46_12ryo3_reqwest6clientNtB7_12RyHttpClient4head0B9_
FNDA:2,_RNCNvMsh_NtCs3QWMMxPHX46_12ryo3_reqwest6clientNtB7_12RyHttpClient4post0B9_
FNDA:7,_RNCNvMsh_NtCs3QWMMxPHX46_12ryo3_reqwest6clientNtB7_12RyHttpClient5fetchs0_0B9_
FNDA:0,_RNCNvMsh_NtCs3QWMMxPHX46_12ryo3_reqwest6clientNtB7_12RyHttpClient5patch0B9_
FNDA:0,_RNCNvMsh_NtCs3QWMMxPHX46_12ryo3_reqwest6clientNtB7_12RyHttpClient6delete0B9_
FNDA:0,_RNCNvMsh_NtCs3QWMMxPHX46_12ryo3_reqwest6clientNtB7_12RyHttpClient6py_new0B9_
FNDA:0,_RNCNvMsh_NtCs3QWMMxPHX46_12ryo3_reqwest6clientNtB7_12RyHttpClient7options0B9_
FNF:30
FNH:11
DA:54,1
DA:55,1
DA:56,1
DA:57,1
DA:58,1
DA:59,1
DA:63,28
DA:64,28
DA:65,28
DA:66,28
DA:67,0
DA:68,28
DA:69,28
DA:70,2
DA:71,2
DA:72,26
DA:73,28
DA:74,0
DA:75,28
DA:76,28
DA:77,4
DA:78,4
DA:79,24
DA:80,28
DA:81,1
DA:82,1
DA:83,27
DA:84,28
DA:85,0
DA:86,28
DA:87,28
DA:88,0
DA:89,28
DA:90,28
DA:91,3
DA:92,3
DA:93,25
DA:94,28
DA:95,28
DA:96,28
DA:99,0
DA:120,23
DA:121,23
DA:122,23
DA:123,23
DA:124,23
DA:125,23
DA:126,23
DA:127,23
DA:128,23
DA:129,23
DA:130,23
DA:131,23
DA:132,23
DA:133,23
DA:134,23
DA:135,23
DA:136,23
DA:137,23
DA:138,23
DA:139,23
DA:140,23
DA:141,23
DA:142,23
DA:143,23
DA:144,23
DA:145,23
DA:146,23
DA:147,23
DA:148,23
DA:149,23
DA:150,23
DA:151,23
DA:152,23
DA:153,23
DA:154,23
DA:155,23
DA:156,23
DA:157,23
DA:158,23
DA:159,23
DA:161,0
DA:162,0
DA:163,0
DA:165,0
DA:166,0
DA:167,0
DA:168,0
DA:169,0
DA:171,0
DA:172,0
DA:173,0
DA:174,0
DA:176,0
DA:177,0
DA:178,0
DA:180,0
DA:181,0
DA:182,0
DA:199,19
DA:200,19
DA:201,19
DA:202,19
DA:203,19
DA:204,19
DA:205,19
DA:206,19
DA:207,19
DA:208,19
DA:209,19
DA:210,19
DA:211,19
DA:212,19
DA:213,19
DA:214,19
DA:215,19
DA:216,19
DA:217,19
DA:218,19
DA:219,19
DA:220,19
DA:221,19
DA:222,19
DA:223,19
DA:224,19
DA:225,19
DA:226,19
DA:227,19
DA:228,19
DA:229,19
DA:230,19
DA:231,19
DA:248,2
DA:249,2
DA:250,2
DA:251,2
DA:252,2
DA:253,2
DA:254,2
DA:255,2
DA:256,2
DA:257,2
DA:258,2
DA:259,2
DA:260,2
DA:261,2
DA:262,2
DA:263,2
DA:264,2
DA:265,2
DA:266,2
DA:267,2
DA:268,2
DA:269,2
DA:270,2
DA:271,2
DA:272,2
DA:273,2
DA:274,2
DA:275,2
DA:276,2
DA:277,2
DA:278,2
DA:279,2
DA:280,2
DA:297,0
DA:298,0
DA:299,0
DA:300,0
DA:301,0
DA:302,0
DA:303,0
DA:304,0
DA:305,0
DA:306,0
DA:307,0
DA:308,0
DA:309,0
DA:310,0
DA:311,0
DA:312,0
DA:313,0
DA:314,0
DA:315,0
DA:316,0
DA:317,0
DA:318,0
DA:319,0
DA:320,0
DA:321,0
DA:322,0
DA:323,0
DA:324,0
DA:325,0
DA:326,0
DA:327,0
DA:328,0
DA:329,0
DA:346,0
DA:347,0
DA:348,0
DA:349,0
DA:350,0
DA:351,0
DA:352,0
DA:353,0
DA:354,0
DA:355,0
DA:356,0
DA:357,0
DA:358,0
DA:359,0
DA:360,0
DA:361,0
DA:362,0
DA:363,0
DA:364,0
DA:365,0
DA:366,0
DA:367,0
DA:368,0
DA:369,0
DA:370,0
DA:371,0
DA:372,0
DA:373,0
DA:374,0
DA:375,0
DA:376,0
DA:377,0
DA:378,0
DA:395,0
DA:396,0
DA:397,0
DA:398,0
DA:399,0
DA:400,0
DA:401,0
DA:402,0
DA:403,0
DA:404,0
DA:405,0
DA:406,0
DA:407,0
DA:408,0
DA:409,0
DA:410,0
DA:411,0
DA:412,0
DA:413,0
DA:414,0
DA:415,0
DA:416,0
DA:417,0
DA:418,0
DA:419,0
DA:420,0
DA:421,0
DA:422,0
DA:423,0
DA:424,0
DA:425,0
DA:426,0
DA:427,0
DA:444,0
DA:445,0
DA:446,0
DA:447,0
DA:448,0
DA:449,0
DA:450,0
DA:451,0
DA:452,0
DA:453,0
DA:454,0
DA:455,0
DA:456,0
DA:457,0
DA:458,0
DA:459,0
DA:460,0
DA:461,0
DA:462,0
DA:463,0
DA:464,0
DA:465,0
DA:466,0
DA:467,0
DA:468,0
DA:469,0
DA:470,0
DA:471,0
DA:472,0
DA:473,0
DA:474,0
DA:475,0
DA:476,0
DA:493,0
DA:494,0
DA:495,0
DA:496,0
DA:497,0
DA:498,0
DA:499,0
DA:500,0
DA:501,0
DA:502,0
DA:503,0
DA:504,0
DA:505,0
DA:506,0
DA:507,0
DA:508,0
DA:509,0
DA:510,0
DA:511,0
DA:512,0
DA:513,0
DA:514,0
DA:515,0
DA:516,0
DA:517,0
DA:518,0
DA:519,0
DA:520,0
DA:521,0
DA:522,0
DA:523,0
DA:524,0
DA:525,0
DA:543,7
DA:544,7
DA:545,7
DA:546,7
DA:547,7
DA:548,7
DA:549,7
DA:550,7
DA:551,7
DA:552,7
DA:553,7
DA:554,7
DA:555,7
DA:556,7
DA:557,7
DA:558,7
DA:559,7
DA:560,7
DA:561,7
DA:562,7
DA:563,7
DA:564,7
DA:565,7
DA:566,7
DA:567,7
DA:568,7
DA:569,7
DA:571,7
DA:572,7
DA:573,7
DA:574,7
DA:575,7
DA:576,7
DA:577,7
DA:578,7
DA:579,7
DA:597,0
DA:598,0
DA:599,0
DA:600,0
DA:601,0
DA:602,0
DA:603,0
DA:604,0
DA:605,0
DA:606,0
DA:607,0
DA:608,0
DA:609,0
DA:610,0
DA:611,0
DA:612,0
DA:614,0
DA:622,0
DA:623,0
DA:624,0
DA:625,0
DA:626,0
DA:627,0
DA:628,0
DA:629,0
DA:630,0
DA:631,0
DA:632,0
DA:633,0
DA:634,0
DA:635,0
DA:636,0
DA:640,24
DA:641,24
DA:642,24
DA:643,24
DA:644,24
DA:645,24
DA:646,24
DA:647,24
DA:648,24
DA:649,23
DA:650,23
DA:651,24
DA:652,1
DA:653,23
DA:654,24
DA:655,2
DA:656,22
DA:657,24
DA:658,0
DA:659,24
DA:660,24
DA:661,0
DA:662,24
DA:663,24
DA:664,0
DA:665,24
DA:666,24
DA:667,24
DA:669,24
DA:670,24
DA:671,24
DA:672,24
BRF:0
BRH:0
LF:439
LH:210
end_of_record
SF:/home/jesse/ry/crates/ryo3-reqwest/src/default_client.rs
FN:22,_RNvNtCs3QWMMxPHX46_12ryo3_reqwest14default_client14default_clientB3_
FN:23,_RNCNvNtCs3QWMMxPHX46_12ryo3_reqwest14default_client14default_client0B5_
FNDA:3,_RNvNtCs3QWMMxPHX46_12ryo3_reqwest14default_client14default_clientB3_
FNDA:1,_RNCNvNtCs3QWMMxPHX46_12ryo3_reqwest14default_client14default_client0B5_
FNF:2
FNH:2
DA:22,3
DA:23,3
DA:24,1
DA:25,1
DA:26,1
DA:27,1
DA:28,3
BRF:0
BRH:0
LF:8
LH:8
end_of_record
SF:/home/jesse/ry/crates/ryo3-reqwest/src/errors.rs
FN:124,_RNCNvMs8_NtCs3QWMMxPHX46_12ryo3_reqwest6errorsNtB7_14RyReqwestError3url0B9_
FN:58,_RNvMs8_NtCs3QWMMxPHX46_12ryo3_reqwest6errorsNtB5_14RyReqwestError10is_builder
FN:66,_RNvMs8_NtCs3QWMMxPHX46_12ryo3_reqwest6errorsNtB5_14RyReqwestError10is_connect
FN:90,_RNvMs8_NtCs3QWMMxPHX46_12ryo3_reqwest6errorsNtB5_14RyReqwestError10is_request
FN:106,_RNvMs8_NtCs3QWMMxPHX46_12ryo3_reqwest6errorsNtB5_14RyReqwestError10is_timeout
FN:82,_RNvMs8_NtCs3QWMMxPHX46_12ryo3_reqwest6errorsNtB5_14RyReqwestError11is_redirect
FN:140,_RNvMs8_NtCs3QWMMxPHX46_12ryo3_reqwest6errorsNtB5_14RyReqwestError11without_url
FN:122,_RNvMs8_NtCs3QWMMxPHX46_12ryo3_reqwest6errorsNtB5_14RyReqwestError3url
FN:27,_RNvMs8_NtCs3QWMMxPHX46_12ryo3_reqwest6errorsNtB5_14RyReqwestError6py_new
FN:114,_RNvMs8_NtCs3QWMMxPHX46_12ryo3_reqwest6errorsNtB5_14RyReqwestError6status
FN:31,_RNvMs8_NtCs3QWMMxPHX46_12ryo3_reqwest6errorsNtB5_14RyReqwestError7___dbg__
FN:50,_RNvMs8_NtCs3QWMMxPHX46_12ryo3_reqwest6errorsNtB5_14RyReqwestError7is_body
FN:130,_RNvMs8_NtCs3QWMMxPHX46_12ryo3_reqwest6errorsNtB5_14RyReqwestError8with_url
FN:74,_RNvMs8_NtCs3QWMMxPHX46_12ryo3_reqwest6errorsNtB5_14RyReqwestError9is_decode
FN:98,_RNvMs8_NtCs3QWMMxPHX46_12ryo3_reqwest6errorsNtB5_14RyReqwestError9is_status
FN:22,_RNvMsa_NtCs3QWMMxPHX46_12ryo3_reqwest6errorsNtB5_14RyReqwestError16___pymethod_url__
FN:22,_RNvMsa_NtCs3QWMMxPHX46_12ryo3_reqwest6errorsNtB5_14RyReqwestError19___pymethod_status__
FN:22,_RNvMsa_NtCs3QWMMxPHX46_12ryo3_reqwest6errorsNtB5_14RyReqwestError20___pymethod___dbg____
FN:22,_RNvMsa_NtCs3QWMMxPHX46_12ryo3_reqwest6errorsNtB5_14RyReqwestError20___pymethod_is_body__
FN:22,_RNvMsa_NtCs3QWMMxPHX46_12ryo3_reqwest6errorsNtB5_14RyReqwestError22___pymethod_is_decode__
FN:22,_RNvMsa_NtCs3QWMMxPHX46_12ryo3_reqwest6errorsNtB5_14RyReqwestError22___pymethod_is_status__
FN:22,_RNvMsa_NtCs3QWMMxPHX46_12ryo3_reqwest6errorsNtB5_14RyReqwestError23___pymethod_is_builder__
FN:22,_RNvMsa_NtCs3QWMMxPHX46_12ryo3_reqwest6errorsNtB5_14RyReqwestError23___pymethod_is_connect__
FN:22,_RNvMsa_NtCs3QWMMxPHX46_12ryo3_reqwest6errorsNtB5_14RyReqwestError23___pymethod_is_request__
FN:22,_RNvMsa_NtCs3QWMMxPHX46_12ryo3_reqwest6errorsNtB5_14RyReqwestError23___pymethod_is_timeout__
FN:22,_RNvMsa_NtCs3QWMMxPHX46_12ryo3_reqwest6errorsNtB5_14RyReqwestError24___pymethod_is_redirect__
FN:22,_RNvMsa_NtCs3QWMMxPHX46_12ryo3_reqwest6errorsNtB5_14RyReqwestError24___pymethod_without_url__
FN:162,_RNvNtCs3QWMMxPHX46_12ryo3_reqwest6errors15map_reqwest_err
FN:152,_RNvXNtCs3QWMMxPHX46_12ryo3_reqwest6errorsNtNtCsjhPV6BdWoWa_4pyo33err5PyErrINtNtCs66KPHxksi63_4core7convert4FromNtB2_14RyReqwestErrorE4from
FNDA:0,_RNCNvMs8_NtCs3QWMMxPHX46_12ryo3_reqwest6errorsNtB7_14RyReqwestError3url0B9_
FNDA:0,_RNvMs8_NtCs3QWMMxPHX46_12ryo3_reqwest6errorsNtB5_14RyReqwestError10is_builder
FNDA:0,_RNvMs8_NtCs3QWMMxPHX46_12ryo3_reqwest6errorsNtB5_14RyReqwestError10is_connect
FNDA:0,_RNvMs8_NtCs3QWMMxPHX46_12ryo3_reqwest6errorsNtB5_14RyReqwestError10is_request
FNDA:0,_RNvMs8_NtCs3QWMMxPHX46_12ryo3_reqwest6errorsNtB5_14RyReqwestError10is_timeout
FNDA:0,_RNvMs8_NtCs3QWMMxPHX46_12ryo3_reqwest6errorsNtB5_14RyReqwestError11is_redirect
FNDA:0,_RNvMs8_NtCs3QWMMxPHX46_12ryo3_reqwest6errorsNtB5_14RyReqwestError11without_url
FNDA:0,_RNvMs8_NtCs3QWMMxPHX46_12ryo3_reqwest6errorsNtB5_14RyReqwestError3url
FNDA:2,_RNvMs8_NtCs3QWMMxPHX46_12ryo3_reqwest6errorsNtB5_14RyReqwestError6py_new
FNDA:0,_RNvMs8_NtCs3QWMMxPHX46_12ryo3_reqwest6errorsNtB5_14RyReqwestError6status
FNDA:0,_RNvMs8_NtCs3QWMMxPHX46_12ryo3_reqwest6errorsNtB5_14RyReqwestError7___dbg__
FNDA:0,_RNvMs8_NtCs3QWMMxPHX46_12ryo3_reqwest6errorsNtB5_14RyReqwestError7is_body
FNDA:0,_RNvMs8_NtCs3QWMMxPHX46_12ryo3_reqwest6errorsNtB5_14RyReqwestError8with_url
FNDA:0,_RNvMs8_NtCs3QWMMxPHX46_12ryo3_reqwest6errorsNtB5_14RyReqwestError9is_decode
FNDA:0,_RNvMs8_NtCs3QWMMxPHX46_12ryo3_reqwest6errorsNtB5_14RyReqwestError9is_status
FNDA:0,_RNvMsa_NtCs3QWMMxPHX46_12ryo3_reqwest6errorsNtB5_14RyReqwestError16___pymethod_url__
FNDA:0,_RNvMsa_NtCs3QWMMxPHX46_12ryo3_reqwest6errorsNtB5_14RyReqwestError19___pymethod_status__
FNDA:0,_RNvMsa_NtCs3QWMMxPHX46_12ryo3_reqwest6errorsNtB5_14RyReqwestError20___pymethod___dbg____
FNDA:0,_RNvMsa_NtCs3QWMMxPHX46_12ryo3_reqwest6errorsNtB5_14RyReqwestError20___pymethod_is_body__
FNDA:0,_RNvMsa_NtCs3QWMMxPHX46_12ryo3_reqwest6errorsNtB5_14RyReqwestError22___pymethod_is_decode__
FNDA:0,_RNvMsa_NtCs3QWMMxPHX46_12ryo3_reqwest6errorsNtB5_14RyReqwestError22___pymethod_is_status__
FNDA:0,_RNvMsa_NtCs3QWMMxPHX46_12ryo3_reqwest6errorsNtB5_14RyReqwestError23___pymethod_is_builder__
FNDA:0,_RNvMsa_NtCs3QWMMxPHX46_12ryo3_reqwest6errorsNtB5_14RyReqwestError23___pymethod_is_connect__
FNDA:0,_RNvMsa_NtCs3QWMMxPHX46_12ryo3_reqwest6errorsNtB5_14RyReqwestError23___pymethod_is_request__
FNDA:0,_RNvMsa_NtCs3QWMMxPHX46_12ryo3_reqwest6errorsNtB5_14RyReqwestError23___pymethod_is_timeout__
FNDA:0,_RNvMsa_NtCs3QWMMxPHX46_12ryo3_reqwest6errorsNtB5_14RyReqwestError24___pymethod_is_redirect__
FNDA:0,_RNvMsa_NtCs3QWMMxPHX46_12ryo3_reqwest6errorsNtB5_14RyReqwestError24___pymethod_without_url__
FNDA:2,_RNvNtCs3QWMMxPHX46_12ryo3_reqwest6errors15map_reqwest_err
FNDA:2,_RNvXNtCs3QWMMxPHX46_12ryo3_reqwest6errorsNtNtCsjhPV6BdWoWa_4pyo33err5PyErrINtNtCs66KPHxksi63_4core7convert4FromNtB2_14RyReqwestErrorE4from
FNF:18
FNH:3
DA:22,0
DA:27,2
DA:28,2
DA:29,2
DA:31,0
DA:32,0
DA:33,0
DA:50,0
DA:51,0
DA:52,0
DA:54,0
DA:56,0
DA:58,0
DA:59,0
DA:60,0
DA:62,0
DA:64,0
DA:66,0
DA:67,0
DA:68,0
DA:70,0
DA:72,0
DA:74,0
DA:75,0
DA:76,0
DA:78,0
DA:80,0
DA:82,0
DA:83,0
DA:84,0
DA:86,0
DA:88,0
DA:90,0
DA:91,0
DA:92,0
DA:94,0
DA:96,0
DA:98,0
DA:99,0
DA:100,0
DA:102,0
DA:104,0
DA:106,0
DA:107,0
DA:108,0
DA:110,0
DA:112,0
DA:114,0
DA:115,0
DA:116,0
DA:118,0
DA:120,0
DA:122,0
DA:123,0
DA:124,0
DA:126,0
DA:128,0
DA:130,0
DA:132,0
DA:133,0
DA:134,0
DA:135,0
DA:136,0
DA:137,0
DA:138,0
DA:140,0
DA:142,0
DA:143,0
DA:144,0
DA:145,0
DA:146,0
DA:147,0
DA:148,0
DA:152,2
DA:153,2
DA:154,2
DA:155,2
DA:157,0
DA:159,2
DA:162,2
DA:163,2
DA:164,2
DA:165,2
BRF:0
BRH:0
LF:84
LH:12
end_of_record
SF:/home/jesse/ry/crates/ryo3-reqwest/src/fetch.rs
FN:27,_RNvNtCs3QWMMxPHX46_12ryo3_reqwest5fetch5fetch
FN:14,_RNCNvNtCs3QWMMxPHX46_12ryo3_reqwest5fetch18___pyfunction_fetch0B5_
FN:16,_RNCNvNtCs3QWMMxPHX46_12ryo3_reqwest5fetch18___pyfunction_fetchs0_0B5_
FN:17,_RNCNvNtCs3QWMMxPHX46_12ryo3_reqwest5fetch18___pyfunction_fetchs1_0B5_
FN:18,_RNCNvNtCs3QWMMxPHX46_12ryo3_reqwest5fetch18___pyfunction_fetchs2_0B5_
FN:19,_RNCNvNtCs3QWMMxPHX46_12ryo3_reqwest5fetch18___pyfunction_fetchs3_0B5_
FN:20,_RNCNvNtCs3QWMMxPHX46_12ryo3_reqwest5fetch18___pyfunction_fetchs4_0B5_
FN:21,_RNCNvNtCs3QWMMxPHX46_12ryo3_reqwest5fetch18___pyfunction_fetchs5_0B5_
FN:22,_RNCNvNtCs3QWMMxPHX46_12ryo3_reqwest5fetch18___pyfunction_fetchs6_0B5_
FN:23,_RNCNvNtCs3QWMMxPHX46_12ryo3_reqwest5fetch18___pyfunction_fetchs7_0B5_
FN:15,_RNCNvNtCs3QWMMxPHX46_12ryo3_reqwest5fetch18___pyfunction_fetchs_0B5_
FN:54,_RNCNvNtCs3QWMMxPHX46_12ryo3_reqwest5fetch5fetch0B5_
FNDA:3,_RNvNtCs3QWMMxPHX46_12ryo3_reqwest5fetch5fetch
FNDA:3,_RNCNvNtCs3QWMMxPHX46_12ryo3_reqwest5fetch18___pyfunction_fetch0B5_
FNDA:1,_RNCNvNtCs3QWMMxPHX46_12ryo3_reqwest5fetch18___pyfunction_fetchs0_0B5_
FNDA:3,_RNCNvNtCs3QWMMxPHX46_12ryo3_reqwest5fetch18___pyfunction_fetchs1_0B5_
FNDA:3,_RNCNvNtCs3QWMMxPHX46_12ryo3_reqwest5fetch18___pyfunction_fetchs2_0B5_
FNDA:3,_RNCNvNtCs3QWMMxPHX46_12ryo3_reqwest5fetch18___pyfunction_fetchs3_0B5_
FNDA:3,_RNCNvNtCs3QWMMxPHX46_12ryo3_reqwest5fetch18___pyfunction_fetchs4_0B5_
FNDA:3,_RNCNvNtCs3QWMMxPHX46_12ryo3_reqwest5fetch18___pyfunction_fetchs5_0B5_
FNDA:3,_RNCNvNtCs3QWMMxPHX46_12ryo3_reqwest5fetch18___pyfunction_fetchs6_0B5_
FNDA:3,_RNCNvNtCs3QWMMxPHX46_12ryo3_reqwest5fetch18___pyfunction_fetchs7_0B5_
FNDA:1,_RNCNvNtCs3QWMMxPHX46_12ryo3_reqwest5fetch18___pyfunction_fetchs_0B5_
FNDA:3,_RNCNvNtCs3QWMMxPHX46_12ryo3_reqwest5fetch5fetch0B5_
FNF:12
FNH:12
DA:14,3
DA:15,1
DA:16,1
DA:17,3
DA:18,3
DA:19,3
DA:20,3
DA:21,3
DA:22,3
DA:23,3
DA:27,3
DA:28,3
DA:29,3
DA:30,3
DA:31,3
DA:32,3
DA:33,3
DA:34,3
DA:35,3
DA:36,3
DA:37,3
DA:38,3
DA:39,3
DA:40,3
DA:42,3
DA:43,0
DA:45,3
DA:46,3
DA:47,3
DA:50,3
DA:51,3
DA:52,3
DA:54,3
DA:55,3
BRF:0
BRH:0
LF:35
LH:34
end_of_record
SF:/home/jesse/ry/crates/ryo3-reqwest/src/lib.rs
FN:25,_RNvCs3QWMMxPHX46_12ryo3_reqwest9pymod_add
FNDA:8,_RNvCs3QWMMxPHX46_12ryo3_reqwest9pymod_add
FNF:1
FNH:1
DA:25,8
DA:26,8
DA:27,8
DA:28,8
DA:29,8
DA:30,8
BRF:0
BRH:0
LF:6
LH:6
end_of_record
SF:/home/jesse/ry/crates/ryo3-reqwest/src/pyo3_json_bytes.rs
FN:7,_RNvMNtCs3QWMMxPHX46_12ryo3_reqwest15pyo3_json_bytesNtB2_13Pyo3JsonBytes3new
FN:23,_RNvXs0_NtCs3QWMMxPHX46_12ryo3_reqwest15pyo3_json_bytesNtB5_13Pyo3JsonBytesNtNtCsjhPV6BdWoWa_4pyo310conversion12IntoPyObject13into_pyobject
FN:13,_RNvXs_NtCs3QWMMxPHX46_12ryo3_reqwest15pyo3_json_bytesNtB4_13Pyo3JsonBytesINtNtCs66KPHxksi63_4core7convert4FromNtNtCsdeDPnamZes_5bytes5bytes5BytesE4from
FN:34,_RNCNvXs0_NtCs3QWMMxPHX46_12ryo3_reqwest15pyo3_json_bytesNtB7_13Pyo3JsonBytesNtNtCsjhPV6BdWoWa_4pyo310conversion12IntoPyObject13into_pyobject0B9_
FNDA:13,_RNvMNtCs3QWMMxPHX46_12ryo3_reqwest15pyo3_json_bytesNtB2_13Pyo3JsonBytes3new
FNDA:13,_RNvXs0_NtCs3QWMMxPHX46_12ryo3_reqwest15pyo3_json_bytesNtB5_13Pyo3JsonBytesNtNtCsjhPV6BdWoWa_4pyo310conversion12IntoPyObject13into_pyobject
FNDA:13,_RNvXs_NtCs3QWMMxPHX46_12ryo3_reqwest15pyo3_json_bytesNtB4_13Pyo3JsonBytesINtNtCs66KPHxksi63_4core7convert4FromNtNtCsdeDPnamZes_5bytes5bytes5BytesE4from
FNDA:0,_RNCNvXs0_NtCs3QWMMxPHX46_12ryo3_reqwest15pyo3_json_bytesNtB7_13Pyo3JsonBytesNtNtCsjhPV6BdWoWa_4pyo310conversion12IntoPyObject13into_pyobject0B9_
FNF:4
FNH:3
DA:7,13
DA:8,13
DA:9,13
DA:13,13
DA:14,13
DA:15,13
DA:23,13
DA:24,13
DA:25,13
DA:26,13
DA:27,13
DA:28,13
DA:29,13
DA:30,13
DA:31,13
DA:32,13
DA:33,13
DA:34,13
DA:35,13
BRF:0
BRH:0
LF:20
LH:19
end_of_record
SF:/home/jesse/ry/crates/ryo3-reqwest/src/query_like.rs
FN:19,_RNvXNtCs3QWMMxPHX46_12ryo3_reqwest10query_likeNtB2_9QueryLikeNtNtCsjhPV6BdWoWa_4pyo310conversion12FromPyObject13extract_bound
FNDA:4,_RNvXNtCs3QWMMxPHX46_12ryo3_reqwest10query_likeNtB2_9QueryLikeNtNtCsjhPV6BdWoWa_4pyo310conversion12FromPyObject13extract_bound
FNF:1
FNH:1
DA:19,4
DA:20,4
DA:21,4
DA:22,16
DA:23,16
DA:24,0
DA:25,16
DA:26,16
DA:27,16
DA:28,16
DA:30,4
DA:31,0
DA:32,0
DA:33,0
DA:34,0
DA:35,0
DA:36,0
DA:37,0
DA:38,0
DA:40,0
DA:41,0
DA:42,0
DA:43,0
DA:44,0
DA:45,0
DA:46,0
DA:47,0
DA:48,0
DA:50,0
DA:52,0
DA:54,4
BRF:0
BRH:0
LF:31
LH:11
end_of_record
SF:/home/jesse/ry/crates/ryo3-reqwest/src/response_data.rs
FN:21,_RNvMNtCs3QWMMxPHX46_12ryo3_reqwest13response_dataNtB2_14RyResponseHead3new
FN:33,_RNvXs_NtCs3QWMMxPHX46_12ryo3_reqwest13response_dataNtB4_14RyResponseHeadINtNtCs66KPHxksi63_4core7convert4FromRNtNtNtCskMsQnhPuNyx_7reqwest10async_impl8response8ResponseE4from
FNDA:28,_RNvMNtCs3QWMMxPHX46_12ryo3_reqwest13response_dataNtB2_14RyResponseHead3new
FNDA:28,_RNvXs_NtCs3QWMMxPHX46_12ryo3_reqwest13response_dataNtB4_14RyResponseHeadINtNtCs66KPHxksi63_4core7convert4FromRNtNtNtCskMsQnhPuNyx_7reqwest10async_impl8response8ResponseE4from
FNF:2
FNH:2
DA:21,28
DA:22,28
DA:23,28
DA:24,28
DA:25,28
DA:26,28
DA:27,28
DA:28,28
DA:29,28
DA:33,28
DA:34,28
DA:35,28
BRF:0
BRH:0
LF:12
LH:12
end_of_record
SF:/home/jesse/ry/crates/ryo3-reqwest/src/response_parking_lot.rs
FN:143,_RNCNCNvMsa_NtCs3QWMMxPHX46_12ryo3_reqwest20response_parking_lotNtB9_10RyResponse5bytes00Bb_
FN:180,_RNCNvMsa_NtCs3QWMMxPHX46_12ryo3_reqwest20response_parking_lotNtB7_10RyResponse16content_encoding0B9_
FN:96,_RNCNvMsa_NtCs3QWMMxPHX46_12ryo3_reqwest20response_parking_lotNtB7_10RyResponse3url0B9_
FN:158,_RNCNvMsa_NtCs3QWMMxPHX46_12ryo3_reqwest20response_parking_lotNtB7_10RyResponse4json0B9_
FN:150,_RNCNvMsa_NtCs3QWMMxPHX46_12ryo3_reqwest20response_parking_lotNtB7_10RyResponse4text0B9_
FN:134,_RNCNvMsa_NtCs3QWMMxPHX46_12ryo3_reqwest20response_parking_lotNtB7_10RyResponse5bytes0B9_
FN:35,_RNvMNtCs3QWMMxPHX46_12ryo3_reqwest20response_parking_lotNtB2_10RyResponse13take_response
FN:28,_RNvMNtCs3QWMMxPHX46_12ryo3_reqwest20response_parking_lotNtB2_10RyResponse3new
FN:79,_RNvMsa_NtCs3QWMMxPHX46_12ryo3_reqwest20response_parking_lotNtB5_10RyResponse10redirected
FN:73,_RNvMsa_NtCs3QWMMxPHX46_12ryo3_reqwest20response_parking_lotNtB5_10RyResponse11status_code
FN:68,_RNvMsa_NtCs3QWMMxPHX46_12ryo3_reqwest20response_parking_lotNtB5_10RyResponse11status_text
FN:168,_RNvMsa_NtCs3QWMMxPHX46_12ryo3_reqwest20response_parking_lotNtB5_10RyResponse12bytes_stream
FN:89,_RNvMsa_NtCs3QWMMxPHX46_12ryo3_reqwest20response_parking_lotNtB5_10RyResponse12http_version
FN:107,_RNvMsa_NtCs3QWMMxPHX46_12ryo3_reqwest20response_parking_lotNtB5_10RyResponse14content_length
FN:179,_RNvMsa_NtCs3QWMMxPHX46_12ryo3_reqwest20response_parking_lotNtB5_10RyResponse16content_encoding
FN:113,_RNvMsa_NtCs3QWMMxPHX46_12ryo3_reqwest20response_parking_lotNtB5_10RyResponse2ok
FN:95,_RNvMsa_NtCs3QWMMxPHX46_12ryo3_reqwest20response_parking_lotNtB5_10RyResponse3url
FN:156,_RNvMsa_NtCs3QWMMxPHX46_12ryo3_reqwest20response_parking_lotNtB5_10RyResponse4json
FN:148,_RNvMsa_NtCs3QWMMxPHX46_12ryo3_reqwest20response_parking_lotNtB5_10RyResponse4text
FN:131,_RNvMsa_NtCs3QWMMxPHX46_12ryo3_reqwest20response_parking_lotNtB5_10RyResponse5bytes
FN:50,_RNvMsa_NtCs3QWMMxPHX46_12ryo3_reqwest20response_parking_lotNtB5_10RyResponse6py_new
FN:63,_RNvMsa_NtCs3QWMMxPHX46_12ryo3_reqwest20response_parking_lotNtB5_10RyResponse6status
FN:174,_RNvMsa_NtCs3QWMMxPHX46_12ryo3_reqwest20response_parking_lotNtB5_10RyResponse6stream
FN:54,_RNvMsa_NtCs3QWMMxPHX46_12ryo3_reqwest20response_parking_lotNtB5_10RyResponse7___str__
FN:100,_RNvMsa_NtCs3QWMMxPHX46_12ryo3_reqwest20response_parking_lotNtB5_10RyResponse7headers
FN:84,_RNvMsa_NtCs3QWMMxPHX46_12ryo3_reqwest20response_parking_lotNtB5_10RyResponse7version
FN:118,_RNvMsa_NtCs3QWMMxPHX46_12ryo3_reqwest20response_parking_lotNtB5_10RyResponse8___bool__
FN:58,_RNvMsa_NtCs3QWMMxPHX46_12ryo3_reqwest20response_parking_lotNtB5_10RyResponse8___repr__
FN:126,_RNvMsa_NtCs3QWMMxPHX46_12ryo3_reqwest20response_parking_lotNtB5_10RyResponse9body_used
FN:47,_RNvMsc_NtCs3QWMMxPHX46_12ryo3_reqwest20response_parking_lotNtB5_10RyResponse17___pymethod_json__
FN:47,_RNvMsc_NtCs3QWMMxPHX46_12ryo3_reqwest20response_parking_lotNtB5_10RyResponse17___pymethod_text__
FN:47,_RNvMsc_NtCs3QWMMxPHX46_12ryo3_reqwest20response_parking_lotNtB5_10RyResponse18___pymethod_bytes__
FN:47,_RNvMsc_NtCs3QWMMxPHX46_12ryo3_reqwest20response_parking_lotNtB5_10RyResponse19___pymethod_get_ok__
FN:47,_RNvMsc_NtCs3QWMMxPHX46_12ryo3_reqwest20response_parking_lotNtB5_10RyResponse19___pymethod_stream__
FN:47,_RNvMsc_NtCs3QWMMxPHX46_12ryo3_reqwest20response_parking_lotNtB5_10RyResponse20___pymethod___str____
FN:47,_RNvMsc_NtCs3QWMMxPHX46_12ryo3_reqwest20response_parking_lotNtB5_10RyResponse20___pymethod_get_url__
FN:47,_RNvMsc_NtCs3QWMMxPHX46_12ryo3_reqwest20response_parking_lotNtB5_10RyResponse21___pymethod___bool____
FN:47,_RNvMsc_NtCs3QWMMxPHX46_12ryo3_reqwest20response_parking_lotNtB5_10RyResponse21___pymethod___repr____
FN:47,_RNvMsc_NtCs3QWMMxPHX46_12ryo3_reqwest20response_parking_lotNtB5_10RyResponse23___pymethod_get_status__
FN:47,_RNvMsc_NtCs3QWMMxPHX46_12ryo3_reqwest20response_parking_lotNtB5_10RyResponse24___pymethod_get_headers__
FN:47,_RNvMsc_NtCs3QWMMxPHX46_12ryo3_reqwest20response_parking_lotNtB5_10RyResponse24___pymethod_get_version__
FN:47,_RNvMsc_NtCs3QWMMxPHX46_12ryo3_reqwest20response_parking_lotNtB5_10RyResponse25___pymethod_bytes_stream__
FN:47,_RNvMsc_NtCs3QWMMxPHX46_12ryo3_reqwest20response_parking_lotNtB5_10RyResponse26___pymethod_get_body_used__
FN:47,_RNvMsc_NtCs3QWMMxPHX46_12ryo3_reqwest20response_parking_lotNtB5_10RyResponse27___pymethod_get_redirected__
FN:47,_RNvMsc_NtCs3QWMMxPHX46_12ryo3_reqwest20response_parking_lotNtB5_10RyResponse28___pymethod_get_status_code__
FN:47,_RNvMsc_NtCs3QWMMxPHX46_12ryo3_reqwest20response_parking_lotNtB5_10RyResponse28___pymethod_get_status_text__
FN:47,_RNvMsc_NtCs3QWMMxPHX46_12ryo3_reqwest20response_parking_lotNtB5_10RyResponse29___pymethod_get_http_version__
FN:47,_RNvMsc_NtCs3QWMMxPHX46_12ryo3_reqwest20response_parking_lotNtB5_10RyResponse31___pymethod_get_content_length__
FN:47,_RNvMsc_NtCs3QWMMxPHX46_12ryo3_reqwest20response_parking_lotNtB5_10RyResponse33___pymethod_get_content_encoding__
FN:42,_RNvXs_NtCs3QWMMxPHX46_12ryo3_reqwest20response_parking_lotNtB4_10RyResponseINtNtCs66KPHxksi63_4core7convert4FromNtNtNtCskMsQnhPuNyx_7reqwest10async_impl8response8ResponseE4from
FNDA:0,_RNCNCNvMsa_NtCs3QWMMxPHX46_12ryo3_reqwest20response_parking_lotNtB9_10RyResponse5bytes00Bb_
FNDA:0,_RNCNvMsa_NtCs3QWMMxPHX46_12ryo3_reqwest20response_parking_lotNtB7_10RyResponse16content_encoding0B9_
FNDA:10,_RNCNvMsa_NtCs3QWMMxPHX46_12ryo3_reqwest20response_parking_lotNtB7_10RyResponse3url0B9_
FNDA:13,_RNCNvMsa_NtCs3QWMMxPHX46_12ryo3_reqwest20response_parking_lotNtB7_10RyResponse4json0B9_
FNDA:11,_RNCNvMsa_NtCs3QWMMxPHX46_12ryo3_reqwest20response_parking_lotNtB7_10RyResponse4text0B9_
FNDA:0,_RNCNvMsa_NtCs3QWMMxPHX46_12ryo3_reqwest20response_parking_lotNtB7_10RyResponse5bytes0B9_
FNDA:30,_RNvMNtCs3QWMMxPHX46_12ryo3_reqwest20response_parking_lotNtB2_10RyResponse13take_response
FNDA:28,_RNvMNtCs3QWMMxPHX46_12ryo3_reqwest20response_parking_lotNtB2_10RyResponse3new
FNDA:4,_RNvMsa_NtCs3QWMMxPHX46_12ryo3_reqwest20response_parking_lotNtB5_10RyResponse10redirected
FNDA:24,_RNvMsa_NtCs3QWMMxPHX46_12ryo3_reqwest20response_parking_lotNtB5_10RyResponse11status_code
FNDA:4,_RNvMsa_NtCs3QWMMxPHX46_12ryo3_reqwest20response_parking_lotNtB5_10RyResponse11status_text
FNDA:4,_RNvMsa_NtCs3QWMMxPHX46_12ryo3_reqwest20response_parking_lotNtB5_10RyResponse12bytes_stream
FNDA:0,_RNvMsa_NtCs3QWMMxPHX46_12ryo3_reqwest20response_parking_lotNtB5_10RyResponse12http_version
FNDA:0,_RNvMsa_NtCs3QWMMxPHX46_12ryo3_reqwest20response_parking_lotNtB5_10RyResponse14content_length
FNDA:0,_RNvMsa_NtCs3QWMMxPHX46_12ryo3_reqwest20response_parking_lotNtB5_10RyResponse16content_encoding
FNDA:0,_RNvMsa_NtCs3QWMMxPHX46_12ryo3_reqwest20response_parking_lotNtB5_10RyResponse2ok
FNDA:10,_RNvMsa_NtCs3QWMMxPHX46_12ryo3_reqwest20response_parking_lotNtB5_10RyResponse3url
FNDA:14,_RNvMsa_NtCs3QWMMxPHX46_12ryo3_reqwest20response_parking_lotNtB5_10RyResponse4json
FNDA:11,_RNvMsa_NtCs3QWMMxPHX46_12ryo3_reqwest20response_parking_lotNtB5_10RyResponse4text
FNDA:1,_RNvMsa_NtCs3QWMMxPHX46_12ryo3_reqwest20response_parking_lotNtB5_10RyResponse5bytes
FNDA:0,_RNvMsa_NtCs3QWMMxPHX46_12ryo3_reqwest20response_parking_lotNtB5_10RyResponse6py_new
FNDA:4,_RNvMsa_NtCs3QWMMxPHX46_12ryo3_reqwest20response_parking_lotNtB5_10RyResponse6status
FNDA:0,_RNvMsa_NtCs3QWMMxPHX46_12ryo3_reqwest20response_parking_lotNtB5_10RyResponse6stream
FNDA:2,_RNvMsa_NtCs3QWMMxPHX46_12ryo3_reqwest20response_parking_lotNtB5_10RyResponse7___str__
FNDA:4,_RNvMsa_NtCs3QWMMxPHX46_12ryo3_reqwest20response_parking_lotNtB5_10RyResponse7headers
FNDA:6,_RNvMsa_NtCs3QWMMxPHX46_12ryo3_reqwest20response_parking_lotNtB5_10RyResponse7version
FNDA:0,_RNvMsa_NtCs3QWMMxPHX46_12ryo3_reqwest20response_parking_lotNtB5_10RyResponse8___bool__
FNDA:0,_RNvMsa_NtCs3QWMMxPHX46_12ryo3_reqwest20response_parking_lotNtB5_10RyResponse8___repr__
FNDA:0,_RNvMsa_NtCs3QWMMxPHX46_12ryo3_reqwest20response_parking_lotNtB5_10RyResponse9body_used
FNDA:0,_RNvMsc_NtCs3QWMMxPHX46_12ryo3_reqwest20response_parking_lotNtB5_10RyResponse17___pymethod_json__
FNDA:0,_RNvMsc_NtCs3QWMMxPHX46_12ryo3_reqwest20response_parking_lotNtB5_10RyResponse17___pymethod_text__
FNDA:0,_RNvMsc_NtCs3QWMMxPHX46_12ryo3_reqwest20response_parking_lotNtB5_10RyResponse18___pymethod_bytes__
FNDA:0,_RNvMsc_NtCs3QWMMxPHX46_12ryo3_reqwest20response_parking_lotNtB5_10RyResponse19___pymethod_get_ok__
FNDA:0,_RNvMsc_NtCs3QWMMxPHX46_12ryo3_reqwest20response_parking_lotNtB5_10RyResponse19___pymethod_stream__
FNDA:0,_RNvMsc_NtCs3QWMMxPHX46_12ryo3_reqwest20response_parking_lotNtB5_10RyResponse20___pymethod___str____
FNDA:0,_RNvMsc_NtCs3QWMMxPHX46_12ryo3_reqwest20response_parking_lotNtB5_10RyResponse20___pymethod_get_url__
FNDA:0,_RNvMsc_NtCs3QWMMxPHX46_12ryo3_reqwest20response_parking_lotNtB5_10RyResponse21___pymethod___bool____
FNDA:0,_RNvMsc_NtCs3QWMMxPHX46_12ryo3_reqwest20response_parking_lotNtB5_10RyResponse21___pymethod___repr____
FNDA:0,_RNvMsc_NtCs3QWMMxPHX46_12ryo3_reqwest20response_parking_lotNtB5_10RyResponse23___pymethod_get_status__
FNDA:0,_RNvMsc_NtCs3QWMMxPHX46_12ryo3_reqwest20response_parking_lotNtB5_10RyResponse24___pymethod_get_headers__
FNDA:0,_RNvMsc_NtCs3QWMMxPHX46_12ryo3_reqwest20response_parking_lotNtB5_10RyResponse24___pymethod_get_version__
FNDA:0,_RNvMsc_NtCs3QWMMxPHX46_12ryo3_reqwest20response_parking_lotNtB5_10RyResponse25___pymethod_bytes_stream__
FNDA:0,_RNvMsc_NtCs3QWMMxPHX46_12ryo3_reqwest20response_parking_lotNtB5_10RyResponse26___pymethod_get_body_used__
FNDA:0,_RNvMsc_NtCs3QWMMxPHX46_12ryo3_reqwest20response_parking_lotNtB5_10RyResponse27___pymethod_get_redirected__
FNDA:0,_RNvMsc_NtCs3QWMMxPHX46_12ryo3_reqwest20response_parking_lotNtB5_10RyResponse28___pymethod_get_status_code__
FNDA:0,_RNvMsc_NtCs3QWMMxPHX46_12ryo3_reqwest20response_parking_lotNtB5_10RyResponse28___pymethod_get_status_text__
FNDA:0,_RNvMsc_NtCs3QWMMxPHX46_12ryo3_reqwest20response_parking_lotNtB5_10RyResponse29___pymethod_get_http_version__
FNDA:0,_RNvMsc_NtCs3QWMMxPHX46_12ryo3_reqwest20response_parking_lotNtB5_10RyResponse31___pymethod_get_content_length__
FNDA:0,_RNvMsc_NtCs3QWMMxPHX46_12ryo3_reqwest20response_parking_lotNtB5_10RyResponse33___pymethod_get_content_encoding__
FNDA:28,_RNvXs_NtCs3QWMMxPHX46_12ryo3_reqwest20response_parking_lotNtB4_10RyResponseINtNtCs66KPHxksi63_4core7convert4FromNtNtNtCskMsQnhPuNyx_7reqwest10async_impl8response8ResponseE4from
FNF:31
FNH:18
DA:28,28
DA:29,28
DA:30,28
DA:31,28
DA:32,28
DA:33,28
DA:35,30
DA:36,30
DA:37,30
DA:38,30
DA:42,28
DA:43,28
DA:44,28
DA:47,0
DA:50,0
DA:51,0
DA:52,0
DA:54,2
DA:55,2
DA:56,2
DA:58,0
DA:59,0
DA:60,0
DA:63,4
DA:64,4
DA:65,4
DA:68,4
DA:69,4
DA:70,4
DA:73,24
DA:74,24
DA:75,24
DA:79,4
DA:80,4
DA:81,4
DA:84,6
DA:85,6
DA:86,6
DA:89,0
DA:90,0
DA:91,0
DA:95,10
DA:96,10
DA:97,10
DA:100,4
DA:101,4
DA:102,4
DA:103,4
DA:107,0
DA:108,0
DA:109,0
DA:113,0
DA:114,0
DA:115,0
DA:118,0
DA:119,0
DA:120,0
DA:126,0
DA:127,0
DA:128,0
DA:131,1
DA:133,1
DA:134,0
DA:139,0
DA:140,0
DA:141,0
DA:142,0
DA:143,0
DA:144,0
DA:145,1
DA:148,11
DA:149,11
DA:150,11
DA:151,11
DA:152,11
DA:153,11
DA:156,14
DA:157,14
DA:158,13
DA:159,13
DA:160,13
DA:161,13
DA:162,13
DA:163,13
DA:164,13
DA:165,14
DA:168,4
DA:169,4
DA:170,4
DA:171,4
DA:174,0
DA:175,0
DA:176,0
DA:179,0
DA:180,0
DA:181,0
DA:182,0
DA:183,0
DA:184,0
BRF:0
BRH:0
LF:105
LH:64
end_of_record
SF:/home/jesse/ry/crates/ryo3-reqwest/src/response_stream.rs
FN:79,_RNCNvMs8_NtCs3QWMMxPHX46_12ryo3_reqwest15response_streamNtB7_16RyResponseStream4take0B9_
FN:97,_RNCNvMs8_NtCs3QWMMxPHX46_12ryo3_reqwest15response_streamNtB7_16RyResponseStream7collect0B9_
FN:111,_RNCNvMs8_NtCs3QWMMxPHX46_12ryo3_reqwest15response_streamNtB7_16RyResponseStream7collects_0B9_
FN:65,_RNCNvMs8_NtCs3QWMMxPHX46_12ryo3_reqwest15response_streamNtB7_16RyResponseStream9___anext__0B9_
FN:40,_RNvMNtCs3QWMMxPHX46_12ryo3_reqwest15response_streamNtB2_16RyResponseStream13from_response
FN:77,_RNvMs8_NtCs3QWMMxPHX46_12ryo3_reqwest15response_streamNtB5_16RyResponseStream4take
FN:94,_RNvMs8_NtCs3QWMMxPHX46_12ryo3_reqwest15response_streamNtB5_16RyResponseStream7collect
FN:55,_RNvMs8_NtCs3QWMMxPHX46_12ryo3_reqwest15response_streamNtB5_16RyResponseStream8___repr__
FN:59,_RNvMs8_NtCs3QWMMxPHX46_12ryo3_reqwest15response_streamNtB5_16RyResponseStream9___aiter__
FN:63,_RNvMs8_NtCs3QWMMxPHX46_12ryo3_reqwest15response_streamNtB5_16RyResponseStream9___anext__
FN:53,_RNvMsa_NtCs3QWMMxPHX46_12ryo3_reqwest15response_streamNtB5_16RyResponseStream21___pymethod___repr____
FN:53,_RNvMsa_NtCs3QWMMxPHX46_12ryo3_reqwest15response_streamNtB5_16RyResponseStream22___pymethod___aiter____
FNDA:2,_RNCNvMs8_NtCs3QWMMxPHX46_12ryo3_reqwest15response_streamNtB7_16RyResponseStream4take0B9_
FNDA:1,_RNCNvMs8_NtCs3QWMMxPHX46_12ryo3_reqwest15response_streamNtB7_16RyResponseStream7collect0B9_
FNDA:1,_RNCNvMs8_NtCs3QWMMxPHX46_12ryo3_reqwest15response_streamNtB7_16RyResponseStream7collects_0B9_
FNDA:104,_RNCNvMs8_NtCs3QWMMxPHX46_12ryo3_reqwest15response_streamNtB7_16RyResponseStream9___anext__0B9_
FNDA:4,_RNvMNtCs3QWMMxPHX46_12ryo3_reqwest15response_streamNtB2_16RyResponseStream13from_response
FNDA:2,_RNvMs8_NtCs3QWMMxPHX46_12ryo3_reqwest15response_streamNtB5_16RyResponseStream4take
FNDA:2,_RNvMs8_NtCs3QWMMxPHX46_12ryo3_reqwest15response_streamNtB5_16RyResponseStream7collect
FNDA:0,_RNvMs8_NtCs3QWMMxPHX46_12ryo3_reqwest15response_streamNtB5_16RyResponseStream8___repr__
FNDA:2,_RNvMs8_NtCs3QWMMxPHX46_12ryo3_reqwest15response_streamNtB5_16RyResponseStream9___aiter__
FNDA:104,_RNvMs8_NtCs3QWMMxPHX46_12ryo3_reqwest15response_streamNtB5_16RyResponseStream9___anext__
FNDA:0,_RNvMsa_NtCs3QWMMxPHX46_12ryo3_reqwest15response_streamNtB5_16RyResponseStream21___pymethod___repr____
FNDA:0,_RNvMsa_NtCs3QWMMxPHX46_12ryo3_reqwest15response_streamNtB5_16RyResponseStream22___pymethod___aiter____
FNF:11
FNH:9
DA:40,4
DA:41,4
DA:42,4
DA:43,4
DA:45,4
DA:46,4
DA:47,4
DA:48,4
DA:49,4
DA:50,4
DA:53,0
DA:55,0
DA:56,0
DA:57,0
DA:59,2
DA:60,2
DA:61,2
DA:63,104
DA:64,104
DA:65,104
DA:66,104
DA:67,104
DA:68,102
DA:69,0
DA:71,2
DA:73,104
DA:74,104
DA:77,2
DA:78,2
DA:79,2
DA:80,2
DA:81,2
DA:82,2
DA:83,3
DA:84,3
DA:85,0
DA:86,0
DA:89,2
DA:90,2
DA:91,2
DA:94,2
DA:95,2
DA:96,2
DA:97,1
DA:98,1
DA:99,1
DA:100,101
DA:101,100
DA:102,100
DA:103,0
DA:106,1
DA:107,1
DA:108,1
DA:109,1
DA:111,1
DA:112,1
DA:113,1
DA:114,98
DA:115,97
DA:116,97
DA:117,0
DA:120,1
DA:121,1
DA:123,2
BRF:0
BRH:0
LF:68
LH:59
end_of_record
SF:/home/jesse/ry/crates/ryo3-reqwest/src/response_tokio_mutex.rs
FN:139,_RNCNCNvMsa_NtCs3QWMMxPHX46_12ryo3_reqwest20response_tokio_mutexNtB9_10RyResponse5bytes00Bb_
FN:173,_RNCNvMsa_NtCs3QWMMxPHX46_12ryo3_reqwest20response_tokio_mutexNtB7_10RyResponse12bytes_stream0B9_
FN:122,_RNCNvMsa_NtCs3QWMMxPHX46_12ryo3_reqwest20response_tokio_mutexNtB7_10RyResponse16content_encoding0B9_
FN:86,_RNCNvMsa_NtCs3QWMMxPHX46_12ryo3_reqwest20response_tokio_mutexNtB7_10RyResponse3url0B9_
FN:156,_RNCNvMsa_NtCs3QWMMxPHX46_12ryo3_reqwest20response_tokio_mutexNtB7_10RyResponse4json0B9_
FN:146,_RNCNvMsa_NtCs3QWMMxPHX46_12ryo3_reqwest20response_tokio_mutexNtB7_10RyResponse4text0B9_
FN:131,_RNCNvMsa_NtCs3QWMMxPHX46_12ryo3_reqwest20response_tokio_mutexNtB7_10RyResponse5bytes0B9_
FN:27,_RNvMNtCs3QWMMxPHX46_12ryo3_reqwest20response_tokio_mutexNtB2_10RyResponse3new
FN:69,_RNvMsa_NtCs3QWMMxPHX46_12ryo3_reqwest20response_tokio_mutexNtB5_10RyResponse10redirected
FN:63,_RNvMsa_NtCs3QWMMxPHX46_12ryo3_reqwest20response_tokio_mutexNtB5_10RyResponse11status_code
FN:58,_RNvMsa_NtCs3QWMMxPHX46_12ryo3_reqwest20response_tokio_mutexNtB5_10RyResponse11status_text
FN:167,_RNvMsa_NtCs3QWMMxPHX46_12ryo3_reqwest20response_tokio_mutexNtB5_10RyResponse12bytes_stream
FN:79,_RNvMsa_NtCs3QWMMxPHX46_12ryo3_reqwest20response_tokio_mutexNtB5_10RyResponse12http_version
FN:97,_RNvMsa_NtCs3QWMMxPHX46_12ryo3_reqwest20response_tokio_mutexNtB5_10RyResponse14content_length
FN:121,_RNvMsa_NtCs3QWMMxPHX46_12ryo3_reqwest20response_tokio_mutexNtB5_10RyResponse16content_encoding
FN:103,_RNvMsa_NtCs3QWMMxPHX46_12ryo3_reqwest20response_tokio_mutexNtB5_10RyResponse2ok
FN:85,_RNvMsa_NtCs3QWMMxPHX46_12ryo3_reqwest20response_tokio_mutexNtB5_10RyResponse3url
FN:154,_RNvMsa_NtCs3QWMMxPHX46_12ryo3_reqwest20response_tokio_mutexNtB5_10RyResponse4json
FN:144,_RNvMsa_NtCs3QWMMxPHX46_12ryo3_reqwest20response_tokio_mutexNtB5_10RyResponse4text
FN:129,_RNvMsa_NtCs3QWMMxPHX46_12ryo3_reqwest20response_tokio_mutexNtB5_10RyResponse5bytes
FN:44,_RNvMsa_NtCs3QWMMxPHX46_12ryo3_reqwest20response_tokio_mutexNtB5_10RyResponse6py_new
FN:53,_RNvMsa_NtCs3QWMMxPHX46_12ryo3_reqwest20response_tokio_mutexNtB5_10RyResponse6status
FN:90,_RNvMsa_NtCs3QWMMxPHX46_12ryo3_reqwest20response_tokio_mutexNtB5_10RyResponse7headers
FN:74,_RNvMsa_NtCs3QWMMxPHX46_12ryo3_reqwest20response_tokio_mutexNtB5_10RyResponse7version
FN:108,_RNvMsa_NtCs3QWMMxPHX46_12ryo3_reqwest20response_tokio_mutexNtB5_10RyResponse8___bool__
FN:48,_RNvMsa_NtCs3QWMMxPHX46_12ryo3_reqwest20response_tokio_mutexNtB5_10RyResponse8___repr__
FN:116,_RNvMsa_NtCs3QWMMxPHX46_12ryo3_reqwest20response_tokio_mutexNtB5_10RyResponse9body_used
FN:41,_RNvMsc_NtCs3QWMMxPHX46_12ryo3_reqwest20response_tokio_mutexNtB5_10RyResponse17___pymethod_json__
FN:41,_RNvMsc_NtCs3QWMMxPHX46_12ryo3_reqwest20response_tokio_mutexNtB5_10RyResponse17___pymethod_text__
FN:41,_RNvMsc_NtCs3QWMMxPHX46_12ryo3_reqwest20response_tokio_mutexNtB5_10RyResponse18___pymethod_bytes__
FN:41,_RNvMsc_NtCs3QWMMxPHX46_12ryo3_reqwest20response_tokio_mutexNtB5_10RyResponse19___pymethod_get_ok__
FN:41,_RNvMsc_NtCs3QWMMxPHX46_12ryo3_reqwest20response_tokio_mutexNtB5_10RyResponse20___pymethod_get_url__
FN:41,_RNvMsc_NtCs3QWMMxPHX46_12ryo3_reqwest20response_tokio_mutexNtB5_10RyResponse21___pymethod___bool____
FN:41,_RNvMsc_NtCs3QWMMxPHX46_12ryo3_reqwest20response_tokio_mutexNtB5_10RyResponse21___pymethod___repr____
FN:41,_RNvMsc_NtCs3QWMMxPHX46_12ryo3_reqwest20response_tokio_mutexNtB5_10RyResponse23___pymethod_get_status__
FN:41,_RNvMsc_NtCs3QWMMxPHX46_12ryo3_reqwest20response_tokio_mutexNtB5_10RyResponse24___pymethod_get_headers__
FN:41,_RNvMsc_NtCs3QWMMxPHX46_12ryo3_reqwest20response_tokio_mutexNtB5_10RyResponse24___pymethod_get_version__
